(lp0
Vhttps://pbs.twimg.com/profile_banners/942468344/1352937344
p1
aVhttps://pbs.twimg.com/profile_banners/2926619406/1418292765
p2
aVhttps://pbs.twimg.com/profile_banners/3288398381/1434725853
p3
aVhttps://pbs.twimg.com/profile_banners/2155192119/1445250431
p4
aVhttps://pbs.twimg.com/profile_banners/386203927/1364343962
p5
aVhttps://pbs.twimg.com/profile_banners/3031589792/1424383973
p6
aVhttps://pbs.twimg.com/profile_banners/2974696113/1422959863
p7
aVhttps://pbs.twimg.com/profile_banners/1176950425/1421427970
p8
aVhttps://pbs.twimg.com/profile_banners/2751433415/1409543001
p9
aVhttps://pbs.twimg.com/profile_banners/1081135525/1418065589
p10
aVhttps://pbs.twimg.com/profile_banners/1242026917/1404810875
p11
aVhttps://pbs.twimg.com/profile_banners/3241900886/1446857885
p12
aVhttps://pbs.twimg.com/profile_banners/107262106/1393324691
p13
aVhttps://pbs.twimg.com/profile_banners/1152317636/1360699907
p14
aVhttps://pbs.twimg.com/profile_banners/3603821601/1452895754
p15
aVhttps://pbs.twimg.com/profile_banners/2619876186/1405126872
p16
aVhttps://pbs.twimg.com/profile_banners/2597548093/1407191679
p17
aVhttps://pbs.twimg.com/profile_banners/633234689/1388160757
p18
aVhttps://pbs.twimg.com/profile_banners/4453335862/1449908380
p19
aVhttps://pbs.twimg.com/profile_banners/1544581940/1405586622
p20
aVhttps://pbs.twimg.com/profile_banners/1602405301/1374126912
p21
aVhttps://pbs.twimg.com/profile_banners/2429724698/1409020278
p22
aVhttps://pbs.twimg.com/profile_banners/858727903/1396757864
p23
aVhttps://pbs.twimg.com/profile_banners/1963609128/1406797276
p24
aVhttps://pbs.twimg.com/profile_banners/2193593707/1385954450
p25
aVhttps://pbs.twimg.com/profile_banners/3088112694/1428406748
p26
aVhttps://pbs.twimg.com/profile_banners/2458912698/1398222019
p27
aVhttps://pbs.twimg.com/profile_banners/596862084/1396978556
p28
aVhttps://pbs.twimg.com/profile_banners/3124489851/1443487250
p29
aVhttps://pbs.twimg.com/profile_banners/2845021224/1412721698
p30
aVhttps://pbs.twimg.com/profile_banners/1206565364/1361500707
p31
aVhttps://pbs.twimg.com/profile_banners/1441879200/1368988880
p32
aVhttps://pbs.twimg.com/profile_banners/1331675239/1365412447
p33
aVhttps://pbs.twimg.com/profile_banners/756369559/1362356800
p34
aVhttps://pbs.twimg.com/profile_banners/86370450/1379787177
p35
aVhttps://pbs.twimg.com/profile_banners/2394643253/1433009008
p36
aVhttps://pbs.twimg.com/profile_banners/2650839070/1403983003
p37
aVhttps://pbs.twimg.com/profile_banners/2747667874/1408565869
p38
aVhttps://pbs.twimg.com/profile_banners/851374766/1387384685
p39
aVhttps://pbs.twimg.com/profile_banners/1635634476/1378235257
p40
aVhttps://pbs.twimg.com/profile_banners/2752197573/1409521315
p41
aVhttps://pbs.twimg.com/profile_banners/2156016111/1382897229
p42
aVhttps://pbs.twimg.com/profile_banners/2926711241/1426671503
p43
aVhttps://pbs.twimg.com/profile_banners/2180386725/1384403905
p44
aVhttps://pbs.twimg.com/profile_banners/3401361820/1438619358
p45
aVhttps://pbs.twimg.com/profile_banners/4329342093/1448896937
p46
aVhttps://pbs.twimg.com/profile_banners/1068046496/1360595777
p47
aVhttps://pbs.twimg.com/profile_banners/1693966087/1377267617
p48
aVhttps://pbs.twimg.com/profile_banners/1194864282/1363655261
p49
aVhttps://pbs.twimg.com/profile_banners/3260285251/1435687431
p50
aVhttps://pbs.twimg.com/profile_banners/3035178021/1425057195
p51
aVhttps://pbs.twimg.com/profile_banners/1084937486/1359525163
p52
aVhttps://pbs.twimg.com/profile_banners/1358405719/1366839900
p53
aVhttps://pbs.twimg.com/profile_banners/1245522354/1363455976
p54
aVhttps://pbs.twimg.com/profile_banners/839386784/1353965847
p55
aVhttps://pbs.twimg.com/profile_banners/2568405225/1401261376
p56
aVhttps://pbs.twimg.com/profile_banners/3031382617/1424376674
p57
aVhttps://pbs.twimg.com/profile_banners/1005786006/1355298148
p58
aVhttps://pbs.twimg.com/profile_banners/2427649747/1396634340
p59
aVhttps://pbs.twimg.com/profile_banners/986588492/1354566358
p60
aVhttps://pbs.twimg.com/profile_banners/946529629/1352844856
p61
aVhttps://pbs.twimg.com/profile_banners/868585770/1349729341
p62
aVhttps://pbs.twimg.com/profile_banners/1187181708/1361044468
p63
aVhttps://pbs.twimg.com/profile_banners/1252412918/1363061135
p64
aVhttps://pbs.twimg.com/profile_banners/1921762350/1380711260
p65
aVhttps://pbs.twimg.com/profile_banners/1132662691/1359512200
p66
aVhttps://pbs.twimg.com/profile_banners/885375548/1350424068
p67
aVhttps://pbs.twimg.com/profile_banners/985288657/1354478796
p68
aVhttps://pbs.twimg.com/profile_banners/940145173/1352591485
p69
aVhttps://pbs.twimg.com/profile_banners/1342787600/1365625523
p70
aVhttps://pbs.twimg.com/profile_banners/2256870712/1388611682
p71
aVhttps://pbs.twimg.com/profile_banners/2936310060/1438736426
p72
aVhttps://pbs.twimg.com/profile_banners/1007883535/1355368217
p73
aVhttps://pbs.twimg.com/profile_banners/711623020/1390407088
p74
aVhttps://pbs.twimg.com/profile_banners/2273960540/1389943700
p75
aVhttps://pbs.twimg.com/profile_banners/795155268/1348195502
p76
aVhttps://pbs.twimg.com/profile_banners/1473715950/1370146690
p77
aVhttps://pbs.twimg.com/profile_banners/1172359394/1360686683
p78
aVhttps://pbs.twimg.com/profile_banners/1322481108/1364911494
p79
aVhttps://pbs.twimg.com/profile_banners/1682256595/1376882928
p80
aVhttps://pbs.twimg.com/profile_banners/2881955738/1414580293
p81
aVhttps://pbs.twimg.com/profile_banners/1173551736/1360719531
p82
aVhttps://pbs.twimg.com/profile_banners/556243817/1364017352
p83
aVhttps://pbs.twimg.com/profile_banners/1013980279/1355620026
p84
aVhttps://pbs.twimg.com/profile_banners/1032221768/1356493615
p85
aVhttps://pbs.twimg.com/profile_banners/1139390137/1359762445
p86
aVhttps://pbs.twimg.com/profile_banners/1260746550/1363050380
p87
aVhttps://pbs.twimg.com/profile_banners/1093998235/1360098919
p88
aVhttps://pbs.twimg.com/profile_banners/1665254078/1376319360
p89
aVhttps://pbs.twimg.com/profile_banners/1481266039/1370391056
p90
aVhttps://pbs.twimg.com/profile_banners/933218346/1352332651
p91
aVhttps://pbs.twimg.com/profile_banners/1644633696/1420688532
p92
aVhttps://pbs.twimg.com/profile_banners/3070457203/1450483520
p93
aVhttps://pbs.twimg.com/profile_banners/1543929367/1373323001
p94
aVhttps://pbs.twimg.com/profile_banners/1316672550/1364658795
p95
aVhttps://pbs.twimg.com/profile_banners/2265186963/1389012234
p96
aVhttps://pbs.twimg.com/profile_banners/1043729875/1356963997
p97
aVhttps://pbs.twimg.com/profile_banners/1635081919/1375263729
p98
aVhttps://pbs.twimg.com/profile_banners/95546596/1394168288
p99
aVhttps://pbs.twimg.com/profile_banners/1289858702/1375411795
p100
aVhttps://pbs.twimg.com/profile_banners/1128982886/1371612785
p101
aVhttps://pbs.twimg.com/profile_banners/1716029438/1378111664
p102
aVhttps://pbs.twimg.com/profile_banners/886842716/1350486663
p103
aVhttps://pbs.twimg.com/profile_banners/1409455746/1367905824
p104
aVhttps://pbs.twimg.com/profile_banners/1546504976/1374923267
p105
aVhttps://pbs.twimg.com/profile_banners/2159855671/1382918625
p106
aVhttps://pbs.twimg.com/profile_banners/981884534/1354340286
p107
aVhttps://pbs.twimg.com/profile_banners/1010302736/1358455338
p108
aVhttps://pbs.twimg.com/profile_banners/1274305154/1370461723
p109
aVhttps://pbs.twimg.com/profile_banners/1229927227/1362148304
p110
aVhttps://pbs.twimg.com/profile_banners/890103900/1420481324
p111
aVhttps://pbs.twimg.com/profile_banners/1240523563/1363327412
p112
aVhttps://pbs.twimg.com/profile_banners/1167960600/1360562977
p113
aVhttps://pbs.twimg.com/profile_banners/629764843/1374655256
p114
aVhttps://pbs.twimg.com/profile_banners/2427382332/1396729741
p115
aVhttps://pbs.twimg.com/profile_banners/2339526270/1392168955
p116
aVhttps://pbs.twimg.com/profile_banners/999943854/1355081255
p117
aVhttps://pbs.twimg.com/profile_banners/1443048278/1382815560
p118
aVhttps://pbs.twimg.com/profile_banners/1483458079/1379604685
p119
aVhttps://pbs.twimg.com/profile_banners/1509475789/1371102413
p120
aVhttps://pbs.twimg.com/profile_banners/1220058686/1361837151
p121
aVhttps://pbs.twimg.com/profile_banners/67430763/1395118743
p122
aVhttps://pbs.twimg.com/profile_banners/4069840253/1446147198
p123
aVhttps://pbs.twimg.com/profile_banners/1457332819/1369499008
p124
aVhttps://pbs.twimg.com/profile_banners/1458224383/1369536538
p125
aVhttps://pbs.twimg.com/profile_banners/2637552873/1403613392
p126
aVhttps://pbs.twimg.com/profile_banners/1191077636/1361133778
p127
aVhttps://pbs.twimg.com/profile_banners/1609567772/1374409645
p128
aVhttps://pbs.twimg.com/profile_banners/3138569710/1428270603
p129
aVhttps://pbs.twimg.com/profile_banners/3000466502/1422504822
p130
aVhttps://pbs.twimg.com/profile_banners/2600203795/1406990326
p131
aVhttps://pbs.twimg.com/profile_banners/1170604069/1360635173
p132
aVhttps://pbs.twimg.com/profile_banners/3318364720/1433991843
p133
aVhttps://pbs.twimg.com/profile_banners/816538232/1363757118
p134
aVhttps://pbs.twimg.com/profile_banners/1065032330/1358140152
p135
aVhttps://pbs.twimg.com/profile_banners/1042679569/1356714831
p136
aVhttps://pbs.twimg.com/profile_banners/1674059323/1376610568
p137
aVhttps://pbs.twimg.com/profile_banners/2814438992/1410940380
p138
aVhttps://pbs.twimg.com/profile_banners/2935634373/1419903976
p139
aVhttps://pbs.twimg.com/profile_banners/1849655365/1378766598
p140
aVhttps://pbs.twimg.com/profile_banners/3328120239/1434409472
p141
aVhttps://pbs.twimg.com/profile_banners/2234674638/1386429622
p142
aVhttps://pbs.twimg.com/profile_banners/1578777541/1373322995
p143
aVhttps://pbs.twimg.com/profile_banners/1673148973/1421595813
p144
aVhttps://pbs.twimg.com/profile_banners/2956069936/1420172115
p145
aVhttps://pbs.twimg.com/profile_banners/2255985468/1387659087
p146
aVhttps://pbs.twimg.com/profile_banners/2815269757/1410972192
p147
aVhttps://pbs.twimg.com/profile_banners/2289084841/1389588456
p148
aVhttps://pbs.twimg.com/profile_banners/2247202579/1387315385
p149
aVhttps://pbs.twimg.com/profile_banners/752101598/1377217979
p150
aVhttps://pbs.twimg.com/profile_banners/2993429933/1421980171
p151
aVhttps://pbs.twimg.com/profile_banners/2365997659/1393614397
p152
aVhttps://pbs.twimg.com/profile_banners/2256513553/1392666799
p153
aVhttps://pbs.twimg.com/profile_banners/1962611329/1382338154
p154
aVhttps://pbs.twimg.com/profile_banners/716893583/1382009813
p155
aVhttps://pbs.twimg.com/profile_banners/2739131283/1452486134
p156
aVhttps://pbs.twimg.com/profile_banners/2155187931/1454480900
p157
aVhttps://pbs.twimg.com/profile_banners/456439564/1385157657
p158
aVhttps://pbs.twimg.com/profile_banners/2336906655/1454509693
p159
aVhttps://pbs.twimg.com/profile_banners/3866550498/1445015834
p160
aVhttps://pbs.twimg.com/profile_banners/3281443651/1454656825
p161
aVhttps://pbs.twimg.com/profile_banners/2817562918/1454193028
p162
aVhttps://pbs.twimg.com/profile_banners/2981914066/1421609234
p163
aVhttps://pbs.twimg.com/profile_banners/3619695913/1450312910
p164
aVhttps://pbs.twimg.com/profile_banners/4659588140/1452349043
p165
aVhttps://pbs.twimg.com/profile_banners/611244324/1454911878
p166
aVhttps://pbs.twimg.com/profile_banners/1062929624/1357390786
p167
aVhttps://pbs.twimg.com/profile_banners/2740416663/1407811472
p168
aVhttps://pbs.twimg.com/profile_banners/1697153972/1377369571
p169
aVhttps://pbs.twimg.com/profile_banners/3408773973/1439050968
p170
aVhttps://pbs.twimg.com/profile_banners/2972152438/1420927191
p171
aVhttps://pbs.twimg.com/profile_banners/582163782/1416765701
p172
aVhttps://pbs.twimg.com/profile_banners/1494665197/1370753570
p173
aVhttps://pbs.twimg.com/profile_banners/2322200486/1391257623
p174
aVhttps://pbs.twimg.com/profile_banners/2797090740/1453822961
p175
aVhttps://pbs.twimg.com/profile_banners/1390891604/1392784838
p176
aVhttps://pbs.twimg.com/profile_banners/1265453876/1434343961
p177
aVhttps://pbs.twimg.com/profile_banners/1052262650/1357033995
p178
aVhttps://pbs.twimg.com/profile_banners/2281342585/1408506104
p179
aVhttps://pbs.twimg.com/profile_banners/4371768256/1449230233
p180
aVhttps://pbs.twimg.com/profile_banners/3873179194/1444115933
p181
aVhttps://pbs.twimg.com/profile_banners/2871352309/1432721064
p182
aVhttps://pbs.twimg.com/profile_banners/2215677454/1386592032
p183
aVhttps://pbs.twimg.com/profile_banners/1544375413/1372128238
p184
aVhttps://pbs.twimg.com/profile_banners/1033721376/1356395209
p185
aVhttps://pbs.twimg.com/profile_banners/1040961342/1356675356
p186
aVhttps://pbs.twimg.com/profile_banners/3988357634/1451328669
p187
aVhttps://pbs.twimg.com/profile_banners/2572789899/1401482303
p188
aVhttps://pbs.twimg.com/profile_banners/1242788161/1363585045
p189
aVhttps://pbs.twimg.com/profile_banners/1849766005/1397613076
p190
aVhttps://pbs.twimg.com/profile_banners/1896351156/1379918873
p191
aVhttps://pbs.twimg.com/profile_banners/3420683986/1450678410
p192
aVhttps://pbs.twimg.com/profile_banners/3185204104/1430710523
p193
aVhttps://pbs.twimg.com/profile_banners/2693618512/1404962968
p194
aVhttps://pbs.twimg.com/profile_banners/2619771740/1437936662
p195
aVhttps://pbs.twimg.com/profile_banners/3111763632/1427500949
p196
aVhttps://pbs.twimg.com/profile_banners/3502533136/1449350181
p197
aVhttps://pbs.twimg.com/profile_banners/458857215/1392253290
p198
aVhttps://pbs.twimg.com/profile_banners/2450832253/1448133939
p199
aVhttps://pbs.twimg.com/profile_banners/4659549987/1455056131
p200
aVhttps://pbs.twimg.com/profile_banners/2211938060/1385272034
p201
aVhttps://pbs.twimg.com/profile_banners/1121195330/1359183672
p202
aVhttps://pbs.twimg.com/profile_banners/2840611944/1412470523
p203
aVhttps://pbs.twimg.com/profile_banners/3146562067/1453138412
p204
aVhttps://pbs.twimg.com/profile_banners/3182413736/1433819605
p205
aVhttps://pbs.twimg.com/profile_banners/975284562/1354074672
p206
aVhttps://pbs.twimg.com/profile_banners/1361120106/1390722029
p207
aVhttps://pbs.twimg.com/profile_banners/548884928/1367043353
p208
aVhttps://pbs.twimg.com/profile_banners/1081872967/1370830432
p209
aVhttps://pbs.twimg.com/profile_banners/2334462882/1391917351
p210
aVhttps://pbs.twimg.com/profile_banners/529394785/1386447364
p211
aVhttps://pbs.twimg.com/profile_banners/718911278/1348490477
p212
aVhttps://pbs.twimg.com/profile_banners/2306661141/1390779596
p213
aVhttps://pbs.twimg.com/profile_banners/4035846372/1447156952
p214
aVhttps://pbs.twimg.com/profile_banners/2740177692/1408299425
p215
aVhttps://pbs.twimg.com/profile_banners/989888767/1354668374
p216
aVhttps://pbs.twimg.com/profile_banners/2500637135/1401156576
p217
aVhttps://pbs.twimg.com/profile_banners/2431034779/1396820556
p218
aVhttps://pbs.twimg.com/profile_banners/751457881/1348234191
p219
aVhttps://pbs.twimg.com/profile_banners/2293781112/1389847179
p220
aVhttps://pbs.twimg.com/profile_banners/335147737/1377081902
p221
aVhttps://pbs.twimg.com/profile_banners/2423642235/1395948273
p222
aVhttps://pbs.twimg.com/profile_banners/2268060968/1388365083
p223
aVhttps://pbs.twimg.com/profile_banners/1463538986/1370919255
p224
aVhttps://pbs.twimg.com/profile_banners/2274560151/1389436377
p225
aVhttps://pbs.twimg.com/profile_banners/1666050056/1376342196
p226
aVhttps://pbs.twimg.com/profile_banners/1544493452/1372998376
p227
aVhttps://pbs.twimg.com/profile_banners/606823112/1351347349
p228
aVhttps://pbs.twimg.com/profile_banners/494617147/1349729483
p229
aVhttps://pbs.twimg.com/profile_banners/2451953051/1422519640
p230
aVhttps://pbs.twimg.com/profile_banners/1372946827/1366662147
p231
aVhttps://pbs.twimg.com/profile_banners/1263298747/1416452597
p232
aVhttps://pbs.twimg.com/profile_banners/950509038/1353016248
p233
aVhttps://pbs.twimg.com/profile_banners/858940723/1349224429
p234
aVhttps://pbs.twimg.com/profile_banners/2378126628/1394253570
p235
aVhttps://pbs.twimg.com/profile_banners/832440222/1354895714
p236
aVhttps://pbs.twimg.com/profile_banners/1250664025/1371622958
p237
aVhttps://pbs.twimg.com/profile_banners/719370162/1348100150
p238
aVhttps://pbs.twimg.com/profile_banners/2534293513/1405659106
p239
aVhttps://pbs.twimg.com/profile_banners/1077679964/1360007036
p240
aVhttps://pbs.twimg.com/profile_banners/1896087188/1379910317
p241
aVhttps://pbs.twimg.com/profile_banners/1461274537/1396412897
p242
aVhttps://pbs.twimg.com/profile_banners/2459967852/1398271186
p243
aVhttps://pbs.twimg.com/profile_banners/3496010416/1440981950
p244
aVhttps://pbs.twimg.com/profile_banners/3873674234/1445135467
p245
aVhttps://pbs.twimg.com/profile_banners/2958559747/1425814936
p246
aVhttps://pbs.twimg.com/profile_banners/1390560865/1367273513
p247
aVhttps://pbs.twimg.com/profile_banners/2274957632/1388777246
p248
aVhttps://pbs.twimg.com/profile_banners/2484784148/1399602852
p249
aVhttps://pbs.twimg.com/profile_banners/3030266500/1425206147
p250
aVhttps://pbs.twimg.com/profile_banners/2924448458/1418607652
p251
aVhttps://pbs.twimg.com/profile_banners/1038908624/1408634698
p252
aVhttps://pbs.twimg.com/profile_banners/1638811094/1375390693
p253
aVhttps://pbs.twimg.com/profile_banners/958699591/1370556699
p254
aVhttps://pbs.twimg.com/profile_banners/1099783460/1358475157
p255
aVhttps://pbs.twimg.com/profile_banners/2867292570/1413815577
p256
aVhttps://pbs.twimg.com/profile_banners/2852489594/1413076147
p257
aVhttps://pbs.twimg.com/profile_banners/2393334392/1395008419
p258
aVhttps://pbs.twimg.com/profile_banners/991392476/1360623081
p259
aVhttps://pbs.twimg.com/profile_banners/1611004957/1374506940
p260
aVhttps://pbs.twimg.com/profile_banners/1129626896/1359602059
p261
aVhttps://pbs.twimg.com/profile_banners/1355389160/1366062193
p262
aVhttps://pbs.twimg.com/profile_banners/1277448126/1364247246
p263
aVhttps://pbs.twimg.com/profile_banners/1181047022/1366423739
p264
aVhttps://pbs.twimg.com/profile_banners/2811561332/1411560988
p265
aVhttps://pbs.twimg.com/profile_banners/3139288031/1428298193
p266
aVhttps://pbs.twimg.com/profile_banners/3177046423/1430075027
p267
aVhttps://pbs.twimg.com/profile_banners/1202360454/1363742129
p268
aVhttps://pbs.twimg.com/profile_banners/1049160000/1361408756
p269
aVhttps://pbs.twimg.com/profile_banners/1373182519/1366667198
p270
aVhttps://pbs.twimg.com/profile_banners/1167811754/1360557659
p271
aVhttps://pbs.twimg.com/profile_banners/846211285/1365715866
p272
aVhttps://pbs.twimg.com/profile_banners/1466162281/1369793311
p273
aVhttps://pbs.twimg.com/profile_banners/3140652036/1428264621
p274
aVhttps://pbs.twimg.com/profile_banners/1496790434/1370819220
p275
aVhttps://pbs.twimg.com/profile_banners/2217154446/1391218295
p276
aVhttps://pbs.twimg.com/profile_banners/2342832426/1392341620
p277
aVhttps://pbs.twimg.com/profile_banners/1214526534/1361686856
p278
aVhttps://pbs.twimg.com/profile_banners/3022405451/1425435112
p279
aVhttps://pbs.twimg.com/profile_banners/2625798903/1403923757
p280
aVhttps://pbs.twimg.com/profile_banners/1167726139/1377171998
p281
aVhttps://pbs.twimg.com/profile_banners/2874782275/1415688907
p282
aVhttps://pbs.twimg.com/profile_banners/2370337469/1411785274
p283
aVhttps://pbs.twimg.com/profile_banners/635884207/1348103052
p284
aVhttps://pbs.twimg.com/profile_banners/2245272497/1389053830
p285
aVhttps://pbs.twimg.com/profile_banners/2293636699/1389835482
p286
aVhttps://pbs.twimg.com/profile_banners/1167659168/1362419064
p287
aVhttps://pbs.twimg.com/profile_banners/2327948041/1392333148
p288
aVhttps://pbs.twimg.com/profile_banners/1098435482/1358435975
p289
aVhttps://pbs.twimg.com/profile_banners/2824038749/1413166076
p290
aVhttps://pbs.twimg.com/profile_banners/2588431573/1403741630
p291
aVhttps://pbs.twimg.com/profile_banners/2290415428/1401805214
p292
aVhttps://pbs.twimg.com/profile_banners/2362224704/1393395315
p293
aVhttps://pbs.twimg.com/profile_banners/3048826479/1424502070
p294
aVhttps://pbs.twimg.com/profile_banners/2878516074/1414345214
p295
aVhttps://pbs.twimg.com/profile_banners/588469125/1376333066
p296
aVhttps://pbs.twimg.com/profile_banners/1648100682/1377048945
p297
aVhttps://pbs.twimg.com/profile_banners/741673556/1354056094
p298
aVhttps://pbs.twimg.com/profile_banners/2323126634/1399089093
p299
aVhttps://pbs.twimg.com/profile_banners/1375692006/1378759793
p300
aVhttps://pbs.twimg.com/profile_banners/2707441609/1407185408
p301
aVhttps://pbs.twimg.com/profile_banners/1548398185/1372258619
p302
aVhttps://pbs.twimg.com/profile_banners/1470731664/1369952769
p303
aVhttps://pbs.twimg.com/profile_banners/2155034849/1385928366
p304
aVhttps://pbs.twimg.com/profile_banners/1063935199/1358179850
p305
aVhttps://pbs.twimg.com/profile_banners/958205419/1353356150
p306
aVhttps://pbs.twimg.com/profile_banners/2985102366/1421736437
p307
aVhttps://pbs.twimg.com/profile_banners/2981952153/1421472307
p308
aVhttps://pbs.twimg.com/profile_banners/3141699208/1429552997
p309
aVhttps://pbs.twimg.com/profile_banners/2290769879/1451920414
p310
aVhttps://pbs.twimg.com/profile_banners/2747064597/1433237911
p311
aVhttps://pbs.twimg.com/profile_banners/840907788/1430720758
p312
aVhttps://pbs.twimg.com/profile_banners/3134151168/1440388580
p313
aVhttps://pbs.twimg.com/profile_banners/3001638483/1422478728
p314
aVhttps://pbs.twimg.com/profile_banners/2386004574/1394686233
p315
aVhttps://pbs.twimg.com/profile_banners/1342940498/1402542000
p316
aVhttps://pbs.twimg.com/profile_banners/1406675516/1439565624
p317
aVhttps://pbs.twimg.com/profile_banners/2760167578/1409726833
p318
aVhttps://pbs.twimg.com/profile_banners/2658561906/1406017846
p319
aVhttps://pbs.twimg.com/profile_banners/619577202/1446672454
p320
aVhttps://pbs.twimg.com/profile_banners/739380187/1385828452
p321
aVhttps://pbs.twimg.com/profile_banners/1027605084/1368236057
p322
aVhttps://pbs.twimg.com/profile_banners/3073185611/1425583358
p323
aVhttps://pbs.twimg.com/profile_banners/1624573970/1374900564
p324
aVhttps://pbs.twimg.com/profile_banners/2978604163/1421127812
p325
aVhttps://pbs.twimg.com/profile_banners/2375987364/1396310922
p326
aVhttps://pbs.twimg.com/profile_banners/713493274/1393017118
p327
aVhttps://pbs.twimg.com/profile_banners/997693646/1354991262
p328
aVhttps://pbs.twimg.com/profile_banners/2769035503/1409023554
p329
aVhttps://pbs.twimg.com/profile_banners/915357151/1427585624
p330
aVhttps://pbs.twimg.com/profile_banners/2261557300/1389289903
p331
aVhttps://pbs.twimg.com/profile_banners/2303167590/1390314471
p332
aVhttps://pbs.twimg.com/profile_banners/746744420/1348527631
p333
aVhttps://pbs.twimg.com/profile_banners/1865879322/1387838106
p334
aVhttps://pbs.twimg.com/profile_banners/2634370592/1406945655
p335
aVhttps://pbs.twimg.com/profile_banners/2207854474/1402264127
p336
aVhttps://pbs.twimg.com/profile_banners/4837398833/1453525313
p337
aVhttps://pbs.twimg.com/profile_banners/3037126585/1424654615
p338
aVhttps://pbs.twimg.com/profile_banners/1290051228/1364000998
p339
aVhttps://pbs.twimg.com/profile_banners/803364560/1348182741
p340
aVhttps://pbs.twimg.com/profile_banners/2517001508/1400820621
p341
aVhttps://pbs.twimg.com/profile_banners/1542026803/1373407013
p342
aVhttps://pbs.twimg.com/profile_banners/4767809181/1452462389
p343
aVhttps://pbs.twimg.com/profile_banners/2670679537/1444683639
p344
aVhttps://pbs.twimg.com/profile_banners/3044516440/1451954120
p345
aVhttps://pbs.twimg.com/profile_banners/497088900/1447475185
p346
aVhttps://pbs.twimg.com/profile_banners/2820350584/1412884917
p347
aVhttps://pbs.twimg.com/profile_banners/2353736197/1392927624
p348
aVhttps://pbs.twimg.com/profile_banners/1113104300/1394507036
p349
aVhttps://pbs.twimg.com/profile_banners/1736098681/1387222116
p350
aVhttps://pbs.twimg.com/profile_banners/3135253775/1428187100
p351
aVhttps://pbs.twimg.com/profile_banners/1421038927/1415700210
p352
aVhttps://pbs.twimg.com/profile_banners/1275361507/1399892393
p353
aVhttps://pbs.twimg.com/profile_banners/3035265331/1434859284
p354
aVhttps://pbs.twimg.com/profile_banners/1264361810/1403764669
p355
aVhttps://pbs.twimg.com/profile_banners/3165477317/1428968971
p356
aVhttps://pbs.twimg.com/profile_banners/2814969122/1410962955
p357
aVhttps://pbs.twimg.com/profile_banners/2719761165/1406645325
p358
aVhttps://pbs.twimg.com/profile_banners/2892543871/1432703091
p359
aVhttps://pbs.twimg.com/profile_banners/2404967659/1395517649
p360
aVhttps://pbs.twimg.com/profile_banners/3041853777/1424188420
p361
aVhttps://pbs.twimg.com/profile_banners/3357676011/1435976263
p362
aVhttps://pbs.twimg.com/profile_banners/1378291554/1366852394
p363
aVhttps://pbs.twimg.com/profile_banners/1358215477/1366590387
p364
aVhttps://pbs.twimg.com/profile_banners/2544082127/1399941690
p365
aVhttps://pbs.twimg.com/profile_banners/2400964764/1401774309
p366
aVhttps://pbs.twimg.com/profile_banners/1733850984/1390880925
p367
aVhttps://pbs.twimg.com/profile_banners/1522430906/1371395873
p368
aVhttps://pbs.twimg.com/profile_banners/1323999738/1367987724
p369
aVhttps://pbs.twimg.com/profile_banners/1490664674/1387213937
p370
aVhttps://pbs.twimg.com/profile_banners/2370954932/1402707050
p371
aVhttps://pbs.twimg.com/profile_banners/2248709834/1387198852
p372
aVhttps://pbs.twimg.com/profile_banners/3886294997/1444188169
p373
aVhttps://pbs.twimg.com/profile_banners/4131409371/1446868583
p374
aVhttps://pbs.twimg.com/profile_banners/3420823191/1439498675
p375
aVhttps://pbs.twimg.com/profile_banners/2932694680/1419696659
p376
aVhttps://pbs.twimg.com/profile_banners/1129983816/1438214177
p377
aVhttps://pbs.twimg.com/profile_banners/802595671/1432528449
p378
aVhttps://pbs.twimg.com/profile_banners/4846278682/1453744878
p379
aVhttps://pbs.twimg.com/profile_banners/1186337576/1384680879
p380
aVhttps://pbs.twimg.com/profile_banners/927795600/1377552450
p381
aVhttps://pbs.twimg.com/profile_banners/4638638364/1451130152
p382
aVhttps://pbs.twimg.com/profile_banners/3254365723/1435124070
p383
aVhttps://pbs.twimg.com/profile_banners/3206545947/1430853449
p384
aVhttps://pbs.twimg.com/profile_banners/2781261183/1414424802
p385
aVhttps://pbs.twimg.com/profile_banners/1888455480/1418545734
p386
aVhttps://pbs.twimg.com/profile_banners/2511827242/1398917748
p387
aVhttps://pbs.twimg.com/profile_banners/989715146/1445746625
p388
aVhttps://pbs.twimg.com/profile_banners/2730482593/1407970225
p389
aVhttps://pbs.twimg.com/profile_banners/2513973548/1400716904
p390
aVhttps://pbs.twimg.com/profile_banners/4518358876/1450392010
p391
aVhttps://pbs.twimg.com/profile_banners/4827208678/1453313734
p392
aVhttps://pbs.twimg.com/profile_banners/2858027757/1414981263
p393
aVhttps://pbs.twimg.com/profile_banners/1597260044/1409525930
p394
aVhttps://pbs.twimg.com/profile_banners/2189215668/1385751763
p395
aVhttps://pbs.twimg.com/profile_banners/3133716951/1428579589
p396
aVhttps://pbs.twimg.com/profile_banners/558343643/1358627764
p397
aVhttps://pbs.twimg.com/profile_banners/2937060923/1432087326
p398
aVhttps://pbs.twimg.com/profile_banners/3289308389/1452386856
p399
aVhttps://pbs.twimg.com/profile_banners/1077850472/1358136563
p400
aVhttps://pbs.twimg.com/profile_banners/1247147490/1362630731
p401
aVhttps://pbs.twimg.com/profile_banners/883149708/1350345969
p402
aVhttps://pbs.twimg.com/profile_banners/3004004761/1424801237
p403
aVhttps://pbs.twimg.com/profile_banners/2882477010/1415255019
p404
aVhttps://pbs.twimg.com/profile_banners/1044026136/1370060980
p405
aVhttps://pbs.twimg.com/profile_banners/1282217172/1363752030
p406
aVhttps://pbs.twimg.com/profile_banners/1390356026/1367266582
p407
aVhttps://pbs.twimg.com/profile_banners/2778581663/1411275261
p408
aVhttps://pbs.twimg.com/profile_banners/1352588192/1365967229
p409
aVhttps://pbs.twimg.com/profile_banners/935725412/1352419617
p410
aVhttps://pbs.twimg.com/profile_banners/1244323177/1362508096
p411
aVhttps://pbs.twimg.com/profile_banners/849364632/1349137811
p412
aVhttps://pbs.twimg.com/profile_banners/1945261902/1381185258
p413
aVhttps://pbs.twimg.com/profile_banners/3245983787/1433299222
p414
aVhttps://pbs.twimg.com/profile_banners/1158811326/1360289106
p415
aVhttps://pbs.twimg.com/profile_banners/636452750/1382287696
p416
aVhttps://pbs.twimg.com/profile_banners/1523541956/1371431047
p417
aVhttps://pbs.twimg.com/profile_banners/1284716263/1370821842
p418
aVhttps://pbs.twimg.com/profile_banners/1953235652/1381886435
p419
aVhttps://pbs.twimg.com/profile_banners/1353540547/1366004765
p420
aVhttps://pbs.twimg.com/profile_banners/523953733/1357748108
p421
aVhttps://pbs.twimg.com/profile_banners/2815899989/1412998514
p422
aVhttps://pbs.twimg.com/profile_banners/887716146/1350516241
p423
aVhttps://pbs.twimg.com/profile_banners/825773154/1373397223
p424
aVhttps://pbs.twimg.com/profile_banners/1275473316/1363555078
p425
aVhttps://pbs.twimg.com/profile_banners/2853357397/1413130242
p426
aVhttps://pbs.twimg.com/profile_banners/2621931472/1403293412
p427
aVhttps://pbs.twimg.com/profile_banners/1059994687/1357329643
p428
aVhttps://pbs.twimg.com/profile_banners/981821804/1354340478
p429
aVhttps://pbs.twimg.com/profile_banners/985758714/1354503330
p430
aVhttps://pbs.twimg.com/profile_banners/1339565179/1386711043
p431
aVhttps://pbs.twimg.com/profile_banners/1660621844/1396213082
p432
aVhttps://pbs.twimg.com/profile_banners/1422354601/1368338643
p433
aVhttps://pbs.twimg.com/profile_banners/1598917610/1373997603
p434
aVhttps://pbs.twimg.com/profile_banners/1066400689/1357498809
p435
aVhttps://pbs.twimg.com/profile_banners/1876143192/1379531321
p436
aVhttps://pbs.twimg.com/profile_banners/1544306299/1372115456
p437
aVhttps://pbs.twimg.com/profile_banners/2996601080/1431006692
p438
aVhttps://pbs.twimg.com/profile_banners/3021014891/1426129872
p439
aVhttps://pbs.twimg.com/profile_banners/1301633215/1364256125
p440
aVhttps://pbs.twimg.com/profile_banners/1384706048/1436635240
p441
aVhttps://pbs.twimg.com/profile_banners/1077454578/1357917925
p442
aVhttps://pbs.twimg.com/profile_banners/4484312481/1450123040
p443
aVhttps://pbs.twimg.com/profile_banners/1393484256/1377279354
p444
aVhttps://pbs.twimg.com/profile_banners/2762916747/1410022166
p445
aVhttps://pbs.twimg.com/profile_banners/2928513100/1424137564
p446
aVhttps://pbs.twimg.com/profile_banners/2624981452/1403250879
p447
aVhttps://pbs.twimg.com/profile_banners/1618294424/1374689757
p448
aVhttps://pbs.twimg.com/profile_banners/4756175418/1453008351
p449
aVhttps://pbs.twimg.com/profile_banners/1300921872/1364245523
p450
aVhttps://pbs.twimg.com/profile_banners/1322855929/1364923930
p451
aVhttps://pbs.twimg.com/profile_banners/2409694944/1395703795
p452
aVhttps://pbs.twimg.com/profile_banners/2938660919/1422492430
p453
aVhttps://pbs.twimg.com/profile_banners/2567552674/1401211187
p454
aVhttps://pbs.twimg.com/profile_banners/1485699500/1450828422
p455
aVhttps://pbs.twimg.com/profile_banners/1471637384/1444390537
p456
aVhttps://pbs.twimg.com/profile_banners/4026706407/1453667024
p457
aVhttps://pbs.twimg.com/profile_banners/2523952141/1454657311
p458
aVhttps://pbs.twimg.com/profile_banners/4115780661/1446695963
p459
aVhttps://pbs.twimg.com/profile_banners/2154932916/1383872214
p460
aVhttps://pbs.twimg.com/profile_banners/327089688/1351206001
p461
aVhttps://pbs.twimg.com/profile_banners/48444015/1370175660
p462
aVhttps://pbs.twimg.com/profile_banners/386988166/1397679296
p463
aVhttps://pbs.twimg.com/profile_banners/457136874/1445250772
p464
aVhttps://pbs.twimg.com/profile_banners/1197339265/1452334692
p465
aVhttps://pbs.twimg.com/profile_banners/1429486316/1372404675
p466
aVhttps://pbs.twimg.com/profile_banners/790889654/1403652848
p467
aVhttps://pbs.twimg.com/profile_banners/2300746824/1451436861
p468
aVhttps://pbs.twimg.com/profile_banners/739895509/1447745892
p469
aVhttps://pbs.twimg.com/profile_banners/254761542/1425643823
p470
aVhttps://pbs.twimg.com/profile_banners/850218727/1353956729
p471
aVhttps://pbs.twimg.com/profile_banners/965526260/1454400504
p472
aVhttps://pbs.twimg.com/profile_banners/350604277/1436564626
p473
aVhttps://pbs.twimg.com/profile_banners/743882666/1452072555
p474
aVhttps://pbs.twimg.com/profile_banners/702081044/1350010121
p475
aVhttps://pbs.twimg.com/profile_banners/579278907/1361396824
p476
aVhttps://pbs.twimg.com/profile_banners/388353254/1373869718
p477
aVhttps://pbs.twimg.com/profile_banners/2147796222/1385705192
p478
aVhttps://pbs.twimg.com/profile_banners/762622524/1425919060
p479
aVhttps://pbs.twimg.com/profile_banners/436207450/1352439985
p480
aVhttps://pbs.twimg.com/profile_banners/585435117/1386202423
p481
aVhttps://pbs.twimg.com/profile_banners/853953048/1398251256
p482
aVhttps://pbs.twimg.com/profile_banners/1691106547/1378354037
p483
aVhttps://pbs.twimg.com/profile_banners/222216222/1415438559
p484
aVhttps://pbs.twimg.com/profile_banners/2371231728/1416956689
p485
aVhttps://pbs.twimg.com/profile_banners/581260530/1355708810
p486
aVhttps://pbs.twimg.com/profile_banners/1261239666/1410814465
p487
aVhttps://pbs.twimg.com/profile_banners/1167384414/1362252134
p488
aVhttps://pbs.twimg.com/profile_banners/2558487041/1440743043
p489
aVhttps://pbs.twimg.com/profile_banners/785767908/1386476869
p490
aVhttps://pbs.twimg.com/profile_banners/740433044/1377003471
p491
aVhttps://pbs.twimg.com/profile_banners/3057027769/1427404305
p492
aVhttps://pbs.twimg.com/profile_banners/2273980452/1422332576
p493
aVhttps://pbs.twimg.com/profile_banners/1377706616/1402624091
p494
aVhttps://pbs.twimg.com/profile_banners/948164514/1355635558
p495
aVhttps://pbs.twimg.com/profile_banners/3045559810/1426626468
p496
aVhttps://pbs.twimg.com/profile_banners/1236433207/1400031827
p497
aVhttps://pbs.twimg.com/profile_banners/898649935/1360193340
p498
aVhttps://pbs.twimg.com/profile_banners/2349310971/1448869316
p499
aVhttps://pbs.twimg.com/profile_banners/2174816496/1421753845
p500
aVhttps://pbs.twimg.com/profile_banners/2187938209/1420228442
p501
aVhttps://pbs.twimg.com/profile_banners/1607408504/1419362704
p502
aVhttps://pbs.twimg.com/profile_banners/1328892068/1394265721
p503
aVhttps://pbs.twimg.com/profile_banners/496703327/1358012923
p504
aVhttps://pbs.twimg.com/profile_banners/584133319/1348046008
p505
aVhttps://pbs.twimg.com/profile_banners/1436476316/1369955351
p506
aVhttps://pbs.twimg.com/profile_banners/3184573128/1447302402
p507
aVhttps://pbs.twimg.com/profile_banners/970183279/1368989034
p508
aVhttps://pbs.twimg.com/profile_banners/2384120132/1394567093
p509
aVhttps://pbs.twimg.com/profile_banners/2176769392/1424119517
p510
aVhttps://pbs.twimg.com/profile_banners/362439723/1355550125
p511
aVhttps://pbs.twimg.com/profile_banners/2347737666/1397365574
p512
aVhttps://pbs.twimg.com/profile_banners/1654514647/1443255878
p513
aVhttps://pbs.twimg.com/profile_banners/2220440964/1398465235
p514
aVhttps://pbs.twimg.com/profile_banners/1129782330/1369705896
p515
aVhttps://pbs.twimg.com/profile_banners/2994098413/1422081127
p516
aVhttps://pbs.twimg.com/profile_banners/369976342/1386010424
p517
aVhttps://pbs.twimg.com/profile_banners/3671364020/1444223622
p518
aVhttps://pbs.twimg.com/profile_banners/605022199/1349091631
p519
aVhttps://pbs.twimg.com/profile_banners/1127251987/1384492033
p520
aVhttps://pbs.twimg.com/profile_banners/752502901/1361058735
p521
aVhttps://pbs.twimg.com/profile_banners/2904020714/1438271540
p522
aVhttps://pbs.twimg.com/profile_banners/2541327975/1453044001
p523
aVhttps://pbs.twimg.com/profile_banners/344154430/1437105508
p524
aVhttps://pbs.twimg.com/profile_banners/1302230832/1454520982
p525
aVhttps://pbs.twimg.com/profile_banners/1283028919/1367308919
p526
aVhttps://pbs.twimg.com/profile_banners/1226633288/1428384741
p527
aVhttps://pbs.twimg.com/profile_banners/565768006/1353001789
p528
aVhttps://pbs.twimg.com/profile_banners/898257194/1366501073
p529
aVhttps://pbs.twimg.com/profile_banners/2798522012/1415971620
p530
aVhttps://pbs.twimg.com/profile_banners/872600972/1454553861
p531
aVhttps://pbs.twimg.com/profile_banners/801329023/1361281632
p532
aVhttps://pbs.twimg.com/profile_banners/1324719186/1368552055
p533
aVhttps://pbs.twimg.com/profile_banners/1092937046/1448896641
p534
aVhttps://pbs.twimg.com/profile_banners/1021252692/1392301482
p535
aVhttps://pbs.twimg.com/profile_banners/579373511/1349609443
p536
aVhttps://pbs.twimg.com/profile_banners/751888495/1355630390
p537
aVhttps://pbs.twimg.com/profile_banners/1276564651/1403823248
p538
aVhttps://pbs.twimg.com/profile_banners/273203971/1406085609
p539
aVhttps://pbs.twimg.com/profile_banners/905073416/1351216677
p540
aVhttps://pbs.twimg.com/profile_banners/2234796254/1394254719
p541
aVhttps://pbs.twimg.com/profile_banners/389876549/1348328708
p542
aVhttps://pbs.twimg.com/profile_banners/623101932/1361502869
p543
aVhttps://pbs.twimg.com/profile_banners/4125669244/1454732876
p544
aVhttps://pbs.twimg.com/profile_banners/848313553/1359084410
p545
aVhttps://pbs.twimg.com/profile_banners/2891602542/1453177672
p546
aVhttps://pbs.twimg.com/profile_banners/3168148080/1433520517
p547
aVhttps://pbs.twimg.com/profile_banners/828396511/1351837198
p548
aVhttps://pbs.twimg.com/profile_banners/3280624286/1454276451
p549
aVhttps://pbs.twimg.com/profile_banners/2220676963/1449197931
p550
aVhttps://pbs.twimg.com/profile_banners/1276012544/1375461198
p551
aVhttps://pbs.twimg.com/profile_banners/402207938/1384967288
p552
aVhttps://pbs.twimg.com/profile_banners/768815720/1350006518
p553
aVhttps://pbs.twimg.com/profile_banners/598706896/1359001816
p554
aVhttps://pbs.twimg.com/profile_banners/919267472/1351786270
p555
aVhttps://pbs.twimg.com/profile_banners/2564279666/1454045919
p556
aVhttps://pbs.twimg.com/profile_banners/1609143439/1376617299
p557
aVhttps://pbs.twimg.com/profile_banners/2238753610/1429118498
p558
aVhttps://pbs.twimg.com/profile_banners/2358940014/1447474285
p559
aVhttps://pbs.twimg.com/profile_banners/373630092/1393897942
p560
aVhttps://pbs.twimg.com/profile_banners/1015583360/1406327169
p561
aVhttps://pbs.twimg.com/profile_banners/989609118/1361181351
p562
aVhttps://pbs.twimg.com/profile_banners/1470368916/1422910727
p563
aVhttps://pbs.twimg.com/profile_banners/2479757774/1405788607
p564
aVhttps://pbs.twimg.com/profile_banners/711871560/1369196798
p565
aVhttps://pbs.twimg.com/profile_banners/621888786/1353627564
p566
aVhttps://pbs.twimg.com/profile_banners/2357260466/1393123387
p567
aVhttps://pbs.twimg.com/profile_banners/2273543954/1388699261
p568
aVhttps://pbs.twimg.com/profile_banners/891608479/1386890537
p569
aVhttps://pbs.twimg.com/profile_banners/488053561/1362944405
p570
aVhttps://pbs.twimg.com/profile_banners/1378585736/1370491762
p571
aVhttps://pbs.twimg.com/profile_banners/1225978314/1388175193
p572
aVhttps://pbs.twimg.com/profile_banners/2181219774/1445177350
p573
aVhttps://pbs.twimg.com/profile_banners/1167698293/1369066737
p574
aVhttps://pbs.twimg.com/profile_banners/733585466/1351742267
p575
aVhttps://pbs.twimg.com/profile_banners/1586534125/1374549428
p576
aVhttps://pbs.twimg.com/profile_banners/2603075740/1403279958
p577
aVhttps://pbs.twimg.com/profile_banners/811448918/1360185592
p578
aVhttps://pbs.twimg.com/profile_banners/2149225764/1382458996
p579
aVhttps://pbs.twimg.com/profile_banners/916045951/1351654115
p580
aVhttps://pbs.twimg.com/profile_banners/1321975369/1373601238
p581
aVhttps://pbs.twimg.com/profile_banners/1370194525/1377936455
p582
aVhttps://pbs.twimg.com/profile_banners/3615058039/1444044852
p583
aVhttps://pbs.twimg.com/profile_banners/1378037419/1403649320
p584
aVhttps://pbs.twimg.com/profile_banners/813638659/1355436004
p585
aVhttps://pbs.twimg.com/profile_banners/2916763553/1434924306
p586
aVhttps://pbs.twimg.com/profile_banners/606011299/1349923783
p587
aVhttps://pbs.twimg.com/profile_banners/866119274/1397063238
p588
aVhttps://pbs.twimg.com/profile_banners/1090278656/1366412257
p589
aVhttps://pbs.twimg.com/profile_banners/3296465982/1437960202
p590
aVhttps://pbs.twimg.com/profile_banners/2177260978/1447833254
p591
aVhttps://pbs.twimg.com/profile_banners/1216844833/1365451504
p592
aVhttps://pbs.twimg.com/profile_banners/1870284079/1385333110
p593
aVhttps://pbs.twimg.com/profile_banners/837465980/1372634090
p594
aVhttps://pbs.twimg.com/profile_banners/1593957656/1374011039
p595
aVhttps://pbs.twimg.com/profile_banners/1121211252/1402425716
p596
aVhttps://pbs.twimg.com/profile_banners/987546787/1354578660
p597
aVhttps://pbs.twimg.com/profile_banners/612955961/1350104673
p598
aVhttps://pbs.twimg.com/profile_banners/1563887288/1422817908
p599
aVhttps://pbs.twimg.com/profile_banners/1398516560/1367542204
p600
aVhttps://pbs.twimg.com/profile_banners/398275427/1363466124
p601
aVhttps://pbs.twimg.com/profile_banners/482481595/1444854840
p602
aVhttps://pbs.twimg.com/profile_banners/607717962/1349654120
p603
aVhttps://pbs.twimg.com/profile_banners/2567326687/1408778557
p604
aVhttps://pbs.twimg.com/profile_banners/1112679991/1450015492
p605
aVhttps://pbs.twimg.com/profile_banners/1411248752/1369652113
p606
aVhttps://pbs.twimg.com/profile_banners/570481447/1357666915
p607
aVhttps://pbs.twimg.com/profile_banners/385748525/1350832423
p608
aVhttps://pbs.twimg.com/profile_banners/3568860687/1441565184
p609
aVhttps://pbs.twimg.com/profile_banners/563998926/1403638905
p610
aVhttps://pbs.twimg.com/profile_banners/335746880/1364311679
p611
aVhttps://pbs.twimg.com/profile_banners/1271519222/1368976498
p612
aVhttps://pbs.twimg.com/profile_banners/1515424740/1371190956
p613
aVhttps://pbs.twimg.com/profile_banners/2234873675/1387907580
p614
aVhttps://pbs.twimg.com/profile_banners/2336135928/1440582570
p615
aVhttps://pbs.twimg.com/profile_banners/3248138403/1440087154
p616
aVhttps://pbs.twimg.com/profile_banners/2499593089/1443977064
p617
aVhttps://pbs.twimg.com/profile_banners/3313386789/1433802462
p618
aVhttps://pbs.twimg.com/profile_banners/2920121289/1432948265
p619
aVhttps://pbs.twimg.com/profile_banners/2680674001/1426535003
p620
aVhttps://pbs.twimg.com/profile_banners/1106781464/1365907655
p621
aVhttps://pbs.twimg.com/profile_banners/1175484859/1370529402
p622
aVhttps://pbs.twimg.com/profile_banners/4101418438/1446525928
p623
aVhttps://pbs.twimg.com/profile_banners/1138561771/1402886399
p624
aVhttps://pbs.twimg.com/profile_banners/3411915550/1446031487
p625
aVhttps://pbs.twimg.com/profile_banners/2520420562/1435143295
p626
aVhttps://pbs.twimg.com/profile_banners/827167710/1362070307
p627
aVhttps://pbs.twimg.com/profile_banners/622140829/1373625840
p628
aVhttps://pbs.twimg.com/profile_banners/1398374520/1372524314
p629
aVhttps://pbs.twimg.com/profile_banners/2724209641/1451681347
p630
aVhttps://pbs.twimg.com/profile_banners/806221123/1365349020
p631
aVhttps://pbs.twimg.com/profile_banners/1120980493/1436844515
p632
aVhttps://pbs.twimg.com/profile_banners/787882158/1354520630
p633
aVhttps://pbs.twimg.com/profile_banners/1268301654/1363307528
p634
aVhttps://pbs.twimg.com/profile_banners/3094244163/1446571717
p635
aVhttps://pbs.twimg.com/profile_banners/1043610661/1360632545
p636
aVhttps://pbs.twimg.com/profile_banners/1152557582/1363888817
p637
aVhttps://pbs.twimg.com/profile_banners/1152643495/1362258477
p638
aVhttps://pbs.twimg.com/profile_banners/788454300/1353709210
p639
aVhttps://pbs.twimg.com/profile_banners/1363270812/1376348140
p640
aVhttps://pbs.twimg.com/profile_banners/1055888702/1362554474
p641
aVhttps://pbs.twimg.com/profile_banners/717183050/1353426568
p642
aVhttps://pbs.twimg.com/profile_banners/619330332/1374333010
p643
aVhttps://pbs.twimg.com/profile_banners/2852262032/1422255658
p644
aVhttps://pbs.twimg.com/profile_banners/2723663062/1406248953
p645
aVhttps://pbs.twimg.com/profile_banners/2522760990/1438311840
p646
aVhttps://pbs.twimg.com/profile_banners/1150048322/1364360483
p647
aVhttps://pbs.twimg.com/profile_banners/785795701/1353266110
p648
aVhttps://pbs.twimg.com/profile_banners/729930386/1358357503
p649
aVhttps://pbs.twimg.com/profile_banners/939440118/1358133437
p650
aVhttps://pbs.twimg.com/profile_banners/1453293746/1453110335
p651
aVhttps://pbs.twimg.com/profile_banners/2441709571/1399462518
p652
aVhttps://pbs.twimg.com/profile_banners/2809064961/1412543476
p653
aVhttps://pbs.twimg.com/profile_banners/1892938748/1403772564
p654
aVhttps://pbs.twimg.com/profile_banners/2979296374/1421289210
p655
aVhttps://pbs.twimg.com/profile_banners/3082368646/1429080794
p656
aVhttps://pbs.twimg.com/profile_banners/1181501124/1360961867
p657
aVhttps://pbs.twimg.com/profile_banners/620654464/1353987734
p658
aVhttps://pbs.twimg.com/profile_banners/1306182344/1368818371
p659
aVhttps://pbs.twimg.com/profile_banners/612689395/1358561671
p660
aVhttps://pbs.twimg.com/profile_banners/1117856455/1359065215
p661
aVhttps://pbs.twimg.com/profile_banners/142911655/1447645898
p662
aVhttps://pbs.twimg.com/profile_banners/2784956588/1438307065
p663
aVhttps://pbs.twimg.com/profile_banners/1000872403/1424237181
p664
aVhttps://pbs.twimg.com/profile_banners/1330147934/1366645642
p665
aVhttps://pbs.twimg.com/profile_banners/813005310/1368058301
p666
aVhttps://pbs.twimg.com/profile_banners/2885555469/1449680165
p667
aVhttps://pbs.twimg.com/profile_banners/1643725106/1376064587
p668
aVhttps://pbs.twimg.com/profile_banners/1883113832/1379890298
p669
aVhttps://pbs.twimg.com/profile_banners/3731966151/1444947196
p670
aVhttps://pbs.twimg.com/profile_banners/1539188581/1385004646
p671
aVhttps://pbs.twimg.com/profile_banners/2887997433/1416674715
p672
aVhttps://pbs.twimg.com/profile_banners/2554411676/1402223788
p673
aVhttps://pbs.twimg.com/profile_banners/2746904423/1408612331
p674
aVhttps://pbs.twimg.com/profile_banners/940921765/1356795462
p675
aVhttps://pbs.twimg.com/profile_banners/788634266/1352564028
p676
aVhttps://pbs.twimg.com/profile_banners/1450278817/1371138642
p677
aVhttps://pbs.twimg.com/profile_banners/940111260/1382869476
p678
aVhttps://pbs.twimg.com/profile_banners/1218412526/1361831065
p679
aVhttps://pbs.twimg.com/profile_banners/2326488587/1426128526
p680
aVhttps://pbs.twimg.com/profile_banners/3396249681/1442092535
p681
aVhttps://pbs.twimg.com/profile_banners/1707975768/1377716907
p682
aVhttps://pbs.twimg.com/profile_banners/894791102/1413867322
p683
aVhttps://pbs.twimg.com/profile_banners/3977198567/1453693122
p684
aVhttps://pbs.twimg.com/profile_banners/626038368/1356414384
p685
aVhttps://pbs.twimg.com/profile_banners/4717453937/1454958592
p686
aVhttps://pbs.twimg.com/profile_banners/1132306142/1391309254
p687
aVhttps://pbs.twimg.com/profile_banners/1388295048/1398323130
p688
aVhttps://pbs.twimg.com/profile_banners/3085357455/1429184731
p689
aVhttps://pbs.twimg.com/profile_banners/2847684970/1444245159
p690
aVhttps://pbs.twimg.com/profile_banners/3233164741/1434778411
p691
aVhttps://pbs.twimg.com/profile_banners/1292690533/1364441509
p692
aVhttps://pbs.twimg.com/profile_banners/3317816934/1439824788
p693
aVhttps://pbs.twimg.com/profile_banners/2269167442/1445180905
p694
aVhttps://pbs.twimg.com/profile_banners/2658458760/1405739083
p695
aVhttps://pbs.twimg.com/profile_banners/2348790856/1400971782
p696
aVhttps://pbs.twimg.com/profile_banners/1343172788/1366281031
p697
aVhttps://pbs.twimg.com/profile_banners/2620207634/1406297745
p698
aVhttps://pbs.twimg.com/profile_banners/634256652/1355709257
p699
aVhttps://pbs.twimg.com/profile_banners/2162180364/1392993050
p700
aVhttps://pbs.twimg.com/profile_banners/852865884/1355953553
p701
aVhttps://pbs.twimg.com/profile_banners/515758072/1350966261
p702
aVhttps://pbs.twimg.com/profile_banners/4761440116/1452404976
p703
aVhttps://pbs.twimg.com/profile_banners/2582644944/1404560310
p704
aVhttps://pbs.twimg.com/profile_banners/2545937187/1401156545
p705
aVhttps://pbs.twimg.com/profile_banners/1096308746/1362237224
p706
aVhttps://pbs.twimg.com/profile_banners/481324052/1362774857
p707
aVhttps://pbs.twimg.com/profile_banners/2716360940/1413771557
p708
aVhttps://pbs.twimg.com/profile_banners/1023720006/1420599889
p709
aVhttps://pbs.twimg.com/profile_banners/1624201004/1374886350
p710
aVhttps://pbs.twimg.com/profile_banners/3349731258/1440607778
p711
aVhttps://pbs.twimg.com/profile_banners/1419350881/1377811179
p712
aVhttps://pbs.twimg.com/profile_banners/762298525/1382769684
p713
aVhttps://pbs.twimg.com/profile_banners/3051843105/1436068636
p714
aVhttps://pbs.twimg.com/profile_banners/1705683883/1393687616
p715
aVhttps://pbs.twimg.com/profile_banners/2421656945/1395204119
p716
aVhttps://pbs.twimg.com/profile_banners/2734355331/1407265801
p717
aVhttps://pbs.twimg.com/profile_banners/3724657697/1449209566
p718
aVhttps://pbs.twimg.com/profile_banners/1596203167/1373907224
p719
aVhttps://pbs.twimg.com/profile_banners/1562738378/1382390995
p720
aVhttps://pbs.twimg.com/profile_banners/1117415863/1359067228
p721
aVhttps://pbs.twimg.com/profile_banners/1244677688/1429092174
p722
aVhttps://pbs.twimg.com/profile_banners/1711814774/1380680192
p723
aVhttps://pbs.twimg.com/profile_banners/2734702714/1407819620
p724
aVhttps://pbs.twimg.com/profile_banners/1412453100/1368179875
p725
aVhttps://pbs.twimg.com/profile_banners/1319345712/1364776556
p726
aVhttps://pbs.twimg.com/profile_banners/420424897/1363367776
p727
aVhttps://pbs.twimg.com/profile_banners/2292123140/1390051647
p728
aVhttps://pbs.twimg.com/profile_banners/703851931/1385675082
p729
aVhttps://pbs.twimg.com/profile_banners/2784993621/1411979834
p730
aVhttps://pbs.twimg.com/profile_banners/2556026408/1402286476
p731
aVhttps://pbs.twimg.com/profile_banners/1129520124/1363138543
p732
aVhttps://pbs.twimg.com/profile_banners/1414485200/1368071063
p733
aVhttps://pbs.twimg.com/profile_banners/3230210460/1432989415
p734
aVhttps://pbs.twimg.com/profile_banners/1170550453/1362842357
p735
aVhttps://pbs.twimg.com/profile_banners/2285800944/1390359473
p736
aVhttps://pbs.twimg.com/profile_banners/1293653582/1364101167
p737
aVhttps://pbs.twimg.com/profile_banners/1191022753/1372952882
p738
aVhttps://pbs.twimg.com/profile_banners/1972523449/1383708727
p739
aVhttps://pbs.twimg.com/profile_banners/2339533922/1393831175
p740
aVhttps://pbs.twimg.com/profile_banners/2190228153/1385219629
p741
aVhttps://pbs.twimg.com/profile_banners/3786570258/1444010041
p742
aVhttps://pbs.twimg.com/profile_banners/1228842392/1381240754
p743
aVhttps://pbs.twimg.com/profile_banners/916125769/1352164412
p744
aVhttps://pbs.twimg.com/profile_banners/592348211/1349640942
p745
aVhttps://pbs.twimg.com/profile_banners/2273977718/1395204982
p746
aVhttps://pbs.twimg.com/profile_banners/3155178743/1428736189
p747
aVhttps://pbs.twimg.com/profile_banners/4821379704/1453908657
p748
aVhttps://pbs.twimg.com/profile_banners/3615451279/1442662655
p749
aVhttps://pbs.twimg.com/profile_banners/4866967630/1454261336
p750
aVhttps://pbs.twimg.com/profile_banners/2841808537/1441999723
p751
aVhttps://pbs.twimg.com/profile_banners/3311796872/1439243511
p752
aVhttps://pbs.twimg.com/profile_banners/3181318015/1431875022
p753
aVhttps://pbs.twimg.com/profile_banners/4189100974/1449659202
p754
aVhttps://pbs.twimg.com/profile_banners/4584923895/1450926872
p755
aVhttps://pbs.twimg.com/profile_banners/3907547834/1445013616
p756
aVhttps://pbs.twimg.com/profile_banners/3203359890/1432650062
p757
aVhttps://pbs.twimg.com/profile_banners/3171122259/1429128269
p758
aVhttps://pbs.twimg.com/profile_banners/2861198516/1413579312
p759
aVhttps://pbs.twimg.com/profile_banners/2795243959/1410059776
p760
aVhttps://pbs.twimg.com/profile_banners/2781357336/1409631656
p761
aVhttps://pbs.twimg.com/profile_banners/2867411232/1413819341
p762
aVhttps://pbs.twimg.com/profile_banners/3048664383/1428874677
p763
aVhttps://pbs.twimg.com/profile_banners/4195536982/1447621932
p764
aVhttps://pbs.twimg.com/profile_banners/4355597656/1449100313
p765
aVhttps://pbs.twimg.com/profile_banners/3998728393/1445828876
p766
aVhttps://pbs.twimg.com/profile_banners/3307776550/1451162804
p767
aVhttps://pbs.twimg.com/profile_banners/2925123465/1418768354
p768
aVhttps://pbs.twimg.com/profile_banners/2728346110/1406654603
p769
aVhttps://pbs.twimg.com/profile_banners/4804877774/1453591021
p770
aVhttps://pbs.twimg.com/profile_banners/2886127198/1416517176
p771
aVhttps://pbs.twimg.com/profile_banners/3904358473/1444925728
p772
aVhttps://pbs.twimg.com/profile_banners/3876434783/1448372067
p773
aVhttps://pbs.twimg.com/profile_banners/3418845537/1442158128
p774
aVhttps://pbs.twimg.com/profile_banners/3108660478/1427145706
p775
aVhttps://pbs.twimg.com/profile_banners/2890256326/1416802800
p776
aVhttps://pbs.twimg.com/profile_banners/2351242623/1396805971
p777
aVhttps://pbs.twimg.com/profile_banners/2437940836/1401824401
p778
aVhttps://pbs.twimg.com/profile_banners/2428799213/1395489884
p779
aVhttps://pbs.twimg.com/profile_banners/2429566947/1395521109
p780
aVhttps://pbs.twimg.com/profile_banners/2392045830/1394942972
p781
aVhttps://pbs.twimg.com/profile_banners/2395587915/1394334740
p782
aVhttps://pbs.twimg.com/profile_banners/2165384520/1392074994
p783
aVhttps://pbs.twimg.com/profile_banners/1520688439/1402285528
p784
aVhttps://pbs.twimg.com/profile_banners/3395465685/1438290652
p785
aVhttps://pbs.twimg.com/profile_banners/2679873018/1406303774
p786
aVhttps://pbs.twimg.com/profile_banners/4866837713/1454259575
p787
aVhttps://pbs.twimg.com/profile_banners/2760612129/1436179415
p788
aVhttps://pbs.twimg.com/profile_banners/4063911492/1448932536
p789
aVhttps://pbs.twimg.com/profile_banners/4270195512/1448290284
p790
aVhttps://pbs.twimg.com/profile_banners/782922434/1404422184
p791
aVhttps://pbs.twimg.com/profile_banners/3797056632/1444090127
p792
aVhttps://pbs.twimg.com/profile_banners/3073404545/1427289722
p793
aVhttps://pbs.twimg.com/profile_banners/2952906388/1420143091
p794
aVhttps://pbs.twimg.com/profile_banners/2229541867/1386146188
p795
aVhttps://pbs.twimg.com/profile_banners/3546974056/1441388124
p796
aVhttps://pbs.twimg.com/profile_banners/2183466469/1384016484
p797
aVhttps://pbs.twimg.com/profile_banners/3041122660/1424109802
p798
aVhttps://pbs.twimg.com/profile_banners/3430054696/1451114011
p799
aVhttps://pbs.twimg.com/profile_banners/3377992444/1437017192
p800
aVhttps://pbs.twimg.com/profile_banners/1151332592/1360081964
p801
aVhttps://pbs.twimg.com/profile_banners/2903081433/1421852242
p802
aVhttps://pbs.twimg.com/profile_banners/2514271717/1401392028
p803
aVhttps://pbs.twimg.com/profile_banners/2281640454/1389159705
p804
aVhttps://pbs.twimg.com/profile_banners/2361791905/1393631267
p805
aVhttps://pbs.twimg.com/profile_banners/2349110723/1393122349
p806
aVhttps://pbs.twimg.com/profile_banners/2952144311/1453328340
p807
aVhttps://pbs.twimg.com/profile_banners/2769674026/1410667472
p808
aVhttps://pbs.twimg.com/profile_banners/3102783833/1426971701
p809
aVhttps://pbs.twimg.com/profile_banners/2932340903/1419019888
p810
aVhttps://pbs.twimg.com/profile_banners/2879761617/1416158399
p811
aVhttps://pbs.twimg.com/profile_banners/2771799100/1411044735
p812
aVhttps://pbs.twimg.com/profile_banners/2726926833/1406515035
p813
aVhttps://pbs.twimg.com/profile_banners/2735367977/1409269214
p814
aVhttps://pbs.twimg.com/profile_banners/2717399703/1405811101
p815
aVhttps://pbs.twimg.com/profile_banners/2480680412/1400810504
p816
aVhttps://pbs.twimg.com/profile_banners/2268673923/1391075826
p817
aVhttps://pbs.twimg.com/profile_banners/1206272245/1361489811
p818
aVhttps://pbs.twimg.com/profile_banners/1567191541/1402690346
p819
aVhttps://pbs.twimg.com/profile_banners/1381057951/1366950667
p820
aVhttps://pbs.twimg.com/profile_banners/1195648548/1361322628
p821
aVhttps://pbs.twimg.com/profile_banners/1034079576/1358041670
p822
aVhttps://pbs.twimg.com/profile_banners/4048283909/1445888878
p823
aVhttps://pbs.twimg.com/profile_banners/3180022947/1429378420
p824
aVhttps://pbs.twimg.com/profile_banners/387811470/1428783615
p825
aVhttps://pbs.twimg.com/profile_banners/4036631952/1446341849
p826
aVhttps://pbs.twimg.com/profile_banners/2808908655/1413991832
p827
aVhttps://pbs.twimg.com/profile_banners/1668537787/1376425294
p828
aVhttps://pbs.twimg.com/profile_banners/1928040678/1393612889
p829
aVhttps://pbs.twimg.com/profile_banners/2428045239/1395517688
p830
aVhttps://pbs.twimg.com/profile_banners/2945473634/1419717500
p831
aVhttps://pbs.twimg.com/profile_banners/3201229151/1429885579
p832
aVhttps://pbs.twimg.com/profile_banners/2792733813/1412022211
p833
aVhttps://pbs.twimg.com/profile_banners/2813148224/1410874821
p834
aVhttps://pbs.twimg.com/profile_banners/2942036952/1419438325
p835
aVhttps://pbs.twimg.com/profile_banners/2335386763/1391965116
p836
aVhttps://pbs.twimg.com/profile_banners/1169345851/1360599893
p837
aVhttps://pbs.twimg.com/profile_banners/1265903208/1363225848
p838
aVhttps://pbs.twimg.com/profile_banners/1036502149/1356572525
p839
aVhttps://pbs.twimg.com/profile_banners/866656370/1349632217
p840
aVhttps://pbs.twimg.com/profile_banners/457745502/1355895642
p841
aVhttps://pbs.twimg.com/profile_banners/2652613418/1405756617
p842
aVhttps://pbs.twimg.com/profile_banners/846498890/1348621052
p843
aVhttps://pbs.twimg.com/profile_banners/2874285465/1415828901
p844
aVhttps://pbs.twimg.com/profile_banners/2828988546/1411520935
p845
aVhttps://pbs.twimg.com/profile_banners/485148348/1415682899
p846
aVhttps://pbs.twimg.com/profile_banners/2580372756/1403356322
p847
aVhttps://pbs.twimg.com/profile_banners/2481448801/1399758000
p848
aVhttps://pbs.twimg.com/profile_banners/2415005340/1396232325
p849
aVhttps://pbs.twimg.com/profile_banners/2872553681/1415821846
p850
aVhttps://pbs.twimg.com/profile_banners/1390872649/1367285035
p851
aVhttps://pbs.twimg.com/profile_banners/1385724637/1367107226
p852
aVhttps://pbs.twimg.com/profile_banners/1367465329/1366481402
p853
aVhttps://pbs.twimg.com/profile_banners/985232143/1355276036
p854
aVhttps://pbs.twimg.com/profile_banners/2389713139/1394829933
p855
aVhttps://pbs.twimg.com/profile_banners/1925480035/1380683463
p856
aVhttps://pbs.twimg.com/profile_banners/1612407006/1374723333
p857
aVhttps://pbs.twimg.com/profile_banners/867097081/1354730746
p858
aVhttps://pbs.twimg.com/profile_banners/1163710266/1360794278
p859
aVhttps://pbs.twimg.com/profile_banners/1886579726/1379686942
p860
aVhttps://pbs.twimg.com/profile_banners/1601601739/1374705060
p861
aVhttps://pbs.twimg.com/profile_banners/2826937438/1413178881
p862
aVhttps://pbs.twimg.com/profile_banners/2565714955/1408685135
p863
aVhttps://pbs.twimg.com/profile_banners/1472813000/1370027062
p864
aVhttps://pbs.twimg.com/profile_banners/1312468988/1367615842
p865
aVhttps://pbs.twimg.com/profile_banners/1567112154/1387321332
p866
aVhttps://pbs.twimg.com/profile_banners/1862702335/1379134012
p867
aVhttps://pbs.twimg.com/profile_banners/1830317798/1378652534
p868
aVhttps://pbs.twimg.com/profile_banners/1388451672/1404169933
p869
aVhttps://pbs.twimg.com/profile_banners/932135467/1372287004
p870
aVhttps://pbs.twimg.com/profile_banners/1436264474/1374044978
p871
aVhttps://pbs.twimg.com/profile_banners/1084056134/1358024776
p872
aVhttps://pbs.twimg.com/profile_banners/1000696387/1359817976
p873
aVhttps://pbs.twimg.com/profile_banners/1115208852/1359237987
p874
aVhttps://pbs.twimg.com/profile_banners/921968064/1362338633
p875
aVhttps://pbs.twimg.com/profile_banners/2545154684/1401855633
p876
aVhttps://pbs.twimg.com/profile_banners/2188104261/1384905960
p877
aVhttps://pbs.twimg.com/profile_banners/2240053074/1386728849
p878
aVhttps://pbs.twimg.com/profile_banners/1517424296/1371296974
p879
aVhttps://pbs.twimg.com/profile_banners/112022182/1400929666
p880
aVhttps://pbs.twimg.com/profile_banners/1945725656/1382311237
p881
aVhttps://pbs.twimg.com/profile_banners/1239951924/1374247901
p882
aVhttps://pbs.twimg.com/profile_banners/1614495156/1374605184
p883
aVhttps://pbs.twimg.com/profile_banners/1594943840/1376764819
p884
aVhttps://pbs.twimg.com/profile_banners/1076293386/1359438034
p885
aVhttps://pbs.twimg.com/profile_banners/1141281840/1359773746
p886
aVhttps://pbs.twimg.com/profile_banners/982964593/1354386407
p887
aVhttps://pbs.twimg.com/profile_banners/963686941/1353562465
p888
aVhttps://pbs.twimg.com/profile_banners/857373961/1351482084
p889
aVhttps://pbs.twimg.com/profile_banners/2739019884/1408253023
p890
aVhttps://pbs.twimg.com/profile_banners/1467833203/1369856004
p891
aVhttps://pbs.twimg.com/profile_banners/1426787736/1386284575
p892
aVhttps://pbs.twimg.com/profile_banners/216414659/1371007010
p893
aVhttps://pbs.twimg.com/profile_banners/2618377751/1403040414
p894
aVhttps://pbs.twimg.com/profile_banners/2543803466/1402711113
p895
aVhttps://pbs.twimg.com/profile_banners/2657950948/1404171948
p896
aVhttps://pbs.twimg.com/profile_banners/1408468554/1368920078
p897
aVhttps://pbs.twimg.com/profile_banners/3024341198/1424200988
p898
aVhttps://pbs.twimg.com/profile_banners/3379298553/1437080669
p899
aVhttps://pbs.twimg.com/profile_banners/2779157903/1411317504
p900
aVhttps://pbs.twimg.com/profile_banners/1628916536/1375068154
p901
aVhttps://pbs.twimg.com/profile_banners/1529933431/1371625229
p902
aVhttps://pbs.twimg.com/profile_banners/3379953496/1439001591
p903
aVhttps://pbs.twimg.com/profile_banners/1619392266/1374773173
p904
aVhttps://pbs.twimg.com/profile_banners/1400935849/1367967657
p905
aVhttps://pbs.twimg.com/profile_banners/4825698999/1453161385
p906
aVhttps://pbs.twimg.com/profile_banners/4524127642/1450438807
p907
aVhttps://pbs.twimg.com/profile_banners/554077713/1394592772
p908
aVhttps://pbs.twimg.com/profile_banners/3223582916/1432525920
p909
aVhttps://pbs.twimg.com/profile_banners/2961180508/1420414472
p910
aVhttps://pbs.twimg.com/profile_banners/3158063861/1428930474
p911
aVhttps://pbs.twimg.com/profile_banners/2800734048/1411322882
p912
aVhttps://pbs.twimg.com/profile_banners/2611558670/1404822226
p913
aVhttps://pbs.twimg.com/profile_banners/2670280594/1404443308
p914
aVhttps://pbs.twimg.com/profile_banners/2569241960/1402850132
p915
aVhttps://pbs.twimg.com/profile_banners/2599807799/1402841128
p916
aVhttps://pbs.twimg.com/profile_banners/2541297069/1400808712
p917
aVhttps://pbs.twimg.com/profile_banners/2458504339/1399462390
p918
aVhttps://pbs.twimg.com/profile_banners/2416757942/1396059115
p919
aVhttps://pbs.twimg.com/profile_banners/63127392/1392048270
p920
aVhttps://pbs.twimg.com/profile_banners/2306743449/1390859913
p921
aVhttps://pbs.twimg.com/profile_banners/2244351291/1388040358
p922
aVhttps://pbs.twimg.com/profile_banners/2215034298/1388580135
p923
aVhttps://pbs.twimg.com/profile_banners/63723962/1381368142
p924
aVhttps://pbs.twimg.com/profile_banners/1549237184/1390964607
p925
aVhttps://pbs.twimg.com/profile_banners/1638414690/1375843813
p926
aVhttps://pbs.twimg.com/profile_banners/1626162828/1374954864
p927
aVhttps://pbs.twimg.com/profile_banners/1511075930/1371096113
p928
aVhttps://pbs.twimg.com/profile_banners/1608175435/1374325149
p929
aVhttps://pbs.twimg.com/profile_banners/1606560444/1374261588
p930
aVhttps://pbs.twimg.com/profile_banners/1109394576/1373497616
p931
aVhttps://pbs.twimg.com/profile_banners/1407697442/1386688201
p932
aVhttps://pbs.twimg.com/profile_banners/1477266396/1370179227
p933
aVhttps://pbs.twimg.com/profile_banners/1118174995/1359341542
p934
aVhttps://pbs.twimg.com/profile_banners/1141218818/1359770059
p935
aVhttps://pbs.twimg.com/profile_banners/1426891027/1368578148
p936
aVhttps://pbs.twimg.com/profile_banners/1377883267/1366835310
p937
aVhttps://pbs.twimg.com/profile_banners/1361158904/1366840435
p938
aVhttps://pbs.twimg.com/profile_banners/1149696919/1372665871
p939
aVhttps://pbs.twimg.com/profile_banners/1270071914/1383448263
p940
aVhttps://pbs.twimg.com/profile_banners/1169129689/1361487767
p941
aVhttps://pbs.twimg.com/profile_banners/1134542634/1359564455
p942
aVhttps://pbs.twimg.com/profile_banners/1078156207/1357866792
p943
aVhttps://pbs.twimg.com/profile_banners/1073041818/1357715646
p944
aVhttps://pbs.twimg.com/profile_banners/753521288/1349453636
p945
aVhttps://pbs.twimg.com/profile_banners/414435407/1352136918
p946
aVhttps://pbs.twimg.com/profile_banners/1885453813/1404339326
p947
aVhttps://pbs.twimg.com/profile_banners/2846093573/1414373815
p948
aVhttps://pbs.twimg.com/profile_banners/2282601800/1389516905
p949
aVhttps://pbs.twimg.com/profile_banners/1958501454/1381666051
p950
aVhttps://pbs.twimg.com/profile_banners/784775191/1376859181
p951
aVhttps://pbs.twimg.com/profile_banners/1667092603/1376379570
p952
aVhttps://pbs.twimg.com/profile_banners/1638753558/1379110841
p953
aVhttps://pbs.twimg.com/profile_banners/1582281380/1373616342
p954
aVhttps://pbs.twimg.com/profile_banners/1519870142/1371401461
p955
aVhttps://pbs.twimg.com/profile_banners/1411593152/1367974982
p956
aVhttps://pbs.twimg.com/profile_banners/1483156134/1372797662
p957
aVhttps://pbs.twimg.com/profile_banners/1460942473/1369622012
p958
aVhttps://pbs.twimg.com/profile_banners/1395326390/1367513295
p959
aVhttps://pbs.twimg.com/profile_banners/1284840174/1364903508
p960
aVhttps://pbs.twimg.com/profile_banners/1317062646/1364673894
p961
aVhttps://pbs.twimg.com/profile_banners/1268341963/1363307464
p962
aVhttps://pbs.twimg.com/profile_banners/1216047019/1362365210
p963
aVhttps://pbs.twimg.com/profile_banners/1216756490/1366312451
p964
aVhttps://pbs.twimg.com/profile_banners/827637757/1359582297
p965
aVhttps://pbs.twimg.com/profile_banners/3940411033/1445978877
p966
aVhttps://pbs.twimg.com/profile_banners/4615575627/1451173570
p967
aVhttps://pbs.twimg.com/profile_banners/968096618/1353767386
p968
aVhttps://pbs.twimg.com/profile_banners/1026817818/1356578570
p969
aVhttps://pbs.twimg.com/profile_banners/991398871/1354728448
p970
aVhttps://pbs.twimg.com/profile_banners/3215346550/1430191459
p971
aVhttps://pbs.twimg.com/profile_banners/1661541133/1386759076
p972
aVhttps://pbs.twimg.com/profile_banners/1904180432/1380132265
p973
aVhttps://pbs.twimg.com/profile_banners/1018235252/1355903428
p974
aVhttps://pbs.twimg.com/profile_banners/3279216034/1431885767
p975
aVhttps://pbs.twimg.com/profile_banners/2576133437/1401657897
p976
aVhttps://pbs.twimg.com/profile_banners/1115145613/1358970693
p977
aVhttps://pbs.twimg.com/profile_banners/1292723100/1364136086
p978
aVhttps://pbs.twimg.com/profile_banners/304458528/1357417495
p979
aVhttps://pbs.twimg.com/profile_banners/1558023409/1372597048
p980
aVhttps://pbs.twimg.com/profile_banners/2805033207/1412707911
p981
aVhttps://pbs.twimg.com/profile_banners/1187274426/1361046110
p982
aVhttps://pbs.twimg.com/profile_banners/1003275176/1355201594
p983
aVhttps://pbs.twimg.com/profile_banners/588190607/1353105424
p984
aVhttps://pbs.twimg.com/profile_banners/2364607220/1393948828
p985
aVhttps://pbs.twimg.com/profile_banners/1946050230/1382427941
p986
aVhttps://pbs.twimg.com/profile_banners/952273909/1353117433
p987
aVhttps://pbs.twimg.com/profile_banners/896483420/1350869563
p988
aVhttps://pbs.twimg.com/profile_banners/2739973947/1407772184
p989
aVhttps://pbs.twimg.com/profile_banners/903234973/1358660856
p990
aVhttps://pbs.twimg.com/profile_banners/2245087429/1400113068
p991
aVhttps://pbs.twimg.com/profile_banners/2424237723/1402919582
p992
aVhttps://pbs.twimg.com/profile_banners/2470322160/1398833032
p993
aVhttps://pbs.twimg.com/profile_banners/2154025842/1383177810
p994
aVhttps://pbs.twimg.com/profile_banners/1210380001/1361588312
p995
aVhttps://pbs.twimg.com/profile_banners/2440507454/1413004874
p996
aVhttps://pbs.twimg.com/profile_banners/951460950/1359166214
p997
aVhttps://pbs.twimg.com/profile_banners/935629093/1352415867
p998
aVhttps://pbs.twimg.com/profile_banners/3429343751/1439870389
p999
aVhttps://pbs.twimg.com/profile_banners/1321112803/1364864152
p1000
aVhttps://pbs.twimg.com/profile_banners/2175062752/1384164161
p1001
aVhttps://pbs.twimg.com/profile_banners/307171412/1378619086
p1002
aVhttps://pbs.twimg.com/profile_banners/952679552/1353180142
p1003
aVhttps://pbs.twimg.com/profile_banners/912798848/1351530495
p1004
aVhttps://pbs.twimg.com/profile_banners/2649113658/1405458725
p1005
aVhttps://pbs.twimg.com/profile_banners/2542656301/1401764785
p1006
aVhttps://pbs.twimg.com/profile_banners/1068284564/1360182585
p1007
aVhttps://pbs.twimg.com/profile_banners/1597300056/1374275818
p1008
aVhttps://pbs.twimg.com/profile_banners/2569207052/1402849161
p1009
aVhttps://pbs.twimg.com/profile_banners/2613591323/1402907151
p1010
aVhttps://pbs.twimg.com/profile_banners/1210491920/1361590821
p1011
aVhttps://pbs.twimg.com/profile_banners/3382295722/1440011210
p1012
aVhttps://pbs.twimg.com/profile_banners/834965803/1348449758
p1013
aVhttps://pbs.twimg.com/profile_banners/1002352124/1355265204
p1014
aVhttps://pbs.twimg.com/profile_banners/576729519/1355121205
p1015
aVhttps://pbs.twimg.com/profile_banners/3437221756/1440361212
p1016
aVhttps://pbs.twimg.com/profile_banners/2506154331/1398344296
p1017
aVhttps://pbs.twimg.com/profile_banners/2151402855/1384171222
p1018
aVhttps://pbs.twimg.com/profile_banners/2885150728/1416447341
p1019
aVhttps://pbs.twimg.com/profile_banners/722867352/1352247482
p1020
aVhttps://pbs.twimg.com/profile_banners/954611286/1353201578
p1021
aVhttps://pbs.twimg.com/profile_banners/1060505815/1359214445
p1022
aVhttps://pbs.twimg.com/profile_banners/3189672369/1429601751
p1023
aVhttps://pbs.twimg.com/profile_banners/2877093827/1416003946
p1024
aVhttps://pbs.twimg.com/profile_banners/2247940604/1387246512
p1025
aVhttps://pbs.twimg.com/profile_banners/967219742/1379801053
p1026
aVhttps://pbs.twimg.com/profile_banners/2870056753/1413946768
p1027
aVhttps://pbs.twimg.com/profile_banners/1030044548/1387922839
p1028
aVhttps://pbs.twimg.com/profile_banners/1674848462/1376629533
p1029
aVhttps://pbs.twimg.com/profile_banners/4185473488/1454809332
p1030
aVhttps://pbs.twimg.com/profile_banners/2886161777/1416520621
p1031
aVhttps://pbs.twimg.com/profile_banners/2828684812/1413341883
p1032
aVhttps://pbs.twimg.com/profile_banners/1499381570/1384668256
p1033
aVhttps://pbs.twimg.com/profile_banners/2889234233/1416751707
p1034
aVhttps://pbs.twimg.com/profile_banners/2225893177/1385951566
p1035
aVhttps://pbs.twimg.com/profile_banners/2832486193/1411699135
p1036
aVhttps://pbs.twimg.com/profile_banners/2455853856/1398053205
p1037
aVhttps://pbs.twimg.com/profile_banners/853596246/1348953205
p1038
aVhttps://pbs.twimg.com/profile_banners/1276812260/1363595099
p1039
aVhttps://pbs.twimg.com/profile_banners/724502216/1348564338
p1040
aVhttps://pbs.twimg.com/profile_banners/4342074321/1449910861
p1041
aVhttps://pbs.twimg.com/profile_banners/1587679526/1373607653
p1042
aVhttps://pbs.twimg.com/profile_banners/2339099041/1392152246
p1043
aVhttps://pbs.twimg.com/profile_banners/854139836/1348997190
p1044
aVhttps://pbs.twimg.com/profile_banners/3080182563/1426710936
p1045
aVhttps://pbs.twimg.com/profile_banners/2313526938/1426764448
p1046
aVhttps://pbs.twimg.com/profile_banners/564299903/1351209538
p1047
aVhttps://pbs.twimg.com/profile_banners/2281968657/1389722999
p1048
aVhttps://pbs.twimg.com/profile_banners/1406745332/1376756315
p1049
aVhttps://pbs.twimg.com/profile_banners/1282245350/1363752997
p1050
aVhttps://pbs.twimg.com/profile_banners/1126132572/1361035803
p1051
aVhttps://pbs.twimg.com/profile_banners/702441164/1348371762
p1052
aVhttps://pbs.twimg.com/profile_banners/3074422281/1425661504
p1053
aVhttps://pbs.twimg.com/profile_banners/3063325095/1426585127
p1054
aVhttps://pbs.twimg.com/profile_banners/882754351/1359758739
p1055
aVhttps://pbs.twimg.com/profile_banners/1041457656/1365571846
p1056
aVhttps://pbs.twimg.com/profile_banners/746640222/1355355330
p1057
aVhttps://pbs.twimg.com/profile_banners/1107595075/1388958589
p1058
aVhttps://pbs.twimg.com/profile_banners/1297290402/1366753446
p1059
aVhttps://pbs.twimg.com/profile_banners/756217460/1352047540
p1060
aVhttps://pbs.twimg.com/profile_banners/413364530/1376590101
p1061
aVhttps://pbs.twimg.com/profile_banners/1007434086/1369345602
p1062
aVhttps://pbs.twimg.com/profile_banners/825623581/1407085025
p1063
aVhttps://pbs.twimg.com/profile_banners/1023204037/1370395504
p1064
aVhttps://pbs.twimg.com/profile_banners/1703169368/1381954248
p1065
aVhttps://pbs.twimg.com/profile_banners/741239280/1358552426
p1066
aVhttps://pbs.twimg.com/profile_banners/1260270348/1363032184
p1067
aVhttps://pbs.twimg.com/profile_banners/2276475811/1388862501
p1068
aVhttps://pbs.twimg.com/profile_banners/2412555805/1398989545
p1069
aVhttps://pbs.twimg.com/profile_banners/2736912041/1407512874
p1070
aVhttps://pbs.twimg.com/profile_banners/839797104/1363628107
p1071
aVhttps://pbs.twimg.com/profile_banners/2434971806/1397024086
p1072
aVhttps://pbs.twimg.com/profile_banners/1601241284/1374369821
p1073
aVhttps://pbs.twimg.com/profile_banners/1199323530/1361329422
p1074
aVhttps://pbs.twimg.com/profile_banners/1475136182/1370495088
p1075
aVhttps://pbs.twimg.com/profile_banners/3702947780/1443356307
p1076
aVhttps://pbs.twimg.com/profile_banners/2335713217/1395834996
p1077
aVhttps://pbs.twimg.com/profile_banners/2546120560/1407394581
p1078
aVhttps://pbs.twimg.com/profile_banners/1891959972/1407887570
p1079
aVhttps://pbs.twimg.com/profile_banners/1600091941/1377325141
p1080
aVhttps://pbs.twimg.com/profile_banners/1056518310/1357179098
p1081
aVhttps://pbs.twimg.com/profile_banners/1002233360/1390679730
p1082
aVhttps://pbs.twimg.com/profile_banners/2282568470/1389212137
p1083
aVhttps://pbs.twimg.com/profile_banners/1161578624/1360389357
p1084
aVhttps://pbs.twimg.com/profile_banners/1277792886/1363616706
p1085
aVhttps://pbs.twimg.com/profile_banners/3013869592/1424188672
p1086
aVhttps://pbs.twimg.com/profile_banners/1344770388/1365711430
p1087
aVhttps://pbs.twimg.com/profile_banners/1914026989/1380370416
p1088
aVhttps://pbs.twimg.com/profile_banners/1163420280/1360428455
p1089
aVhttps://pbs.twimg.com/profile_banners/796741333/1357073973
p1090
aVhttps://pbs.twimg.com/profile_banners/1465368680/1369886484
p1091
aVhttps://pbs.twimg.com/profile_banners/498122501/1356367173
p1092
aVhttps://pbs.twimg.com/profile_banners/2562346979/1401221560
p1093
aVhttps://pbs.twimg.com/profile_banners/2186710336/1394848824
p1094
aVhttps://pbs.twimg.com/profile_banners/3262629494/1435826662
p1095
aVhttps://pbs.twimg.com/profile_banners/2205808038/1385086063
p1096
aVhttps://pbs.twimg.com/profile_banners/1416237895/1368396426
p1097
aVhttps://pbs.twimg.com/profile_banners/2762831728/1410900608
p1098
aVhttps://pbs.twimg.com/profile_banners/2383133557/1395109296
p1099
aVhttps://pbs.twimg.com/profile_banners/1655870923/1389390437
p1100
aVhttps://pbs.twimg.com/profile_banners/1640034200/1375436100
p1101
aVhttps://pbs.twimg.com/profile_banners/1517461520/1378933557
p1102
aVhttps://pbs.twimg.com/profile_banners/1445373235/1369108400
p1103
aVhttps://pbs.twimg.com/profile_banners/2799147399/1413234366
p1104
aVhttps://pbs.twimg.com/profile_banners/2615442577/1404996845
p1105
aVhttps://pbs.twimg.com/profile_banners/2363222054/1393451203
p1106
aVhttps://pbs.twimg.com/profile_banners/2335772550/1391987547
p1107
aVhttps://pbs.twimg.com/profile_banners/2149763184/1382478667
p1108
aVhttps://pbs.twimg.com/profile_banners/1468700702/1369917801
p1109
aVhttps://pbs.twimg.com/profile_banners/1463500518/1386720940
p1110
aVhttps://pbs.twimg.com/profile_banners/1429630722/1368896015
p1111
aVhttps://pbs.twimg.com/profile_banners/1019154960/1355816662
p1112
aVhttps://pbs.twimg.com/profile_banners/881461009/1350272421
p1113
aVhttps://pbs.twimg.com/profile_banners/2857478745/1423498034
p1114
aVhttps://pbs.twimg.com/profile_banners/3261037052/1435655901
p1115
aVhttps://pbs.twimg.com/profile_banners/2411730583/1395792471
p1116
aVhttps://pbs.twimg.com/profile_banners/342415031/1375076476
p1117
aVhttps://pbs.twimg.com/profile_banners/1180976006/1369199097
p1118
aVhttps://pbs.twimg.com/profile_banners/1161407180/1385315654
p1119
aVhttps://pbs.twimg.com/profile_banners/1110320624/1358814811
p1120
aVhttps://pbs.twimg.com/profile_banners/823301726/1449024429
p1121
aVhttps://pbs.twimg.com/profile_banners/1579863631/1373360602
p1122
aVhttps://pbs.twimg.com/profile_banners/2358794522/1393208118
p1123
aVhttps://pbs.twimg.com/profile_banners/1125632682/1360344029
p1124
aVhttps://pbs.twimg.com/profile_banners/780500924/1348961224
p1125
aVhttps://pbs.twimg.com/profile_banners/2178647937/1384374309
p1126
aVhttps://pbs.twimg.com/profile_banners/1360565695/1366241138
p1127
aVhttps://pbs.twimg.com/profile_banners/764541175/1356563319
p1128
aVhttps://pbs.twimg.com/profile_banners/564040187/1349991992
p1129
aVhttps://pbs.twimg.com/profile_banners/1300505970/1364235202
p1130
aVhttps://pbs.twimg.com/profile_banners/854652230/1388088527
p1131
aVhttps://pbs.twimg.com/profile_banners/1061778102/1357346809
p1132
aVhttps://pbs.twimg.com/profile_banners/2492219417/1397828458
p1133
aVhttps://pbs.twimg.com/profile_banners/2324353219/1391666282
p1134
aVhttps://pbs.twimg.com/profile_banners/637214100/1353271703
p1135
aVhttps://pbs.twimg.com/profile_banners/870735702/1349824547
p1136
aVhttps://pbs.twimg.com/profile_banners/1111053368/1358846677
p1137
aVhttps://pbs.twimg.com/profile_banners/2875700541/1415917226
p1138
aVhttps://pbs.twimg.com/profile_banners/2492495179/1405557501
p1139
aVhttps://pbs.twimg.com/profile_banners/1293662276/1364101411
p1140
aVhttps://pbs.twimg.com/profile_banners/1259907680/1371760569
p1141
aVhttps://pbs.twimg.com/profile_banners/1486708759/1371283565
p1142
aVhttps://pbs.twimg.com/profile_banners/1429176980/1368578446
p1143
aVhttps://pbs.twimg.com/profile_banners/1115264185/1361639435
p1144
aVhttps://pbs.twimg.com/profile_banners/2375449677/1395145325
p1145
aVhttps://pbs.twimg.com/profile_banners/924234908/1352060714
p1146
aVhttps://pbs.twimg.com/profile_banners/4063829938/1450639707
p1147
aVhttps://pbs.twimg.com/profile_banners/3363718845/1438251253
p1148
aVhttps://pbs.twimg.com/profile_banners/4375830983/1449411692
p1149
aVhttps://pbs.twimg.com/profile_banners/3429688214/1454962468
p1150
aVhttps://pbs.twimg.com/profile_banners/2581207712/1432422359
p1151
aVhttps://pbs.twimg.com/profile_banners/4061270894/1450276280
p1152
aVhttps://pbs.twimg.com/profile_banners/4437420675/1449788482
p1153
aVhttps://pbs.twimg.com/profile_banners/4612122917/1453995945
p1154
aVhttps://pbs.twimg.com/profile_banners/3119407307/1430583216
p1155
aVhttps://pbs.twimg.com/profile_banners/1682421781/1425508900
p1156
aVhttps://pbs.twimg.com/profile_banners/3088190841/1436022508
p1157
aVhttps://pbs.twimg.com/profile_banners/3414482146/1449972901
p1158
aVhttps://pbs.twimg.com/profile_banners/3995815394/1445647475
p1159
aVhttps://pbs.twimg.com/profile_banners/3688739363/1443248589
p1160
aVhttps://pbs.twimg.com/profile_banners/3339522074/1447772911
p1161
aVhttps://pbs.twimg.com/profile_banners/3068992223/1425499903
p1162
aVhttps://pbs.twimg.com/profile_banners/3240494504/1433830465
p1163
aVhttps://pbs.twimg.com/profile_banners/1597450388/1450661244
p1164
aVhttps://pbs.twimg.com/profile_banners/2986279120/1434153073
p1165
aVhttps://pbs.twimg.com/profile_banners/3102422166/1426999895
p1166
aVhttps://pbs.twimg.com/profile_banners/2987935606/1424802174
p1167
aVhttps://pbs.twimg.com/profile_banners/2984232474/1421333256
p1168
aVhttps://pbs.twimg.com/profile_banners/2891842808/1441126830
p1169
aVhttps://pbs.twimg.com/profile_banners/3074016057/1425611259
p1170
aVhttps://pbs.twimg.com/profile_banners/2870384354/1413963242
p1171
aVhttps://pbs.twimg.com/profile_banners/1836967783/1451944300
p1172
aVhttps://pbs.twimg.com/profile_banners/537683751/1450861849
p1173
aVhttps://pbs.twimg.com/profile_banners/2728123090/1453262796
p1174
aVhttps://pbs.twimg.com/profile_banners/1917361800/1448057494
p1175
aVhttps://pbs.twimg.com/profile_banners/3726738435/1443125049
p1176
aVhttps://pbs.twimg.com/profile_banners/3311137364/1441682519
p1177
aVhttps://pbs.twimg.com/profile_banners/1727080466/1452172470
p1178
aVhttps://pbs.twimg.com/profile_banners/996552967/1409719306
p1179
aVhttps://pbs.twimg.com/profile_banners/919556972/1398207850
p1180
aVhttps://pbs.twimg.com/profile_banners/3254110597/1448046459
p1181
aVhttps://pbs.twimg.com/profile_banners/2396146126/1437051400
p1182
aVhttps://pbs.twimg.com/profile_banners/4312494381/1455197774
p1183
aVhttps://pbs.twimg.com/profile_banners/2873932625/1451485064
p1184
aVhttps://pbs.twimg.com/profile_banners/3072462364/1438294522
p1185
aVhttps://pbs.twimg.com/profile_banners/1699678674/1444406541
p1186
aVhttps://pbs.twimg.com/profile_banners/3187277487/1442060802
p1187
aVhttps://pbs.twimg.com/profile_banners/3298686923/1449805058
p1188
aVhttps://pbs.twimg.com/profile_banners/1867319324/1385766342
p1189
aVhttps://pbs.twimg.com/profile_banners/1641566642/1375590952
p1190
aVhttps://pbs.twimg.com/profile_banners/4769337160/1453488859
p1191
aVhttps://pbs.twimg.com/profile_banners/3995918596/1445290976
p1192
aVhttps://pbs.twimg.com/profile_banners/2731552773/1409372482
p1193
aVhttps://pbs.twimg.com/profile_banners/2985366099/1452650045
p1194
aVhttps://pbs.twimg.com/profile_banners/474119162/1453898382
p1195
aVhttps://pbs.twimg.com/profile_banners/4646283401/1451427466
p1196
aVhttps://pbs.twimg.com/profile_banners/2457471739/1416969801
p1197
aVhttps://pbs.twimg.com/profile_banners/4614995115/1454811976
p1198
aVhttps://pbs.twimg.com/profile_banners/2254676649/1441309670
p1199
aVhttps://pbs.twimg.com/profile_banners/4304691494/1452961522
p1200
aVhttps://pbs.twimg.com/profile_banners/3309259489/1448850366
p1201
aVhttps://pbs.twimg.com/profile_banners/614560967/1387078706
p1202
aVhttps://pbs.twimg.com/profile_banners/2740082962/1414135503
p1203
aVhttps://pbs.twimg.com/profile_banners/2904185174/1416376113
p1204
aVhttps://pbs.twimg.com/profile_banners/3363351412/1439426100
p1205
aVhttps://pbs.twimg.com/profile_banners/457519100/1429040587
p1206
aVhttps://pbs.twimg.com/profile_banners/2733576793/1424619801
p1207
aVhttps://pbs.twimg.com/profile_banners/438551314/1451454477
p1208
aVhttps://pbs.twimg.com/profile_banners/1334734910/1365358516
p1209
aVhttps://pbs.twimg.com/profile_banners/3266548332/1453758239
p1210
aVhttps://pbs.twimg.com/profile_banners/3246273763/1434391316
p1211
aVhttps://pbs.twimg.com/profile_banners/930193242/1434606774
p1212
aVhttps://pbs.twimg.com/profile_banners/2747144492/1413926111
p1213
aVhttps://pbs.twimg.com/profile_banners/1717986043/1379756674
p1214
aVhttps://pbs.twimg.com/profile_banners/4774956623/1452524205
p1215
aVhttps://pbs.twimg.com/profile_banners/4473367935/1454836001
p1216
aVhttps://pbs.twimg.com/profile_banners/2251390732/1393127928
p1217
aVhttps://pbs.twimg.com/profile_banners/3612612795/1446030506
p1218
aVhttps://pbs.twimg.com/profile_banners/3870784942/1444049044
p1219
aVhttps://pbs.twimg.com/profile_banners/3526179435/1446941345
p1220
aVhttps://pbs.twimg.com/profile_banners/3267155304/1435937523
p1221
aVhttps://pbs.twimg.com/profile_banners/3306105467/1433798404
p1222
aVhttps://pbs.twimg.com/profile_banners/3311237374/1435214057
p1223
aVhttps://pbs.twimg.com/profile_banners/3031733195/1451560797
p1224
aVhttps://pbs.twimg.com/profile_banners/2737722148/1407546357
p1225
aVhttps://pbs.twimg.com/profile_banners/3177510210/1438836827
p1226
aVhttps://pbs.twimg.com/profile_banners/2945300859/1419744850
p1227
aVhttps://pbs.twimg.com/profile_banners/2191370953/1384306666
p1228
aVhttps://pbs.twimg.com/profile_banners/2784484748/1445445694
p1229
aVhttps://pbs.twimg.com/profile_banners/2537860646/1401556253
p1230
aVhttps://pbs.twimg.com/profile_banners/731105472/1405959537
p1231
aVhttps://pbs.twimg.com/profile_banners/1476048110/1405225855
p1232
aVhttps://pbs.twimg.com/profile_banners/540535608/1359513565
p1233
aVhttps://pbs.twimg.com/profile_banners/1137548496/1359662053
p1234
aVhttps://pbs.twimg.com/profile_banners/1350874850/1419056350
p1235
aVhttps://pbs.twimg.com/profile_banners/937791848/1390555240
p1236
aVhttps://pbs.twimg.com/profile_banners/937718629/1381815651
p1237
aVhttps://pbs.twimg.com/profile_banners/605038884/1362357869
p1238
aVhttps://pbs.twimg.com/profile_banners/952707068/1358564553
p1239
aVhttps://pbs.twimg.com/profile_banners/1323162204/1367729990
p1240
aVhttps://pbs.twimg.com/profile_banners/220130271/1396990163
p1241
aVhttps://pbs.twimg.com/profile_banners/862154029/1433081011
p1242
aVhttps://pbs.twimg.com/profile_banners/1030833176/1390277135
p1243
aVhttps://pbs.twimg.com/profile_banners/952053516/1353607037
p1244
aVhttps://pbs.twimg.com/profile_banners/932030791/1353165881
p1245
aVhttps://pbs.twimg.com/profile_banners/607962354/1353091553
p1246
aVhttps://pbs.twimg.com/profile_banners/414595495/1422392603
p1247
aVhttps://pbs.twimg.com/profile_banners/931066844/1366256874
p1248
aVhttps://pbs.twimg.com/profile_banners/792936032/1359938684
p1249
aVhttps://pbs.twimg.com/profile_banners/947002512/1352865951
p1250
aVhttps://pbs.twimg.com/profile_banners/865529552/1357857065
p1251
aVhttps://pbs.twimg.com/profile_banners/206817584/1452819837
p1252
aVhttps://pbs.twimg.com/profile_banners/3298695675/1432954950
p1253
aVhttps://pbs.twimg.com/profile_banners/3027513211/1441232922
p1254
aVhttps://pbs.twimg.com/profile_banners/3351870725/1435675850
p1255
aVhttps://pbs.twimg.com/profile_banners/3524239824/1442785673
p1256
aVhttps://pbs.twimg.com/profile_banners/465746250/1381892090
p1257
aVhttps://pbs.twimg.com/profile_banners/490380767/1361121606
p1258
aVhttps://pbs.twimg.com/profile_banners/1416897570/1421696774
p1259
aVhttps://pbs.twimg.com/profile_banners/3159864685/1429196193
p1260
aVhttps://pbs.twimg.com/profile_banners/928154102/1396351111
p1261
aVhttps://pbs.twimg.com/profile_banners/3093482777/1439420245
p1262
aVhttps://pbs.twimg.com/profile_banners/961347372/1363736945
p1263
aVhttps://pbs.twimg.com/profile_banners/2790877298/1434244648
p1264
aVhttps://pbs.twimg.com/profile_banners/3162826927/1429378961
p1265
aVhttps://pbs.twimg.com/profile_banners/3149722760/1428773188
p1266
aVhttps://pbs.twimg.com/profile_banners/2712314062/1420598164
p1267
aVhttps://pbs.twimg.com/profile_banners/3019223763/1434672488
p1268
aVhttps://pbs.twimg.com/profile_banners/2388436098/1411379989
p1269
aVhttps://pbs.twimg.com/profile_banners/2450069605/1432197213
p1270
aVhttps://pbs.twimg.com/profile_banners/62363527/1425180870
p1271
aVhttps://pbs.twimg.com/profile_banners/2979491992/1423689688
p1272
aVhttps://pbs.twimg.com/profile_banners/2713821854/1409104548
p1273
aVhttps://pbs.twimg.com/profile_banners/2287420201/1424347579
p1274
aVhttps://pbs.twimg.com/profile_banners/735873264/1359548503
p1275
aVhttps://pbs.twimg.com/profile_banners/4623357497/1451392573
p1276
aVhttps://pbs.twimg.com/profile_banners/3340269245/1454943672
p1277
aVhttps://pbs.twimg.com/profile_banners/3323911351/1440235454
p1278
aVhttps://pbs.twimg.com/profile_banners/3365122953/1436320673
p1279
aVhttps://pbs.twimg.com/profile_banners/3275293992/1436602440
p1280
aVhttps://pbs.twimg.com/profile_banners/307033877/1435188077
p1281
aVhttps://pbs.twimg.com/profile_banners/967054796/1353715525
p1282
aVhttps://pbs.twimg.com/profile_banners/2740198275/1431807431
p1283
aVhttps://pbs.twimg.com/profile_banners/3092348556/1426571376
p1284
aVhttps://pbs.twimg.com/profile_banners/3022419963/1423546257
p1285
aVhttps://pbs.twimg.com/profile_banners/1054587890/1399050982
p1286
aVhttps://pbs.twimg.com/profile_banners/1668723068/1440988388
p1287
aVhttps://pbs.twimg.com/profile_banners/967291904/1420367738
p1288
aVhttps://pbs.twimg.com/profile_banners/2940639196/1419506282
p1289
aVhttps://pbs.twimg.com/profile_banners/2861375037/1431551295
p1290
aVhttps://pbs.twimg.com/profile_banners/1199231132/1377126200
p1291
aVhttps://pbs.twimg.com/profile_banners/2873444470/1415775734
p1292
aVhttps://pbs.twimg.com/profile_banners/2769085359/1453508316
p1293
aVhttps://pbs.twimg.com/profile_banners/2471803693/1398910737
p1294
aVhttps://pbs.twimg.com/profile_banners/2606872376/1408426627
p1295
aVhttps://pbs.twimg.com/profile_banners/2725330887/1407098734
p1296
aVhttps://pbs.twimg.com/profile_banners/2700563859/1405115871
p1297
aVhttps://pbs.twimg.com/profile_banners/2562397586/1402536156
p1298
aVhttps://pbs.twimg.com/profile_banners/1561695043/1436444099
p1299
aVhttps://pbs.twimg.com/profile_banners/127384095/1388985804
p1300
aVhttps://pbs.twimg.com/profile_banners/2542088654/1401740472
p1301
aVhttps://pbs.twimg.com/profile_banners/2546476340/1401900960
p1302
aVhttps://pbs.twimg.com/profile_banners/2454001273/1416975040
p1303
aVhttps://pbs.twimg.com/profile_banners/2432572717/1396903323
p1304
aVhttps://pbs.twimg.com/profile_banners/2448567219/1396230760
p1305
aVhttps://pbs.twimg.com/profile_banners/2383643075/1399494604
p1306
aVhttps://pbs.twimg.com/profile_banners/2410638801/1394818320
p1307
aVhttps://pbs.twimg.com/profile_banners/2420436550/1395161481
p1308
aVhttps://pbs.twimg.com/profile_banners/2386317799/1394691866
p1309
aVhttps://pbs.twimg.com/profile_banners/2238478318/1398463380
p1310
aVhttps://pbs.twimg.com/profile_banners/2307706772/1397851874
p1311
aVhttps://pbs.twimg.com/profile_banners/1656382849/1411031225
p1312
aVhttps://pbs.twimg.com/profile_banners/980942317/1354468065
p1313
aVhttps://pbs.twimg.com/profile_banners/630629210/1357767522
p1314
aVhttps://pbs.twimg.com/profile_banners/3885729688/1452482338
p1315
aVhttps://pbs.twimg.com/profile_banners/3183638502/1431361555
p1316
aVhttps://pbs.twimg.com/profile_banners/3647412029/1445314043
p1317
aVhttps://pbs.twimg.com/profile_banners/2876983939/1414249774
p1318
aVhttps://pbs.twimg.com/profile_banners/2608903712/1405725236
p1319
aVhttps://pbs.twimg.com/profile_banners/2537301575/1434238808
p1320
aVhttps://pbs.twimg.com/profile_banners/2480753928/1402460438
p1321
aVhttps://pbs.twimg.com/profile_banners/591837820/1388623515
p1322
aVhttps://pbs.twimg.com/profile_banners/3214523669/1430163274
p1323
aVhttps://pbs.twimg.com/profile_banners/3293032869/1432220633
p1324
aVhttps://pbs.twimg.com/profile_banners/1523951395/1452806042
p1325
aVhttps://pbs.twimg.com/profile_banners/4809422842/1452820980
p1326
aVhttps://pbs.twimg.com/profile_banners/560714853/1448936268
p1327
aVhttps://pbs.twimg.com/profile_banners/3266470603/1438702934
p1328
aVhttps://pbs.twimg.com/profile_banners/3231180053/1430675858
p1329
aVhttps://pbs.twimg.com/profile_banners/2208456187/1420858182
p1330
aVhttps://pbs.twimg.com/profile_banners/1064325300/1367972481
p1331
aVhttps://pbs.twimg.com/profile_banners/3376919242/1437239113
p1332
aVhttps://pbs.twimg.com/profile_banners/1658923850/1436490086
p1333
aVhttps://pbs.twimg.com/profile_banners/1187773399/1395210227
p1334
aVhttps://pbs.twimg.com/profile_banners/2204663335/1384943346
p1335
aVhttps://pbs.twimg.com/profile_banners/2191470265/1384315759
p1336
aVhttps://pbs.twimg.com/profile_banners/1038449161/1411420359
p1337
aVhttps://pbs.twimg.com/profile_banners/1209655280/1388515801
p1338
aVhttps://pbs.twimg.com/profile_banners/757474471/1358023285
p1339
aVhttps://pbs.twimg.com/profile_banners/1156396554/1360223664
p1340
aVhttps://pbs.twimg.com/profile_banners/1120663046/1359398956
p1341
aVhttps://pbs.twimg.com/profile_banners/966608166/1353698865
p1342
aVhttps://pbs.twimg.com/profile_banners/946376642/1363908588
p1343
aVhttps://pbs.twimg.com/profile_banners/928401722/1352689115
p1344
aVhttps://pbs.twimg.com/profile_banners/883694138/1350365287
p1345
aVhttps://pbs.twimg.com/profile_banners/709564512/1378408595
p1346
aVhttps://pbs.twimg.com/profile_banners/2891295326/1438773834
p1347
aVhttps://pbs.twimg.com/profile_banners/590504611/1419270293
p1348
aVhttps://pbs.twimg.com/profile_banners/2699630430/1406946903
p1349
aVhttps://pbs.twimg.com/profile_banners/3194733510/1436423273
p1350
aVhttps://pbs.twimg.com/profile_banners/2306454688/1391018460
p1351
aVhttps://pbs.twimg.com/profile_banners/4862044164/1454739074
p1352
aVhttps://pbs.twimg.com/profile_banners/4864083064/1454166901
p1353
aVhttps://pbs.twimg.com/profile_banners/2615229277/1411825329
p1354
aVhttps://pbs.twimg.com/profile_banners/1949908093/1389301001
p1355
aVhttps://pbs.twimg.com/profile_banners/529073966/1363448763
p1356
aVhttps://pbs.twimg.com/profile_banners/1048210280/1357149100
p1357
aVhttps://pbs.twimg.com/profile_banners/1167549211/1360549077
p1358
aVhttps://pbs.twimg.com/profile_banners/1101196112/1373325428
p1359
aVhttps://pbs.twimg.com/profile_banners/767244698/1357110916
p1360
aVhttps://pbs.twimg.com/profile_banners/888376346/1356085048
p1361
aVhttps://pbs.twimg.com/profile_banners/867352153/1365046150
p1362
aVhttps://pbs.twimg.com/profile_banners/904843892/1351558546
p1363
aVhttps://pbs.twimg.com/profile_banners/1135099730/1411471072
p1364
aVhttps://pbs.twimg.com/profile_banners/1490849174/1370626786
p1365
aVhttps://pbs.twimg.com/profile_banners/585798312/1359237558
p1366
aVhttps://pbs.twimg.com/profile_banners/2903618757/1429265727
p1367
aVhttps://pbs.twimg.com/profile_banners/2950811783/1423690392
p1368
aVhttps://pbs.twimg.com/profile_banners/2889816607/1415107282
p1369
aVhttps://pbs.twimg.com/profile_banners/2881928495/1418517155
p1370
aVhttps://pbs.twimg.com/profile_banners/2273324692/1426764516
p1371
aVhttps://pbs.twimg.com/profile_banners/2419593438/1399152012
p1372
aVhttps://pbs.twimg.com/profile_banners/1932772260/1386824833
p1373
aVhttps://pbs.twimg.com/profile_banners/2349241286/1414535175
p1374
aVhttps://pbs.twimg.com/profile_banners/1395918979/1378148636
p1375
aVhttps://pbs.twimg.com/profile_banners/2320332542/1399356801
p1376
aVhttps://pbs.twimg.com/profile_banners/2417287533/1395314793
p1377
aVhttps://pbs.twimg.com/profile_banners/363040012/1428309271
p1378
aVhttps://pbs.twimg.com/profile_banners/917358768/1396324646
p1379
aVhttps://pbs.twimg.com/profile_banners/2274775495/1392574778
p1380
aVhttps://pbs.twimg.com/profile_banners/1421363354/1368306991
p1381
aVhttps://pbs.twimg.com/profile_banners/2317954604/1392695606
p1382
aVhttps://pbs.twimg.com/profile_banners/1918910587/1411619712
p1383
aVhttps://pbs.twimg.com/profile_banners/2294388906/1390224766
p1384
aVhttps://pbs.twimg.com/profile_banners/1601930899/1390176402
p1385
aVhttps://pbs.twimg.com/profile_banners/1940124240/1403013075
p1386
aVhttps://pbs.twimg.com/profile_banners/1597573207/1402903425
p1387
aVhttps://pbs.twimg.com/profile_banners/2938610841/1419363776
p1388
aVhttps://pbs.twimg.com/profile_banners/4439958134/1449130579
p1389
aVhttps://pbs.twimg.com/profile_banners/2982211356/1421231022
p1390
aVhttps://pbs.twimg.com/profile_banners/4761919943/1452413184
p1391
aVhttps://pbs.twimg.com/profile_banners/2877977701/1434605094
p1392
aVhttps://pbs.twimg.com/profile_banners/185418807/1369835371
p1393
aVhttps://pbs.twimg.com/profile_banners/3739374983/1443728586
p1394
aVhttps://pbs.twimg.com/profile_banners/2333951852/1451807076
p1395
aVhttps://pbs.twimg.com/profile_banners/2755648269/1427654567
p1396
aVhttps://pbs.twimg.com/profile_banners/2898794243/1425259705
p1397
aVhttps://pbs.twimg.com/profile_banners/700841587/1417557235
p1398
aVhttps://pbs.twimg.com/profile_banners/329408178/1385429436
p1399
aVhttps://pbs.twimg.com/profile_banners/2848858041/1414533153
p1400
aVhttps://pbs.twimg.com/profile_banners/2749791742/1413147212
p1401
aVhttps://pbs.twimg.com/profile_banners/2833049276/1411744597
p1402
aVhttps://pbs.twimg.com/profile_banners/2772608253/1410898368
p1403
aVhttps://pbs.twimg.com/profile_banners/2750865414/1429658194
p1404
aVhttps://pbs.twimg.com/profile_banners/2453585898/1409424854
p1405
aVhttps://pbs.twimg.com/profile_banners/2753232562/1409221300
p1406
aVhttps://pbs.twimg.com/profile_banners/2755731092/1408728265
p1407
aVhttps://pbs.twimg.com/profile_banners/1316502037/1364652152
p1408
aVhttps://pbs.twimg.com/profile_banners/931312670/1420011119
p1409
aVhttps://pbs.twimg.com/profile_banners/2646605725/1406038824
p1410
aVhttps://pbs.twimg.com/profile_banners/2680188588/1406313694
p1411
aVhttps://pbs.twimg.com/profile_banners/2619166669/1405119881
p1412
aVhttps://pbs.twimg.com/profile_banners/895619702/1360460982
p1413
aVhttps://pbs.twimg.com/profile_banners/2493720788/1400037564
p1414
aVhttps://pbs.twimg.com/profile_banners/777200318/1429329968
p1415
aVhttps://pbs.twimg.com/profile_banners/2567802096/1402783867
p1416
aVhttps://pbs.twimg.com/profile_banners/1690291369/1402270037
p1417
aVhttps://pbs.twimg.com/profile_banners/2339764822/1401068074
p1418
aVhttps://pbs.twimg.com/profile_banners/2425988252/1397594417
p1419
aVhttps://pbs.twimg.com/profile_banners/717697231/1404987845
p1420
aVhttps://pbs.twimg.com/profile_banners/2157940868/1399571855
p1421
aVhttps://pbs.twimg.com/profile_banners/2198974326/1384666769
p1422
aVhttps://pbs.twimg.com/profile_banners/1625229481/1393234717
p1423
aVhttps://pbs.twimg.com/profile_banners/139092127/1376331952
p1424
aVhttps://pbs.twimg.com/profile_banners/1649085439/1443623397
p1425
aVhttps://pbs.twimg.com/profile_banners/390350321/1380757426
p1426
aVhttps://pbs.twimg.com/profile_banners/1386992198/1367190478
p1427
aVhttps://pbs.twimg.com/profile_banners/1147275906/1360170961
p1428
aVhttps://pbs.twimg.com/profile_banners/990053641/1365522236
p1429
aVhttps://pbs.twimg.com/profile_banners/1102617697/1358575046
p1430
aVhttps://pbs.twimg.com/profile_banners/1334655692/1432898893
p1431
aVhttps://pbs.twimg.com/profile_banners/1329118164/1365337656
p1432
aVhttps://pbs.twimg.com/profile_banners/1325162310/1365075119
p1433
aVhttps://pbs.twimg.com/profile_banners/1289966324/1364288060
p1434
aVhttps://pbs.twimg.com/profile_banners/1244106446/1378511985
p1435
aVhttps://pbs.twimg.com/profile_banners/1257758396/1362949328
p1436
aVhttps://pbs.twimg.com/profile_banners/1038924494/1363836913
p1437
aVhttps://pbs.twimg.com/profile_banners/1239861174/1362346394
p1438
aVhttps://pbs.twimg.com/profile_banners/1226696065/1363059271
p1439
aVhttps://pbs.twimg.com/profile_banners/923374111/1384094764
p1440
aVhttps://pbs.twimg.com/profile_banners/487728741/1359999377
p1441
aVhttps://pbs.twimg.com/profile_banners/1176115688/1361290927
p1442
aVhttps://pbs.twimg.com/profile_banners/1213909206/1382039772
p1443
aVhttps://pbs.twimg.com/profile_banners/771610586/1358858564
p1444
aVhttps://pbs.twimg.com/profile_banners/1101294228/1359406907
p1445
aVhttps://pbs.twimg.com/profile_banners/1106796866/1358703131
p1446
aVhttps://pbs.twimg.com/profile_banners/1167097368/1364604497
p1447
aVhttps://pbs.twimg.com/profile_banners/484239933/1358033785
p1448
aVhttps://pbs.twimg.com/profile_banners/1075981693/1357805414
p1449
aVhttps://pbs.twimg.com/profile_banners/27816566/1418486479
p1450
aVhttps://pbs.twimg.com/profile_banners/1687093298/1449204085
p1451
aVhttps://pbs.twimg.com/profile_banners/3678010395/1444497153
p1452
aVhttps://pbs.twimg.com/profile_banners/1627160833/1375166016
p1453
aVhttps://pbs.twimg.com/profile_banners/2858680621/1455093622
p1454
aVhttps://pbs.twimg.com/profile_banners/602433517/1420755433
p1455
aVhttps://pbs.twimg.com/profile_banners/607032996/1354437386
p1456
aVhttps://pbs.twimg.com/profile_banners/255817884/1379968019
p1457
aVhttps://pbs.twimg.com/profile_banners/2584705699/1431906965
p1458
aVhttps://pbs.twimg.com/profile_banners/1941830624/1408329253
p1459
aVhttps://pbs.twimg.com/profile_banners/291063707/1368220914
p1460
aVhttps://pbs.twimg.com/profile_banners/1254625470/1387597333
p1461
aVhttps://pbs.twimg.com/profile_banners/2523783789/1402010255
p1462
aVhttps://pbs.twimg.com/profile_banners/812257711/1380158430
p1463
aVhttps://pbs.twimg.com/profile_banners/468081402/1354409932
p1464
aVhttps://pbs.twimg.com/profile_banners/1186389506/1381101433
p1465
aVhttps://pbs.twimg.com/profile_banners/1931338134/1380926330
p1466
aVhttps://pbs.twimg.com/profile_banners/1216984920/1404727093
p1467
aVhttps://pbs.twimg.com/profile_banners/2189500380/1384227749
p1468
aVhttps://pbs.twimg.com/profile_banners/1864091863/1379178311
p1469
aVhttps://pbs.twimg.com/profile_banners/1677268741/1376772214
p1470
aVhttps://pbs.twimg.com/profile_banners/1625676804/1374938859
p1471
aVhttps://pbs.twimg.com/profile_banners/1596389892/1428069801
p1472
aVhttps://pbs.twimg.com/profile_banners/1393189838/1367454214
p1473
aVhttps://pbs.twimg.com/profile_banners/2541263127/1450030172
p1474
aVhttps://pbs.twimg.com/profile_banners/1416609986/1368194142
p1475
aVhttps://pbs.twimg.com/profile_banners/1524444452/1400490527
p1476
aVhttps://pbs.twimg.com/profile_banners/1339263390/1365636633
p1477
aVhttps://pbs.twimg.com/profile_banners/1047844286/1381864020
p1478
aVhttps://pbs.twimg.com/profile_banners/1358574440/1369969725
p1479
aVhttps://pbs.twimg.com/profile_banners/776944543/1404163565
p1480
aVhttps://pbs.twimg.com/profile_banners/728483196/1354570915
p1481
aVhttps://pbs.twimg.com/profile_banners/1245081336/1366674033
p1482
aVhttps://pbs.twimg.com/profile_banners/551490133/1348423120
p1483
aVhttps://pbs.twimg.com/profile_banners/704369580/1444411870
p1484
aVhttps://pbs.twimg.com/profile_banners/2780383086/1411670139
p1485
aVhttps://pbs.twimg.com/profile_banners/99813310/1374437010
p1486
aVhttps://pbs.twimg.com/profile_banners/1520723024/1371342579
p1487
aVhttps://pbs.twimg.com/profile_banners/994443547/1375215109
p1488
aVhttps://pbs.twimg.com/profile_banners/1924664732/1380662507
p1489
aVhttps://pbs.twimg.com/profile_banners/707163436/1389490161
p1490
aVhttps://pbs.twimg.com/profile_banners/2213253446/1385339095
p1491
aVhttps://pbs.twimg.com/profile_banners/1739025900/1403221002
p1492
aVhttps://pbs.twimg.com/profile_banners/1641735283/1389128541
p1493
aVhttps://pbs.twimg.com/profile_banners/2293663974/1403143097
p1494
aVhttps://pbs.twimg.com/profile_banners/2460501444/1398298671
p1495
aVhttps://pbs.twimg.com/profile_banners/2536232584/1399600882
p1496
aVhttps://pbs.twimg.com/profile_banners/2412628956/1398633997
p1497
aVhttps://pbs.twimg.com/profile_banners/1671412549/1425412714
p1498
aVhttps://pbs.twimg.com/profile_banners/750554773/1355104743
p1499
aVhttps://pbs.twimg.com/profile_banners/3137701603/1434436749
p1500
aVhttps://pbs.twimg.com/profile_banners/591538814/1453840433
p1501
aVhttps://pbs.twimg.com/profile_banners/2512580580/1400679679
p1502
aVhttps://pbs.twimg.com/profile_banners/3273167198/1436508701
p1503
aVhttps://pbs.twimg.com/profile_banners/1191133248/1361145843
p1504
aVhttps://pbs.twimg.com/profile_banners/2881536468/1431462576
p1505
aVhttps://pbs.twimg.com/profile_banners/2437806691/1401371835
p1506
aVhttps://pbs.twimg.com/profile_banners/3076443034/1428112302
p1507
aVhttps://pbs.twimg.com/profile_banners/2543905130/1401813914
p1508
aVhttps://pbs.twimg.com/profile_banners/2581478338/1402025405
p1509
aVhttps://pbs.twimg.com/profile_banners/1092835423/1358345157
p1510
aVhttps://pbs.twimg.com/profile_banners/1544122183/1373791241
p1511
aVhttps://pbs.twimg.com/profile_banners/202595140/1357063878
p1512
aVhttps://pbs.twimg.com/profile_banners/485353346/1427851778
p1513
aVhttps://pbs.twimg.com/profile_banners/803505462/1432866414
p1514
aVhttps://pbs.twimg.com/profile_banners/3291514559/1433150031
p1515
aVhttps://pbs.twimg.com/profile_banners/3037404188/1426566330
p1516
aVhttps://pbs.twimg.com/profile_banners/2919062911/1417734612
p1517
aVhttps://pbs.twimg.com/profile_banners/2499759937/1417837243
p1518
aVhttps://pbs.twimg.com/profile_banners/2310524626/1391102532
p1519
aVhttps://pbs.twimg.com/profile_banners/2150139221/1383694356
p1520
aVhttps://pbs.twimg.com/profile_banners/1801207418/1378615555
p1521
aVhttps://pbs.twimg.com/profile_banners/1360435614/1366239187
p1522
aVhttps://pbs.twimg.com/profile_banners/1350232082/1372118133
p1523
aVhttps://pbs.twimg.com/profile_banners/1311666175/1364554546
p1524
aVhttps://pbs.twimg.com/profile_banners/1287220302/1365184903
p1525
aVhttps://pbs.twimg.com/profile_banners/1276493610/1366834774
p1526
aVhttps://pbs.twimg.com/profile_banners/1265847758/1363223591
p1527
aVhttps://pbs.twimg.com/profile_banners/1263343200/1375055650
p1528
aVhttps://pbs.twimg.com/profile_banners/868993646/1362351683
p1529
aVhttps://pbs.twimg.com/profile_banners/1167112076/1360533524
p1530
aVhttps://pbs.twimg.com/profile_banners/571781868/1351606758
p1531
aVhttps://pbs.twimg.com/profile_banners/527781014/1367709440
p1532
aVhttps://pbs.twimg.com/profile_banners/1129480146/1371409901
p1533
aVhttps://pbs.twimg.com/profile_banners/485394911/1356739586
p1534
aVhttps://pbs.twimg.com/profile_banners/589415403/1349708961
p1535
aVhttps://pbs.twimg.com/profile_banners/598871466/1352670061
p1536
aVhttps://pbs.twimg.com/profile_banners/425116263/1353064512
p1537
aVhttps://pbs.twimg.com/profile_banners/580251107/1362448725
p1538
aVhttps://pbs.twimg.com/profile_banners/3039189458/1424769758
p1539
aVhttps://pbs.twimg.com/profile_banners/422917241/1413183588
p1540
aVhttps://pbs.twimg.com/profile_banners/2286113640/1422465731
p1541
aVhttps://pbs.twimg.com/profile_banners/2984682102/1426563185
p1542
aVhttps://pbs.twimg.com/profile_banners/577029827/1357870345
p1543
aVhttps://pbs.twimg.com/profile_banners/2755764525/1409401810
p1544
aVhttps://pbs.twimg.com/profile_banners/571183713/1363018615
p1545
aVhttps://pbs.twimg.com/profile_banners/1581591648/1383944785
p1546
aVhttps://pbs.twimg.com/profile_banners/374751288/1367037104
p1547
aVhttps://pbs.twimg.com/profile_banners/377619516/1382373236
p1548
aVhttps://pbs.twimg.com/profile_banners/1429540550/1372957916
p1549
aVhttps://pbs.twimg.com/profile_banners/1242482414/1362442279
p1550
aVhttps://pbs.twimg.com/profile_banners/863633760/1356640369
p1551
aVhttps://pbs.twimg.com/profile_banners/169736136/1401662266
p1552
aVhttps://pbs.twimg.com/profile_banners/465611885/1351883809
p1553
aVhttps://pbs.twimg.com/profile_banners/527952865/1443656661
p1554
aVhttps://pbs.twimg.com/profile_banners/441297264/1353126973
p1555
aVhttps://pbs.twimg.com/profile_banners/50289132/1425545747
p1556
aVhttps://pbs.twimg.com/profile_banners/2869714064/1413935651
p1557
aVhttps://pbs.twimg.com/profile_banners/1703528220/1377621117
p1558
aVhttps://pbs.twimg.com/profile_banners/1357801814/1366839253
p1559
aVhttps://pbs.twimg.com/profile_banners/2807984344/1412519738
p1560
aVhttps://pbs.twimg.com/profile_banners/2758869202/1409620976
p1561
aVhttps://pbs.twimg.com/profile_banners/2569988294/1402884186
p1562
aVhttps://pbs.twimg.com/profile_banners/2588950810/1406978625
p1563
aVhttps://pbs.twimg.com/profile_banners/2620509646/1403113546
p1564
aVhttps://pbs.twimg.com/profile_banners/2388009264/1403860627
p1565
aVhttps://pbs.twimg.com/profile_banners/2323301034/1393313705
p1566
aVhttps://pbs.twimg.com/profile_banners/1604595914/1392436180
p1567
aVhttps://pbs.twimg.com/profile_banners/1237140006/1362272571
p1568
aVhttps://pbs.twimg.com/profile_banners/572837053/1350518620
p1569
aVhttps://pbs.twimg.com/profile_banners/464750381/1389306898
p1570
aVhttps://pbs.twimg.com/profile_banners/544615174/1354302626
p1571
aVhttps://pbs.twimg.com/profile_banners/1406408839/1382632192
p1572
aVhttps://pbs.twimg.com/profile_banners/1262834149/1363150763
p1573
aVhttps://pbs.twimg.com/profile_banners/1150965235/1389547577
p1574
aVhttps://pbs.twimg.com/profile_banners/1394903346/1367513789
p1575
aVhttps://pbs.twimg.com/profile_banners/1346173184/1365754883
p1576
aVhttps://pbs.twimg.com/profile_banners/1043658852/1356751323
p1577
aVhttps://pbs.twimg.com/profile_banners/625690694/1434662446
p1578
aVhttps://pbs.twimg.com/profile_banners/1284851154/1374555709
p1579
aVhttps://pbs.twimg.com/profile_banners/1043951294/1368219239
p1580
aVhttps://pbs.twimg.com/profile_banners/1252789466/1362779406
p1581
aVhttps://pbs.twimg.com/profile_banners/1163089795/1366974498
p1582
aVhttps://pbs.twimg.com/profile_banners/1005617347/1367065340
p1583
aVhttps://pbs.twimg.com/profile_banners/1216025180/1361725957
p1584
aVhttps://pbs.twimg.com/profile_banners/983400091/1379366256
p1585
aVhttps://pbs.twimg.com/profile_banners/1170334668/1396464111
p1586
aVhttps://pbs.twimg.com/profile_banners/1141125654/1359768935
p1587
aVhttps://pbs.twimg.com/profile_banners/490770414/1399383335
p1588
aVhttps://pbs.twimg.com/profile_banners/828558637/1363293858
p1589
aVhttps://pbs.twimg.com/profile_banners/1153308649/1362433667
p1590
aVhttps://pbs.twimg.com/profile_banners/868034550/1359095872
p1591
aVhttps://pbs.twimg.com/profile_banners/738944845/1371438523
p1592
aVhttps://pbs.twimg.com/profile_banners/1109557784/1366773947
p1593
aVhttps://pbs.twimg.com/profile_banners/1096083780/1358364973
p1594
aVhttps://pbs.twimg.com/profile_banners/249683957/1358561797
p1595
aVhttps://pbs.twimg.com/profile_banners/1098443108/1358437560
p1596
aVhttps://pbs.twimg.com/profile_banners/605819289/1387114563
p1597
aVhttps://pbs.twimg.com/profile_banners/519873127/1356907907
p1598
aVhttps://pbs.twimg.com/profile_banners/987475878/1354572013
p1599
aVhttps://pbs.twimg.com/profile_banners/897186403/1350983274
p1600
aVhttps://pbs.twimg.com/profile_banners/606891028/1353941584
p1601
aVhttps://pbs.twimg.com/profile_banners/965717053/1353659615
p1602
aVhttps://pbs.twimg.com/profile_banners/621484126/1351429035
p1603
aVhttps://pbs.twimg.com/profile_banners/1014292483/1387133011
p1604
aVhttps://pbs.twimg.com/profile_banners/1012018832/1361215833
p1605
aVhttps://pbs.twimg.com/profile_banners/781608757/1348697601
p1606
aVhttps://pbs.twimg.com/profile_banners/968338976/1354198410
p1607
aVhttps://pbs.twimg.com/profile_banners/856777574/1349116959
p1608
aVhttps://pbs.twimg.com/profile_banners/998513353/1355084067
p1609
aVhttps://pbs.twimg.com/profile_banners/998353260/1355598586
p1610
aVhttps://pbs.twimg.com/profile_banners/745468003/1356321629
p1611
aVhttps://pbs.twimg.com/profile_banners/987709302/1356111495
p1612
aVhttps://pbs.twimg.com/profile_banners/1000679784/1359469571
p1613
aVhttps://pbs.twimg.com/profile_banners/1167069050/1380083516
p1614
aVhttps://pbs.twimg.com/profile_banners/1539094772/1371920532
p1615
aVhttps://pbs.twimg.com/profile_banners/1542412903/1372044670
p1616
aVhttps://pbs.twimg.com/profile_banners/1216855549/1361752158
p1617
aVhttps://pbs.twimg.com/profile_banners/1555526803/1381167868
p1618
aVhttps://pbs.twimg.com/profile_banners/2360027234/1393465865
p1619
aVhttps://pbs.twimg.com/profile_banners/541235182/1388898150
p1620
aVhttps://pbs.twimg.com/profile_banners/2226288330/1385971783
p1621
aVhttps://pbs.twimg.com/profile_banners/1978105897/1382348749
p1622
aVhttps://pbs.twimg.com/profile_banners/1649556524/1377410268
p1623
aVhttps://pbs.twimg.com/profile_banners/1226341880/1362532323
p1624
aVhttps://pbs.twimg.com/profile_banners/1090180262/1358198354
p1625
aVhttps://pbs.twimg.com/profile_banners/982178528/1354353996
p1626
aVhttps://pbs.twimg.com/profile_banners/880363676/1376703393
p1627
aVhttps://pbs.twimg.com/profile_banners/1158232243/1362153140
p1628
aVhttps://pbs.twimg.com/profile_banners/2148056071/1386256797
p1629
aVhttps://pbs.twimg.com/profile_banners/1849095524/1378753297
p1630
aVhttps://pbs.twimg.com/profile_banners/1666187750/1376347618
p1631
aVhttps://pbs.twimg.com/profile_banners/1663619490/1376285689
p1632
aVhttps://pbs.twimg.com/profile_banners/2547375732/1443539411
p1633
aVhttps://pbs.twimg.com/profile_banners/4847485653/1453852723
p1634
aVhttps://pbs.twimg.com/profile_banners/3544304538/1448373375
p1635
aVhttps://pbs.twimg.com/profile_banners/1215873420/1361723195
p1636
aVhttps://pbs.twimg.com/profile_banners/944968340/1353858795
p1637
aVhttps://pbs.twimg.com/profile_banners/818117258/1351395567
p1638
aVhttps://pbs.twimg.com/profile_banners/730218948/1356675507
p1639
aVhttps://pbs.twimg.com/profile_banners/711430106/1357135102
p1640
aVhttps://pbs.twimg.com/profile_banners/922568700/1351923797
p1641
aVhttps://pbs.twimg.com/profile_banners/868931138/1349919134
p1642
aVhttps://pbs.twimg.com/profile_banners/726982003/1362247652
p1643
aVhttps://pbs.twimg.com/profile_banners/887591395/1350514465
p1644
aVhttps://pbs.twimg.com/profile_banners/888051031/1350532498
p1645
aVhttps://pbs.twimg.com/profile_banners/543750643/1359038833
p1646
aVhttps://pbs.twimg.com/profile_banners/855692065/1355194419
p1647
aVhttps://pbs.twimg.com/profile_banners/614174044/1359894043
p1648
aVhttps://pbs.twimg.com/profile_banners/1270780170/1377393312
p1649
aVhttps://pbs.twimg.com/profile_banners/1480726136/1380851484
p1650
aVhttps://pbs.twimg.com/profile_banners/2246248760/1387061684
p1651
aVhttps://pbs.twimg.com/profile_banners/1835184529/1378678159
p1652
aVhttps://pbs.twimg.com/profile_banners/1255558904/1424579875
p1653
aVhttps://pbs.twimg.com/profile_banners/1676439470/1386550529
p1654
aVhttps://pbs.twimg.com/profile_banners/1115199888/1358981614
p1655
aVhttps://pbs.twimg.com/profile_banners/1058321360/1357234322
p1656
aVhttps://pbs.twimg.com/profile_banners/2192694343/1384365768
p1657
aVhttps://pbs.twimg.com/profile_banners/1132106761/1361636069
p1658
aVhttps://pbs.twimg.com/profile_banners/885010603/1350419541
p1659
aVhttps://pbs.twimg.com/profile_banners/947234744/1354169212
p1660
aVhttps://pbs.twimg.com/profile_banners/752161386/1350669230
p1661
aVhttps://pbs.twimg.com/profile_banners/840528703/1352392025
p1662
aVhttps://pbs.twimg.com/profile_banners/536412691/1349900379
p1663
aVhttps://pbs.twimg.com/profile_banners/1036767950/1381378315
p1664
aVhttps://pbs.twimg.com/profile_banners/1112914692/1360980425
p1665
aVhttps://pbs.twimg.com/profile_banners/612860107/1349140749
p1666
aVhttps://pbs.twimg.com/profile_banners/1068718476/1368308446
p1667
aVhttps://pbs.twimg.com/profile_banners/1125629090/1361206439
p1668
aVhttps://pbs.twimg.com/profile_banners/1092460154/1358265001
p1669
aVhttps://pbs.twimg.com/profile_banners/2526602339/1399494580
p1670
aVhttps://pbs.twimg.com/profile_banners/2218955152/1386742709
p1671
aVhttps://pbs.twimg.com/profile_banners/1890139376/1380774077
p1672
aVhttps://pbs.twimg.com/profile_banners/1936079324/1388958647
p1673
aVhttps://pbs.twimg.com/profile_banners/1516909994/1371227793
p1674
aVhttps://pbs.twimg.com/profile_banners/1058088361/1357353095
p1675
aVhttps://pbs.twimg.com/profile_banners/896630940/1361244605
p1676
aVhttps://pbs.twimg.com/profile_banners/2515416862/1453084540
p1677
aVhttps://pbs.twimg.com/profile_banners/710783735/1390576638
p1678
aVhttps://pbs.twimg.com/profile_banners/2271850077/1389313261
p1679
aVhttps://pbs.twimg.com/profile_banners/1564919389/1372828639
p1680
aVhttps://pbs.twimg.com/profile_banners/271724422/1384235192
p1681
aVhttps://pbs.twimg.com/profile_banners/1420982640/1368405539
p1682
aVhttps://pbs.twimg.com/profile_banners/1106566076/1385273976
p1683
aVhttps://pbs.twimg.com/profile_banners/1115093809/1367060680
p1684
aVhttps://pbs.twimg.com/profile_banners/1053520177/1357101903
p1685
aVhttps://pbs.twimg.com/profile_banners/803661224/1403151737
p1686
aVhttps://pbs.twimg.com/profile_banners/495786727/1391975892
p1687
aVhttps://pbs.twimg.com/profile_banners/417601230/1350414653
p1688
aVhttps://pbs.twimg.com/profile_banners/513468982/1415256027
p1689
aVhttps://pbs.twimg.com/profile_banners/28343922/1361204441
p1690
aVhttps://pbs.twimg.com/profile_banners/2681285687/1404733040
p1691
aVhttps://pbs.twimg.com/profile_banners/1699680188/1398613959
p1692
aVhttps://pbs.twimg.com/profile_banners/2478537955/1401839594
p1693
aVhttps://pbs.twimg.com/profile_banners/2832384698/1411693256
p1694
aVhttps://pbs.twimg.com/profile_banners/3419007581/1439433342
p1695
aVhttps://pbs.twimg.com/profile_banners/1262967985/1385051911
p1696
aVhttps://pbs.twimg.com/profile_banners/1220105269/1384032119
p1697
aVhttps://pbs.twimg.com/profile_banners/1424235312/1403318989
p1698
aVhttps://pbs.twimg.com/profile_banners/1936060656/1381087783
p1699
aVhttps://pbs.twimg.com/profile_banners/2832594023/1413403082
p1700
aVhttps://pbs.twimg.com/profile_banners/2799400473/1412228671
p1701
aVhttps://pbs.twimg.com/profile_banners/2566281299/1404086292
p1702
aVhttps://pbs.twimg.com/profile_banners/1858498280/1379019419
p1703
aVhttps://pbs.twimg.com/profile_banners/2427864801/1395445212
p1704
aVhttps://pbs.twimg.com/profile_banners/1747573494/1393287448
p1705
aVhttps://pbs.twimg.com/profile_banners/2293065457/1389808827
p1706
aVhttps://pbs.twimg.com/profile_banners/1478994769/1388680884
p1707
aVhttps://pbs.twimg.com/profile_banners/2210107136/1385267485
p1708
aVhttps://pbs.twimg.com/profile_banners/1626817148/1374983600
p1709
aVhttps://pbs.twimg.com/profile_banners/1963480580/1385829804
p1710
aVhttps://pbs.twimg.com/profile_banners/1872304567/1380229289
p1711
aVhttps://pbs.twimg.com/profile_banners/1741366406/1378533132
p1712
aVhttps://pbs.twimg.com/profile_banners/1627034857/1378084760
p1713
aVhttps://pbs.twimg.com/profile_banners/1651974306/1376952192
p1714
aVhttps://pbs.twimg.com/profile_banners/1646389394/1375660752
p1715
aVhttps://pbs.twimg.com/profile_banners/1631207970/1375264410
p1716
aVhttps://pbs.twimg.com/profile_banners/1449754903/1369251768
p1717
aVhttps://pbs.twimg.com/profile_banners/1616971543/1374647239
p1718
aVhttps://pbs.twimg.com/profile_banners/1523620140/1371433396
p1719
aVhttps://pbs.twimg.com/profile_banners/1511163823/1371433036
p1720
aVhttps://pbs.twimg.com/profile_banners/1477835533/1445823641
p1721
aVhttps://pbs.twimg.com/profile_banners/1578635767/1378289526
p1722
aVhttps://pbs.twimg.com/profile_banners/1543978032/1372108461
p1723
aVhttps://pbs.twimg.com/profile_banners/1549086632/1372280486
p1724
aVhttps://pbs.twimg.com/profile_banners/1426813650/1373090266
p1725
aVhttps://pbs.twimg.com/profile_banners/1473286188/1370198628
p1726
aVhttps://pbs.twimg.com/profile_banners/1418779722/1391372849
p1727
aVhttps://pbs.twimg.com/profile_banners/1494609786/1370779006
p1728
aVhttps://pbs.twimg.com/profile_banners/1482574939/1371877809
p1729
aVhttps://pbs.twimg.com/profile_banners/1092866912/1367314466
p1730
aVhttps://pbs.twimg.com/profile_banners/29292831/1369800411
p1731
aVhttps://pbs.twimg.com/profile_banners/1436581116/1368856929
p1732
aVhttps://pbs.twimg.com/profile_banners/1347840504/1371509153
p1733
aVhttps://pbs.twimg.com/profile_banners/1324544606/1364996818
p1734
aVhttps://pbs.twimg.com/profile_banners/948837505/1413604921
p1735
aVhttps://pbs.twimg.com/profile_banners/968766896/1353954993
p1736
aVhttps://pbs.twimg.com/profile_banners/1328036587/1365196449
p1737
aVhttps://pbs.twimg.com/profile_banners/1371950744/1366634991
p1738
aVhttps://pbs.twimg.com/profile_banners/1170937980/1361162439
p1739
aVhttps://pbs.twimg.com/profile_banners/1317485712/1366673535
p1740
aVhttps://pbs.twimg.com/profile_banners/1038138852/1379276094
p1741
aVhttps://pbs.twimg.com/profile_banners/1337942389/1365468213
p1742
aVhttps://pbs.twimg.com/profile_banners/1315426032/1366647978
p1743
aVhttps://pbs.twimg.com/profile_banners/1235093887/1365895323
p1744
aVhttps://pbs.twimg.com/profile_banners/629937951/1353984010
p1745
aVhttps://pbs.twimg.com/profile_banners/1069395427/1357599816
p1746
aVhttps://pbs.twimg.com/profile_banners/1109782849/1358794271
p1747
aVhttps://pbs.twimg.com/profile_banners/1066666573/1357505703
p1748
aVhttps://pbs.twimg.com/profile_banners/1021060958/1355880970
p1749
aVhttps://pbs.twimg.com/profile_banners/949944188/1360813002
p1750
aVhttps://pbs.twimg.com/profile_banners/977461652/1354158103
p1751
aVhttps://pbs.twimg.com/profile_banners/983672646/1354455001
p1752
aVhttps://pbs.twimg.com/profile_banners/862394155/1353820787
p1753
aVhttps://pbs.twimg.com/profile_banners/968380735/1353777795
p1754
aVhttps://pbs.twimg.com/profile_banners/629660421/1352311235
p1755
aVhttps://pbs.twimg.com/profile_banners/956160307/1353270797
p1756
aVhttps://pbs.twimg.com/profile_banners/833937307/1353539217
p1757
aVhttps://pbs.twimg.com/profile_banners/904365414/1359512157
p1758
aVhttps://pbs.twimg.com/profile_banners/896185477/1355775578
p1759
aVhttps://pbs.twimg.com/profile_banners/937423206/1400591174
p1760
aVhttps://pbs.twimg.com/profile_banners/617373102/1354548099
p1761
aVhttps://pbs.twimg.com/profile_banners/829384190/1351165421
p1762
aVhttps://pbs.twimg.com/profile_banners/711552756/1350240586
p1763
aVhttps://pbs.twimg.com/profile_banners/762400112/1348355004
p1764
aVhttps://pbs.twimg.com/profile_banners/848541625/1348981575
p1765
aVhttps://pbs.twimg.com/profile_banners/486287911/1358439080
p1766
aVhttps://pbs.twimg.com/profile_banners/2886089921/1416722752
p1767
aVhttps://pbs.twimg.com/profile_banners/2652077992/1404704830
p1768
aVhttps://pbs.twimg.com/profile_banners/2322890492/1391292947
p1769
aVhttps://pbs.twimg.com/profile_banners/1493068417/1370701776
p1770
aVhttps://pbs.twimg.com/profile_banners/1468415762/1369867723
p1771
aVhttps://pbs.twimg.com/profile_banners/1000695744/1355107722
p1772
aVhttps://pbs.twimg.com/profile_banners/1236228806/1362453508
p1773
aVhttps://pbs.twimg.com/profile_banners/1219925600/1373924553
p1774
aVhttps://pbs.twimg.com/profile_banners/498116924/1360017038
p1775
aVhttps://pbs.twimg.com/profile_banners/1720942249/1401161308
p1776
aVhttps://pbs.twimg.com/profile_banners/1509472267/1397710364
p1777
aVhttps://pbs.twimg.com/profile_banners/1059185647/1381420331
p1778
aVhttps://pbs.twimg.com/profile_banners/1676788364/1377632673
p1779
aVhttps://pbs.twimg.com/profile_banners/1616932111/1374645663
p1780
aVhttps://pbs.twimg.com/profile_banners/1729131446/1378313201
p1781
aVhttps://pbs.twimg.com/profile_banners/2859363644/1413519148
p1782
aVhttps://pbs.twimg.com/profile_banners/2775324664/1411121688
p1783
aVhttps://pbs.twimg.com/profile_banners/2804647988/1410487348
p1784
aVhttps://pbs.twimg.com/profile_banners/2768966151/1415544816
p1785
aVhttps://pbs.twimg.com/profile_banners/2781275346/1409443983
p1786
aVhttps://pbs.twimg.com/profile_banners/1475053777/1370102584
p1787
aVhttps://pbs.twimg.com/profile_banners/1411792002/1367995173
p1788
aVhttps://pbs.twimg.com/profile_banners/1494548838/1370750307
p1789
aVhttps://pbs.twimg.com/profile_banners/1315311936/1371055803
p1790
aVhttps://pbs.twimg.com/profile_banners/1369758757/1398699840
p1791
aVhttps://pbs.twimg.com/profile_banners/2835331248/1411935919
p1792
aVhttps://pbs.twimg.com/profile_banners/1373789828/1369884317
p1793
aVhttps://pbs.twimg.com/profile_banners/2236152529/1386515313
p1794
aVhttps://pbs.twimg.com/profile_banners/1627589402/1375007985
p1795
aVhttps://pbs.twimg.com/profile_banners/1437817220/1368867805
p1796
aVhttps://pbs.twimg.com/profile_banners/1379566579/1366900132
p1797
aVhttps://pbs.twimg.com/profile_banners/792951848/1348719186
p1798
aVhttps://pbs.twimg.com/profile_banners/862025389/1349903467
p1799
aVhttps://pbs.twimg.com/profile_banners/3800987895/1443591435
p1800
aVhttps://pbs.twimg.com/profile_banners/2301994285/1390250788
p1801
aVhttps://pbs.twimg.com/profile_banners/1705656697/1379803942
p1802
aVhttps://pbs.twimg.com/profile_banners/1465547966/1369771066
p1803
aVhttps://pbs.twimg.com/profile_banners/1244503442/1362513604
p1804
aVhttps://pbs.twimg.com/profile_banners/3920072116/1444578506
p1805
aVhttps://pbs.twimg.com/profile_banners/2267967749/1389146664
p1806
aVhttps://pbs.twimg.com/profile_banners/1551911419/1410311628
p1807
aVhttps://pbs.twimg.com/profile_banners/3432406367/1440048030
p1808
aVhttps://pbs.twimg.com/profile_banners/540444164/1432979173
p1809
aVhttps://pbs.twimg.com/profile_banners/2587595689/1445799344
p1810
aVhttps://pbs.twimg.com/profile_banners/2316862784/1390989671
p1811
aVhttps://pbs.twimg.com/profile_banners/4420051396/1454364119
p1812
aVhttps://pbs.twimg.com/profile_banners/3003020278/1424777719
p1813
aVhttps://pbs.twimg.com/profile_banners/3191541830/1431308044
p1814
aVhttps://pbs.twimg.com/profile_banners/4555431556/1450689244
p1815
aVhttps://pbs.twimg.com/profile_banners/2764988475/1410207216
p1816
aVhttps://pbs.twimg.com/profile_banners/1375355779/1366860593
p1817
aVhttps://pbs.twimg.com/profile_banners/633961506/1348168828
p1818
aVhttps://pbs.twimg.com/profile_banners/1273217844/1454749068
p1819
aVhttps://pbs.twimg.com/profile_banners/1375680643/1371845567
p1820
aVhttps://pbs.twimg.com/profile_banners/2847424523/1414451930
p1821
aVhttps://pbs.twimg.com/profile_banners/2910409393/1424250381
p1822
aVhttps://pbs.twimg.com/profile_banners/2885094923/1416682270
p1823
aVhttps://pbs.twimg.com/profile_banners/2824684680/1411321935
p1824
aVhttps://pbs.twimg.com/profile_banners/2787877928/1409747172
p1825
aVhttps://pbs.twimg.com/profile_banners/2639297030/1410388076
p1826
aVhttps://pbs.twimg.com/profile_banners/2667695337/1406829759
p1827
aVhttps://pbs.twimg.com/profile_banners/2749915317/1408676969
p1828
aVhttps://pbs.twimg.com/profile_banners/2633990167/1405214828
p1829
aVhttps://pbs.twimg.com/profile_banners/2652121846/1404014625
p1830
aVhttps://pbs.twimg.com/profile_banners/2468939646/1398759405
p1831
aVhttps://pbs.twimg.com/profile_banners/2319952478/1391130745
p1832
aVhttps://pbs.twimg.com/profile_banners/1260508069/1363041048
p1833
aVhttps://pbs.twimg.com/profile_banners/1132427256/1405902319
p1834
aVhttps://pbs.twimg.com/profile_banners/2309027036/1391123944
p1835
aVhttps://pbs.twimg.com/profile_banners/2277213463/1399340302
p1836
aVhttps://pbs.twimg.com/profile_banners/2258428749/1393203886
p1837
aVhttps://pbs.twimg.com/profile_banners/2202194285/1391117693
p1838
aVhttps://pbs.twimg.com/profile_banners/2204726011/1384947035
p1839
aVhttps://pbs.twimg.com/profile_banners/2181141389/1384461399
p1840
aVhttps://pbs.twimg.com/profile_banners/2185603933/1384058810
p1841
aVhttps://pbs.twimg.com/profile_banners/2174118947/1384062945
p1842
aVhttps://pbs.twimg.com/profile_banners/2155302546/1382721141
p1843
aVhttps://pbs.twimg.com/profile_banners/1309874803/1407239614
p1844
aVhttps://pbs.twimg.com/profile_banners/1675281260/1376645193
p1845
aVhttps://pbs.twimg.com/profile_banners/1664077458/1376286591
p1846
aVhttps://pbs.twimg.com/profile_banners/1645422422/1375630689
p1847
aVhttps://pbs.twimg.com/profile_banners/1637494225/1375345688
p1848
aVhttps://pbs.twimg.com/profile_banners/1381643492/1375290242
p1849
aVhttps://pbs.twimg.com/profile_banners/1626928422/1374986242
p1850
aVhttps://pbs.twimg.com/profile_banners/1618630518/1387347141
p1851
aVhttps://pbs.twimg.com/profile_banners/1611562718/1374449790
p1852
aVhttps://pbs.twimg.com/profile_banners/1044088940/1365534484
p1853
aVhttps://pbs.twimg.com/profile_banners/1565234718/1377832871
p1854
aVhttps://pbs.twimg.com/profile_banners/1551875894/1385866309
p1855
aVhttps://pbs.twimg.com/profile_banners/1494344594/1372382033
p1856
aVhttps://pbs.twimg.com/profile_banners/1450695630/1369371171
p1857
aVhttps://pbs.twimg.com/profile_banners/1444925286/1369129646
p1858
aVhttps://pbs.twimg.com/profile_banners/1445144167/1395577184
p1859
aVhttps://pbs.twimg.com/profile_banners/1442157434/1372091153
p1860
aVhttps://pbs.twimg.com/profile_banners/1440251791/1368939791
p1861
aVhttps://pbs.twimg.com/profile_banners/1393558884/1367374303
p1862
aVhttps://pbs.twimg.com/profile_banners/1394873426/1367506465
p1863
aVhttps://pbs.twimg.com/profile_banners/1084528706/1367381329
p1864
aVhttps://pbs.twimg.com/profile_banners/1380655394/1366933673
p1865
aVhttps://pbs.twimg.com/profile_banners/1210369526/1365771851
p1866
aVhttps://pbs.twimg.com/profile_banners/1018479180/1355784731
p1867
aVhttps://pbs.twimg.com/profile_banners/1330866032/1365231052
p1868
aVhttps://pbs.twimg.com/profile_banners/1273328341/1363523896
p1869
aVhttps://pbs.twimg.com/profile_banners/1219161024/1361993201
p1870
aVhttps://pbs.twimg.com/profile_banners/239858007/1361909723
p1871
aVhttps://pbs.twimg.com/profile_banners/1161649700/1360373655
p1872
aVhttps://pbs.twimg.com/profile_banners/1164859723/1360468875
p1873
aVhttps://pbs.twimg.com/profile_banners/1153557691/1360186604
p1874
aVhttps://pbs.twimg.com/profile_banners/1149775609/1360033822
p1875
aVhttps://pbs.twimg.com/profile_banners/946888458/1352859537
p1876
aVhttps://pbs.twimg.com/profile_banners/704453520/1348814043
p1877
aVhttps://pbs.twimg.com/profile_banners/1120674192/1359164244
p1878
aVhttps://pbs.twimg.com/profile_banners/1097304092/1363677790
p1879
aVhttps://pbs.twimg.com/profile_banners/1041450115/1356840728
p1880
aVhttps://pbs.twimg.com/profile_banners/1036837914/1356536874
p1881
aVhttps://pbs.twimg.com/profile_banners/790440870/1380408755
p1882
aVhttps://pbs.twimg.com/profile_banners/847773426/1380989354
p1883
aVhttps://pbs.twimg.com/profile_banners/820782362/1355606034
p1884
aVhttps://pbs.twimg.com/profile_banners/955919994/1353262630
p1885
aVhttps://pbs.twimg.com/profile_banners/915331064/1351628413
p1886
aVhttps://pbs.twimg.com/profile_banners/955674498/1353253003
p1887
aVhttps://pbs.twimg.com/profile_banners/907621428/1352320646
p1888
aVhttps://pbs.twimg.com/profile_banners/869214949/1349757635
p1889
aVhttps://pbs.twimg.com/profile_banners/826018448/1391291676
p1890
aVhttps://pbs.twimg.com/profile_banners/739913432/1353956580
p1891
aVhttps://pbs.twimg.com/profile_banners/713504342/1389975129
p1892
aVhttps://pbs.twimg.com/profile_banners/872387526/1363270424
p1893
aVhttps://pbs.twimg.com/profile_banners/623674031/1372311783
p1894
aVhttps://pbs.twimg.com/profile_banners/4818062473/1453837243
p1895
aVhttps://pbs.twimg.com/profile_banners/4585928057/1450934628
p1896
aVhttps://pbs.twimg.com/profile_banners/2247847591/1388617524
p1897
aVhttps://pbs.twimg.com/profile_banners/2172964410/1383522134
p1898
aVhttps://pbs.twimg.com/profile_banners/2657362720/1404156573
p1899
aVhttps://pbs.twimg.com/profile_banners/2961135953/1420414636
p1900
aVhttps://pbs.twimg.com/profile_banners/2598361547/1402421737
p1901
aVhttps://pbs.twimg.com/profile_banners/2290064037/1391393211
p1902
aVhttps://pbs.twimg.com/profile_banners/1639645842/1375422086
p1903
aVhttps://pbs.twimg.com/profile_banners/1676294779/1378060452
p1904
aVhttps://pbs.twimg.com/profile_banners/1684259737/1377296620
p1905
aVhttps://pbs.twimg.com/profile_banners/1662983852/1376239773
p1906
aVhttps://pbs.twimg.com/profile_banners/1650789523/1375809453
p1907
aVhttps://pbs.twimg.com/profile_banners/596887030/1375346907
p1908
aVhttps://pbs.twimg.com/profile_banners/1614340334/1387258584
p1909
aVhttps://pbs.twimg.com/profile_banners/1613763469/1374531236
p1910
aVhttps://pbs.twimg.com/profile_banners/1594361515/1374010430
p1911
aVhttps://pbs.twimg.com/profile_banners/1564188158/1372802384
p1912
aVhttps://pbs.twimg.com/profile_banners/1525816806/1375990697
p1913
aVhttps://pbs.twimg.com/profile_banners/1371052694/1366597916
p1914
aVhttps://pbs.twimg.com/profile_banners/1418975394/1368260983
p1915
aVhttps://pbs.twimg.com/profile_banners/1337362218/1368158001
p1916
aVhttps://pbs.twimg.com/profile_banners/1385256074/1368982117
p1917
aVhttps://pbs.twimg.com/profile_banners/896627120/1352763423
p1918
aVhttps://pbs.twimg.com/profile_banners/1316495718/1365117411
p1919
aVhttps://pbs.twimg.com/profile_banners/1321470180/1364871629
p1920
aVhttps://pbs.twimg.com/profile_banners/1284712650/1363829874
p1921
aVhttps://pbs.twimg.com/profile_banners/1066066496/1361292133
p1922
aVhttps://pbs.twimg.com/profile_banners/1151646572/1360089299
p1923
aVhttps://pbs.twimg.com/profile_banners/987473256/1357654035
p1924
aVhttps://pbs.twimg.com/profile_banners/1051616929/1362926974
p1925
aVhttps://pbs.twimg.com/profile_banners/1032115280/1356334687
p1926
aVhttps://pbs.twimg.com/profile_banners/3290222050/1432051690
p1927
aVhttps://pbs.twimg.com/profile_banners/926614886/1352086403
p1928
aVhttps://pbs.twimg.com/profile_banners/925861524/1352063597
p1929
aVhttps://pbs.twimg.com/profile_banners/266412686/1418189253
p1930
aVhttps://pbs.twimg.com/profile_banners/360279454/1352224449
p1931
aVhttps://pbs.twimg.com/profile_banners/609373169/1359065551
p1932
aVhttps://pbs.twimg.com/profile_banners/1393675597/1367493013
p1933
aVhttps://pbs.twimg.com/profile_banners/356980049/1374157646
p1934
aVhttps://pbs.twimg.com/profile_banners/928538515/1362946113
p1935
aVhttps://pbs.twimg.com/profile_banners/2922376435/1418017600
p1936
aVhttps://pbs.twimg.com/profile_banners/919404282/1358030499
p1937
aVhttps://pbs.twimg.com/profile_banners/4221396208/1447894049
p1938
aVhttps://pbs.twimg.com/profile_banners/3146352405/1428465888
p1939
aVhttps://pbs.twimg.com/profile_banners/2497295692/1398063769
p1940
aVhttps://pbs.twimg.com/profile_banners/1717661756/1378011049
p1941
aVhttps://pbs.twimg.com/profile_banners/1325781030/1365038809
p1942
aVhttps://pbs.twimg.com/profile_banners/4571467475/1450819026
p1943
aVhttps://pbs.twimg.com/profile_banners/1090679450/1358213769
p1944
aVhttps://pbs.twimg.com/profile_banners/2223419558/1385830821
p1945
aVhttps://pbs.twimg.com/profile_banners/860272520/1349299074
p1946
aVhttps://pbs.twimg.com/profile_banners/858178896/1349190657
p1947
aVhttps://pbs.twimg.com/profile_banners/2461828762/1411592866
p1948
aVhttps://pbs.twimg.com/profile_banners/2615304280/1402955003
p1949
aVhttps://pbs.twimg.com/profile_banners/1383450433/1367522698
p1950
aVhttps://pbs.twimg.com/profile_banners/826043694/1349905055
p1951
aVhttps://pbs.twimg.com/profile_banners/2844303053/1414274143
p1952
aVhttps://pbs.twimg.com/profile_banners/1948009585/1388368642
p1953
aVhttps://pbs.twimg.com/profile_banners/1478405022/1370216032
p1954
aVhttps://pbs.twimg.com/profile_banners/1447051602/1369166054
p1955
aVhttps://pbs.twimg.com/profile_banners/1438835546/1368897181
p1956
aVhttps://pbs.twimg.com/profile_banners/428221134/1359502851
p1957
aVhttps://pbs.twimg.com/profile_banners/1148359022/1360017201
p1958
aVhttps://pbs.twimg.com/profile_banners/1033407648/1356390048
p1959
aVhttps://pbs.twimg.com/profile_banners/913847342/1355713197
p1960
aVhttps://pbs.twimg.com/profile_banners/801436332/1352782218
p1961
aVhttps://pbs.twimg.com/profile_banners/2344136867/1392601541
p1962
aVhttps://pbs.twimg.com/profile_banners/1524458455/1378609777
p1963
aVhttps://pbs.twimg.com/profile_banners/1611652716/1374455108
p1964
aVhttps://pbs.twimg.com/profile_banners/1558915596/1372626811
p1965
aVhttps://pbs.twimg.com/profile_banners/1343526632/1365656279
p1966
aVhttps://pbs.twimg.com/profile_banners/1272353966/1363443030
p1967
aVhttps://pbs.twimg.com/profile_banners/1082533717/1357987625
p1968
aVhttps://pbs.twimg.com/profile_banners/951219728/1353054892
p1969
aVhttps://pbs.twimg.com/profile_banners/611401123/1348336752
p1970
aVhttps://pbs.twimg.com/profile_banners/3108671443/1452671764
p1971
aVhttps://pbs.twimg.com/profile_banners/2900162584/1417405648
p1972
aVhttps://pbs.twimg.com/profile_banners/2757865149/1409546754
p1973
aVhttps://pbs.twimg.com/profile_banners/2369416507/1393826741
p1974
aVhttps://pbs.twimg.com/profile_banners/1594832635/1385695198
p1975
aVhttps://pbs.twimg.com/profile_banners/1230233431/1364176425
p1976
aVhttps://pbs.twimg.com/profile_banners/100041653/1437959180
p1977
aVhttps://pbs.twimg.com/profile_banners/852170210/1349382274
p1978
aVhttps://pbs.twimg.com/profile_banners/2194740089/1385333952
p1979
aVhttps://pbs.twimg.com/profile_banners/2177652245/1384225341
p1980
aVhttps://pbs.twimg.com/profile_banners/1892359488/1379832923
p1981
aVhttps://pbs.twimg.com/profile_banners/1494402829/1373834706
p1982
aVhttps://pbs.twimg.com/profile_banners/448481066/1361591498
p1983
aVhttps://pbs.twimg.com/profile_banners/635855193/1350363118
p1984
aVhttps://pbs.twimg.com/profile_banners/899052614/1383721118
p1985
aVhttps://pbs.twimg.com/profile_banners/2386355011/1394686737
p1986
aVhttps://pbs.twimg.com/profile_banners/2463890682/1398477228
p1987
aVhttps://pbs.twimg.com/profile_banners/2432193296/1396884405
p1988
aVhttps://pbs.twimg.com/profile_banners/990026851/1388117458
p1989
aVhttps://pbs.twimg.com/profile_banners/1324452799/1368455135
p1990
aVhttps://pbs.twimg.com/profile_banners/790085935/1359804233
p1991
aVhttps://pbs.twimg.com/profile_banners/788392950/1358112283
p1992
aVhttps://pbs.twimg.com/profile_banners/2890068930/1415152540
p1993
aVhttps://pbs.twimg.com/profile_banners/2349343563/1392850859
p1994
aVhttps://pbs.twimg.com/profile_banners/800513372/1356993149
p1995
aVhttps://pbs.twimg.com/profile_banners/1221272838/1363832264
p1996
aVhttps://pbs.twimg.com/profile_banners/1636706628/1375439627
p1997
aVhttps://pbs.twimg.com/profile_banners/598763468/1357101151
p1998
aVhttps://pbs.twimg.com/profile_banners/477487981/1404949151
p1999
aVhttps://pbs.twimg.com/profile_banners/1595881669/1384921665
p2000
aVhttps://pbs.twimg.com/profile_banners/3406093127/1438888618
p2001
aVhttps://pbs.twimg.com/profile_banners/2964401227/1420778276
p2002
aVhttps://pbs.twimg.com/profile_banners/801756830/1356853131
p2003
aVhttps://pbs.twimg.com/profile_banners/700285513/1367553544
p2004
aVhttps://pbs.twimg.com/profile_banners/2182195731/1387117289
p2005
aVhttps://pbs.twimg.com/profile_banners/1230090788/1401679986
p2006
aVhttps://pbs.twimg.com/profile_banners/2573343079/1403028616
p2007
aVhttps://pbs.twimg.com/profile_banners/1152494461/1364690493
p2008
aVhttps://pbs.twimg.com/profile_banners/997831939/1354997305
p2009
aVhttps://pbs.twimg.com/profile_banners/1439583121/1383104530
p2010
aVhttps://pbs.twimg.com/profile_banners/1631598781/1375586229
p2011
aVhttps://pbs.twimg.com/profile_banners/1554378218/1372466840
p2012
aVhttps://pbs.twimg.com/profile_banners/1358052720/1366154052
p2013
aVhttps://pbs.twimg.com/profile_banners/1473542239/1377372083
p2014
aVhttps://pbs.twimg.com/profile_banners/1015288201/1364664898
p2015
aVhttps://pbs.twimg.com/profile_banners/274273805/1361347401
p2016
aVhttps://pbs.twimg.com/profile_banners/971113501/1353893501
p2017
aVhttps://pbs.twimg.com/profile_banners/817769142/1353380006
p2018
aVhttps://pbs.twimg.com/profile_banners/1134725642/1396883967
p2019
aVhttps://pbs.twimg.com/profile_banners/881280961/1366477310
p2020
aVhttps://pbs.twimg.com/profile_banners/596648469/1372922408
p2021
aVhttps://pbs.twimg.com/profile_banners/886193125/1350453787
p2022
aVhttps://pbs.twimg.com/profile_banners/961826719/1353478168
p2023
aVhttps://pbs.twimg.com/profile_banners/789606505/1355712232
p2024
aVhttps://pbs.twimg.com/profile_banners/1375107974/1375167424
p2025
aVhttps://pbs.twimg.com/profile_banners/2205951990/1384996299
p2026
aVhttps://pbs.twimg.com/profile_banners/368160862/1369263755
p2027
aVhttps://pbs.twimg.com/profile_banners/1566309564/1372874407
p2028
aVhttps://pbs.twimg.com/profile_banners/2906618397/1417803524
p2029
aVhttps://pbs.twimg.com/profile_banners/1935303577/1420906843
p2030
aVhttps://pbs.twimg.com/profile_banners/985511070/1354489786
p2031
aVhttps://pbs.twimg.com/profile_banners/1612048418/1374471150
p2032
aVhttps://pbs.twimg.com/profile_banners/1890680532/1379991635
p2033
aVhttps://pbs.twimg.com/profile_banners/2752943489/1409185043
p2034
aVhttps://pbs.twimg.com/profile_banners/2418451640/1397445582
p2035
aVhttps://pbs.twimg.com/profile_banners/933582151/1352777079
p2036
aVhttps://pbs.twimg.com/profile_banners/1763957509/1379792658
p2037
aVhttps://pbs.twimg.com/profile_banners/1287714392/1363926973
p2038
aVhttps://pbs.twimg.com/profile_banners/1099388364/1360734735
p2039
aVhttps://pbs.twimg.com/profile_banners/2223704572/1386953865
p2040
aVhttps://pbs.twimg.com/profile_banners/1195999645/1361251930
p2041
aVhttps://pbs.twimg.com/profile_banners/1301391540/1364251076
p2042
aVhttps://pbs.twimg.com/profile_banners/424295674/1354313903
p2043
aVhttps://pbs.twimg.com/profile_banners/1080403428/1357927518
p2044
aVhttps://pbs.twimg.com/profile_banners/966517099/1361593981
p2045
aVhttps://pbs.twimg.com/profile_banners/966977184/1356498760
p2046
aVhttps://pbs.twimg.com/profile_banners/1226464351/1362055354
p2047
aVhttps://pbs.twimg.com/profile_banners/1426067660/1368471084
p2048
aVhttps://pbs.twimg.com/profile_banners/1672793221/1376623262
p2049
aVhttps://pbs.twimg.com/profile_banners/1244617464/1438194721
p2050
aVhttps://pbs.twimg.com/profile_banners/1305283580/1390778802
p2051
aVhttps://pbs.twimg.com/profile_banners/1074596952/1357760163
p2052
aVhttps://pbs.twimg.com/profile_banners/1276255952/1372137447
p2053
aVhttps://pbs.twimg.com/profile_banners/1390982726/1385508468
p2054
aVhttps://pbs.twimg.com/profile_banners/1560524234/1372698288
p2055
aVhttps://pbs.twimg.com/profile_banners/1318552897/1364742669
p2056
aVhttps://pbs.twimg.com/profile_banners/1067471041/1385714349
p2057
aVhttps://pbs.twimg.com/profile_banners/923329694/1352738676
p2058
aVhttps://pbs.twimg.com/profile_banners/625788529/1454267131
p2059
aVhttps://pbs.twimg.com/profile_banners/896386231/1351779987
p2060
aVhttps://pbs.twimg.com/profile_banners/2457973198/1396549871
p2061
aVhttps://pbs.twimg.com/profile_banners/1257657252/1362941371
p2062
aVhttps://pbs.twimg.com/profile_banners/2525128620/1401115475
p2063
aVhttps://pbs.twimg.com/profile_banners/1049261317/1357150012
p2064
aVhttps://pbs.twimg.com/profile_banners/35010118/1359434712
p2065
aVhttps://pbs.twimg.com/profile_banners/854845544/1349019042
p2066
aVhttps://pbs.twimg.com/profile_banners/748714692/1356763538
p2067
aVhttps://pbs.twimg.com/profile_banners/1049258474/1379822172
p2068
aVhttps://pbs.twimg.com/profile_banners/1023079304/1356021391
p2069
aVhttps://pbs.twimg.com/profile_banners/627626647/1355303412
p2070
aVhttps://pbs.twimg.com/profile_banners/2300709403/1390189456
p2071
aVhttps://pbs.twimg.com/profile_banners/1031648893/1364420581
p2072
aVhttps://pbs.twimg.com/profile_banners/1120647768/1394691574
p2073
aVhttps://pbs.twimg.com/profile_banners/1044701551/1356953043
p2074
aVhttps://pbs.twimg.com/profile_banners/1470817399/1396812081
p2075
aVhttps://pbs.twimg.com/profile_banners/1495805179/1370790557
p2076
aVhttps://pbs.twimg.com/profile_banners/965598025/1403595433
p2077
aVhttps://pbs.twimg.com/profile_banners/1442393875/1369009637
p2078
aVhttps://pbs.twimg.com/profile_banners/1418985170/1368226019
p2079
aVhttps://pbs.twimg.com/profile_banners/4654865892/1454521783
p2080
aVhttps://pbs.twimg.com/profile_banners/1565663070/1372856246
p2081
aVhttps://pbs.twimg.com/profile_banners/2582283846/1403448633
p2082
aVhttps://pbs.twimg.com/profile_banners/2382831156/1404950577
p2083
aVhttps://pbs.twimg.com/profile_banners/3577974376/1441638528
p2084
aVhttps://pbs.twimg.com/profile_banners/1971099775/1433095844
p2085
aVhttps://pbs.twimg.com/profile_banners/2275055562/1393029301
p2086
aVhttps://pbs.twimg.com/profile_banners/1566726572/1372888829
p2087
aVhttps://pbs.twimg.com/profile_banners/1247188945/1362606072
p2088
aVhttps://pbs.twimg.com/profile_banners/2886736387/1414876300
p2089
aVhttps://pbs.twimg.com/profile_banners/2843551745/1414238823
p2090
aVhttps://pbs.twimg.com/profile_banners/2845380102/1412829555
p2091
aVhttps://pbs.twimg.com/profile_banners/2786121945/1411759149
p2092
aVhttps://pbs.twimg.com/profile_banners/1297156303/1395189671
p2093
aVhttps://pbs.twimg.com/profile_banners/1689693450/1377138153
p2094
aVhttps://pbs.twimg.com/profile_banners/1686788930/1377035849
p2095
aVhttps://pbs.twimg.com/profile_banners/1646881134/1376331558
p2096
aVhttps://pbs.twimg.com/profile_banners/854367452/1369777611
p2097
aVhttps://pbs.twimg.com/profile_banners/1618394574/1374692977
p2098
aVhttps://pbs.twimg.com/profile_banners/1557499608/1372579830
p2099
aVhttps://pbs.twimg.com/profile_banners/1511352175/1381113456
p2100
aVhttps://pbs.twimg.com/profile_banners/1457723737/1369562061
p2101
aVhttps://pbs.twimg.com/profile_banners/1330262460/1365292982
p2102
aVhttps://pbs.twimg.com/profile_banners/1220437994/1361852721
p2103
aVhttps://pbs.twimg.com/profile_banners/1214027988/1361666155
p2104
aVhttps://pbs.twimg.com/profile_banners/806079306/1359311960
p2105
aVhttps://pbs.twimg.com/profile_banners/1154471918/1360208321
p2106
aVhttps://pbs.twimg.com/profile_banners/973226047/1353989977
p2107
aVhttps://pbs.twimg.com/profile_banners/895705850/1351017487
p2108
aVhttps://pbs.twimg.com/profile_banners/3068728897/1425848458
p2109
aVhttps://pbs.twimg.com/profile_banners/2567435907/1401206998
p2110
aVhttps://pbs.twimg.com/profile_banners/290023547/1366135541
p2111
aVhttps://pbs.twimg.com/profile_banners/2525191932/1401116348
p2112
aVhttps://pbs.twimg.com/profile_banners/797092088/1348055278
p2113
aVhttps://pbs.twimg.com/profile_banners/1143031238/1359828108
p2114
aVhttps://pbs.twimg.com/profile_banners/1315070478/1364596659
p2115
aVhttps://pbs.twimg.com/profile_banners/1679711688/1376798619
p2116
aVhttps://pbs.twimg.com/profile_banners/1564127767/1404776312
p2117
aVhttps://pbs.twimg.com/profile_banners/1011156356/1355492078
p2118
aVhttps://pbs.twimg.com/profile_banners/1031230346/1356787664
p2119
aVhttps://pbs.twimg.com/profile_banners/1563726271/1372787611
p2120
aVhttps://pbs.twimg.com/profile_banners/2154680807/1386177884
p2121
aVhttps://pbs.twimg.com/profile_banners/759638108/1354464068
p2122
aVhttps://pbs.twimg.com/profile_banners/1023231416/1355966231
p2123
aVhttps://pbs.twimg.com/profile_banners/1423333874/1382373980
p2124
aVhttps://pbs.twimg.com/profile_banners/2329393746/1439839081
p2125
aVhttps://pbs.twimg.com/profile_banners/2850499568/1412953105
p2126
aVhttps://pbs.twimg.com/profile_banners/993993108/1354837764
p2127
aVhttps://pbs.twimg.com/profile_banners/615710554/1348340210
p2128
aVhttps://pbs.twimg.com/profile_banners/421437048/1371259558
p2129
aVhttps://pbs.twimg.com/profile_banners/1318719571/1364749399
p2130
aVhttps://pbs.twimg.com/profile_banners/964869108/1353615447
p2131
aVhttps://pbs.twimg.com/profile_banners/303263720/1353176086
p2132
aVhttps://pbs.twimg.com/profile_banners/883199384/1350338882
p2133
aVhttps://pbs.twimg.com/profile_banners/868784563/1349734769
p2134
aVhttps://pbs.twimg.com/profile_banners/793542630/1349894600
p2135
aVhttps://pbs.twimg.com/profile_banners/1632169459/1375164642
p2136
aVhttps://pbs.twimg.com/profile_banners/1035308240/1356561058
p2137
a.