(lp0
Vhttps://pbs.twimg.com/profile_banners/970287355/1452396704
p1
aVhttps://pbs.twimg.com/profile_banners/44715324/1454030299
p2
aVhttps://pbs.twimg.com/profile_banners/3208766362/1447596777
p3
aVhttps://pbs.twimg.com/profile_banners/88003429/1447856837
p4
aVhttps://pbs.twimg.com/profile_banners/2289045631/1438454288
p5
aVhttps://pbs.twimg.com/profile_banners/344645289/1365276882
p6
aVhttps://pbs.twimg.com/profile_banners/2292874011/1453184438
p7
aVhttps://pbs.twimg.com/profile_banners/1521998862/1455261382
p8
aVhttps://pbs.twimg.com/profile_banners/387440652/1432540508
p9
aVhttps://pbs.twimg.com/profile_banners/108658337/1445309762
p10
aVhttps://pbs.twimg.com/profile_banners/2839223336/1455291525
p11
aVhttps://pbs.twimg.com/profile_banners/997086582/1446481701
p12
aVhttps://pbs.twimg.com/profile_banners/3141184170/1454169497
p13
aVhttps://pbs.twimg.com/profile_banners/570850631/1454326403
p14
aVhttps://pbs.twimg.com/profile_banners/374277736/1448858197
p15
aVhttps://pbs.twimg.com/profile_banners/83775383/1455086630
p16
aVhttps://pbs.twimg.com/profile_banners/2358868076/1455271838
p17
aVhttps://pbs.twimg.com/profile_banners/425438130/1453426373
p18
aVhttps://pbs.twimg.com/profile_banners/3185200334/1454888539
p19
aVhttps://pbs.twimg.com/profile_banners/910553604/1455320396
p20
aVhttps://pbs.twimg.com/profile_banners/64268222/1449424223
p21
aVhttps://pbs.twimg.com/profile_banners/3153295926/1454444251
p22
aVhttps://pbs.twimg.com/profile_banners/2236828766/1444081303
p23
aVhttps://pbs.twimg.com/profile_banners/3305141525/1452185647
p24
aVhttps://pbs.twimg.com/profile_banners/4788248335/1455034086
p25
aVhttps://pbs.twimg.com/profile_banners/844055155/1452210503
p26
aVhttps://pbs.twimg.com/profile_banners/1686204086/1401045196
p27
aVhttps://pbs.twimg.com/profile_banners/39430359/1440814442
p28
aVhttps://pbs.twimg.com/profile_banners/320890019/1430424353
p29
aVhttps://pbs.twimg.com/profile_banners/2386934920/1394068169
p30
aVhttps://pbs.twimg.com/profile_banners/16593464/1452346355
p31
aVhttps://pbs.twimg.com/profile_banners/16178737/1423597757
p32
aVhttps://pbs.twimg.com/profile_banners/191133353/1455125740
p33
aVhttps://pbs.twimg.com/profile_banners/2986807835/1438225272
p34
aVhttps://pbs.twimg.com/profile_banners/450316357/1450018480
p35
aVhttps://pbs.twimg.com/profile_banners/927681/1430573497
p36
aVhttps://pbs.twimg.com/profile_banners/4551482740/1450657408
p37
aVhttps://pbs.twimg.com/profile_banners/2735185062/1426018319
p38
aVhttps://pbs.twimg.com/profile_banners/1013434646/1450031731
p39
aVhttps://pbs.twimg.com/profile_banners/3921383033/1445805209
p40
aVhttps://pbs.twimg.com/profile_banners/315554022/1435453125
p41
aVhttps://pbs.twimg.com/profile_banners/335041124/1454295130
p42
aVhttps://pbs.twimg.com/profile_banners/51000297/1368545889
p43
aVhttps://pbs.twimg.com/profile_banners/237698494/1454013602
p44
aVhttps://pbs.twimg.com/profile_banners/2391334579/1454555629
p45
aVhttps://pbs.twimg.com/profile_banners/848739434/1382777661
p46
aVhttps://pbs.twimg.com/profile_banners/3094368578/1426622330
p47
aVhttps://pbs.twimg.com/profile_banners/4346891173/1453992031
p48
aVhttps://pbs.twimg.com/profile_banners/310838014/1450238821
p49
aVhttps://pbs.twimg.com/profile_banners/905038568/1431399712
p50
aVhttps://pbs.twimg.com/profile_banners/198688790/1450629742
p51
aVhttps://pbs.twimg.com/profile_banners/1623291103/1448624982
p52
aVhttps://pbs.twimg.com/profile_banners/29612473/1431044007
p53
aVhttps://pbs.twimg.com/profile_banners/4582783093/1455377967
p54
aVhttps://pbs.twimg.com/profile_banners/3078544920/1455287934
p55
aVhttps://pbs.twimg.com/profile_banners/1022119604/1453869133
p56
aVhttps://pbs.twimg.com/profile_banners/300982796/1453125157
p57
aVhttps://pbs.twimg.com/profile_banners/2214979643/1386556529
p58
aVhttps://pbs.twimg.com/profile_banners/462105731/1449170038
p59
aVhttps://pbs.twimg.com/profile_banners/1057017024/1454387410
p60
aVhttps://pbs.twimg.com/profile_banners/539451505/1427666035
p61
aVhttps://pbs.twimg.com/profile_banners/2307200974/1455033407
p62
aVhttps://pbs.twimg.com/profile_banners/3101092285/1454582338
p63
aVhttps://pbs.twimg.com/profile_banners/2610398746/1454624496
p64
aVhttps://pbs.twimg.com/profile_banners/59124859/1390919932
p65
aVhttps://pbs.twimg.com/profile_banners/295434058/1454881150
p66
aVhttps://pbs.twimg.com/profile_banners/3842756561/1444418177
p67
aVhttps://pbs.twimg.com/profile_banners/3102743041/1447823991
p68
aVhttps://pbs.twimg.com/profile_banners/2360037974/1448755656
p69
aVhttps://pbs.twimg.com/profile_banners/2980754965/1455240729
p70
aVhttps://pbs.twimg.com/profile_banners/1613340643/1435772537
p71
aVhttps://pbs.twimg.com/profile_banners/3328097570/1455203737
p72
aVhttps://pbs.twimg.com/profile_banners/1149498913/1406625113
p73
aVhttps://pbs.twimg.com/profile_banners/3269199920/1455064417
p74
aVhttps://pbs.twimg.com/profile_banners/871252051/1453098201
p75
aVhttps://pbs.twimg.com/profile_banners/2891045226/1452141186
p76
aVhttps://pbs.twimg.com/profile_banners/219712015/1454080187
p77
aVhttps://pbs.twimg.com/profile_banners/1616157001/1446326594
p78
aVhttps://pbs.twimg.com/profile_banners/290017216/1452818183
p79
aVhttps://pbs.twimg.com/profile_banners/4268278773/1455144793
p80
aVhttps://pbs.twimg.com/profile_banners/4761331153/1453606124
p81
aVhttps://pbs.twimg.com/profile_banners/1970438042/1452215466
p82
aVhttps://pbs.twimg.com/profile_banners/4762166726/1453608548
p83
aVhttps://pbs.twimg.com/profile_banners/4761979778/1453607382
p84
aVhttps://pbs.twimg.com/profile_banners/732395569/1434192520
p85
aVhttps://pbs.twimg.com/profile_banners/4442157377/1450829277
p86
aVhttps://pbs.twimg.com/profile_banners/4830132372/1454087537
p87
aVhttps://pbs.twimg.com/profile_banners/619038475/1455343407
p88
aVhttps://pbs.twimg.com/profile_banners/23137374/1428149466
p89
aVhttps://pbs.twimg.com/profile_banners/1904622817/1454478846
p90
aVhttps://pbs.twimg.com/profile_banners/940408268/1451848638
p91
aVhttps://pbs.twimg.com/profile_banners/462211876/1426189817
p92
aVhttps://pbs.twimg.com/profile_banners/1060029038/1438536436
p93
aVhttps://pbs.twimg.com/profile_banners/1284811596/1455104269
p94
aVhttps://pbs.twimg.com/profile_banners/194901961/1454759069
p95
aVhttps://pbs.twimg.com/profile_banners/2439620640/1452287535
p96
aVhttps://pbs.twimg.com/profile_banners/303302696/1454773466
p97
aVhttps://pbs.twimg.com/profile_banners/117132215/1408135742
p98
aVhttps://pbs.twimg.com/profile_banners/3697560192/1454288315
p99
aVhttps://pbs.twimg.com/profile_banners/3000274710/1453552263
p100
aVhttps://pbs.twimg.com/profile_banners/210491051/1454439957
p101
aVhttps://pbs.twimg.com/profile_banners/134559362/1444318090
p102
aVhttps://pbs.twimg.com/profile_banners/695404060225118210/1454633239
p103
aVhttps://pbs.twimg.com/profile_banners/458988076/1455301111
p104
aVhttps://pbs.twimg.com/profile_banners/16967038/1414955530
p105
aVhttps://pbs.twimg.com/profile_banners/16394125/1452735228
p106
aVhttps://pbs.twimg.com/profile_banners/722557916/1454688429
p107
aVhttps://pbs.twimg.com/profile_banners/4389492076/1455150924
p108
aVhttps://pbs.twimg.com/profile_banners/3080191288/1454613114
p109
aVhttps://pbs.twimg.com/profile_banners/2565342942/1402715005
p110
aVhttps://pbs.twimg.com/profile_banners/228271037/1453736351
p111
aVhttps://pbs.twimg.com/profile_banners/2272844557/1435214441
p112
aVhttps://pbs.twimg.com/profile_banners/41265000/1403539227
p113
aVhttps://pbs.twimg.com/profile_banners/2475162659/1455377761
p114
aVhttps://pbs.twimg.com/profile_banners/2456681094/1454166878
p115
aVhttps://pbs.twimg.com/profile_banners/3846989234/1450096027
p116
aVhttps://pbs.twimg.com/profile_banners/1445527544/1410963887
p117
aVhttps://pbs.twimg.com/profile_banners/358588277/1451814331
p118
aVhttps://pbs.twimg.com/profile_banners/335072361/1447163260
p119
aVhttps://pbs.twimg.com/profile_banners/105910428/1386915664
p120
aVhttps://pbs.twimg.com/profile_banners/1677759786/1455040989
p121
aVhttps://pbs.twimg.com/profile_banners/1441404102/1411760918
p122
aVhttps://pbs.twimg.com/profile_banners/819386880/1455252201
p123
aVhttps://pbs.twimg.com/profile_banners/22778674/1453780437
p124
aVhttps://pbs.twimg.com/profile_banners/594980980/1453696610
p125
aVhttps://pbs.twimg.com/profile_banners/1337693210/1454293303
p126
aVhttps://pbs.twimg.com/profile_banners/19735943/1455016444
p127
aVhttps://pbs.twimg.com/profile_banners/97932272/1451788003
p128
aVhttps://pbs.twimg.com/profile_banners/2578565575/1452550613
p129
aVhttps://pbs.twimg.com/profile_banners/4554889404/1454914238
p130
aVhttps://pbs.twimg.com/profile_banners/3793891719/1455176806
p131
aVhttps://pbs.twimg.com/profile_banners/55800611/1455293632
p132
aVhttps://pbs.twimg.com/profile_banners/1044617852/1454665449
p133
aVhttps://pbs.twimg.com/profile_banners/3380821817/1453080175
p134
aVhttps://pbs.twimg.com/profile_banners/3428352543/1441396629
p135
aVhttps://pbs.twimg.com/profile_banners/2417080442/1448895282
p136
aVhttps://pbs.twimg.com/profile_banners/1656663206/1454802172
p137
aVhttps://pbs.twimg.com/profile_banners/280005121/1452964117
p138
aVhttps://pbs.twimg.com/profile_banners/2826762902/1454943861
p139
aVhttps://pbs.twimg.com/profile_banners/2319881646/1447893953
p140
aVhttps://pbs.twimg.com/profile_banners/1934437777/1451798945
p141
aVhttps://pbs.twimg.com/profile_banners/2885765647/1424115526
p142
aVhttps://pbs.twimg.com/profile_banners/482775159/1455276463
p143
aVhttps://pbs.twimg.com/profile_banners/26784792/1454936871
p144
aVhttps://pbs.twimg.com/profile_banners/3060087762/1452406205
p145
aVhttps://pbs.twimg.com/profile_banners/608641113/1445870642
p146
aVhttps://pbs.twimg.com/profile_banners/17717773/1398196780
p147
aVhttps://pbs.twimg.com/profile_banners/284500618/1451925788
p148
aVhttps://pbs.twimg.com/profile_banners/4805347933/1454905491
p149
aVhttps://pbs.twimg.com/profile_banners/3336326109/1454991831
p150
aVhttps://pbs.twimg.com/profile_banners/3259679258/1452659574
p151
aVhttps://pbs.twimg.com/profile_banners/3151384758/1455361423
p152
aVhttps://pbs.twimg.com/profile_banners/3096197839/1455201852
p153
aVhttps://pbs.twimg.com/profile_banners/1173423691/1455039954
p154
aVhttps://pbs.twimg.com/profile_banners/432601608/1454240439
p155
aVhttps://pbs.twimg.com/profile_banners/101248423/1448825161
p156
aVhttps://pbs.twimg.com/profile_banners/97088283/1348024678
p157
aVhttps://pbs.twimg.com/profile_banners/573595045/1442435860
p158
aVhttps://pbs.twimg.com/profile_banners/440127155/1454064790
p159
aVhttps://pbs.twimg.com/profile_banners/860878357/1445534547
p160
aVhttps://pbs.twimg.com/profile_banners/2349800145/1455296623
p161
aVhttps://pbs.twimg.com/profile_banners/17926243/1426010886
p162
aVhttps://pbs.twimg.com/profile_banners/4703494428/1452326130
p163
aVhttps://pbs.twimg.com/profile_banners/1385879569/1454896147
p164
aVhttps://pbs.twimg.com/profile_banners/1623940424/1454939295
p165
aVhttps://pbs.twimg.com/profile_banners/2437725132/1454797238
p166
aVhttps://pbs.twimg.com/profile_banners/1918719978/1455118510
p167
aVhttps://pbs.twimg.com/profile_banners/460429308/1438622108
p168
aVhttps://pbs.twimg.com/profile_banners/288940426/1454365058
p169
aVhttps://pbs.twimg.com/profile_banners/3429219683/1440009493
p170
aVhttps://pbs.twimg.com/profile_banners/1037668081/1455377461
p171
aVhttps://pbs.twimg.com/profile_banners/315177120/1455140088
p172
aVhttps://pbs.twimg.com/profile_banners/37351352/1454515304
p173
aVhttps://pbs.twimg.com/profile_banners/4581324601/1453700722
p174
aVhttps://pbs.twimg.com/profile_banners/100555966/1399397288
p175
aVhttps://pbs.twimg.com/profile_banners/822135750/1417814305
p176
aVhttps://pbs.twimg.com/profile_banners/50258410/1400550150
p177
aVhttps://pbs.twimg.com/profile_banners/2862954991/1455377786
p178
aVhttps://pbs.twimg.com/profile_banners/1897902032/1453057525
p179
aVhttps://pbs.twimg.com/profile_banners/75334681/1454225162
p180
aVhttps://pbs.twimg.com/profile_banners/240597076/1454760112
p181
aVhttps://pbs.twimg.com/profile_banners/2209390854/1453906886
p182
aVhttps://pbs.twimg.com/profile_banners/47162059/1439377914
p183
aVhttps://pbs.twimg.com/profile_banners/1121935710/1455288644
p184
aVhttps://pbs.twimg.com/profile_banners/2662192313/1454553126
p185
aVhttps://pbs.twimg.com/profile_banners/2839951794/1450597759
p186
aVhttps://pbs.twimg.com/profile_banners/289914347/1395944954
p187
aVhttps://pbs.twimg.com/profile_banners/335272388/1452535010
p188
aVhttps://pbs.twimg.com/profile_banners/1926175502/1450845216
p189
aVhttps://pbs.twimg.com/profile_banners/2815160752/1452159962
p190
aVhttps://pbs.twimg.com/profile_banners/4136315474/1455120535
p191
aVhttps://pbs.twimg.com/profile_banners/1917758023/1446208552
p192
aVhttps://pbs.twimg.com/profile_banners/21445952/1453958027
p193
aVhttps://pbs.twimg.com/profile_banners/2278224500/1454994837
p194
aVhttps://pbs.twimg.com/profile_banners/3118979204/1427770930
p195
aVhttps://pbs.twimg.com/profile_banners/4870736349/1455195839
p196
aVhttps://pbs.twimg.com/profile_banners/2757830914/1454266326
p197
aVhttps://pbs.twimg.com/profile_banners/217683385/1427718415
p198
aVhttps://pbs.twimg.com/profile_banners/2224398067/1455106927
p199
aVhttps://pbs.twimg.com/profile_banners/3842939955/1453571309
p200
aVhttps://pbs.twimg.com/profile_banners/49388955/1445665022
p201
aVhttps://pbs.twimg.com/profile_banners/2240137541/1454391143
p202
aVhttps://pbs.twimg.com/profile_banners/336900307/1436370294
p203
aVhttps://pbs.twimg.com/profile_banners/2253853292/1442941478
p204
aVhttps://pbs.twimg.com/profile_banners/698440033833918464/1455356575
p205
aVhttps://pbs.twimg.com/profile_banners/3172722821/1429192064
p206
aVhttps://pbs.twimg.com/profile_banners/276976615/1429364349
p207
aVhttps://pbs.twimg.com/profile_banners/2906713641/1417996720
p208
aVhttps://pbs.twimg.com/profile_banners/3007841662/1454387915
p209
aVhttps://pbs.twimg.com/profile_banners/138279380/1449179347
p210
aVhttps://pbs.twimg.com/profile_banners/497312144/1436815346
p211
aVhttps://pbs.twimg.com/profile_banners/4824289108/1453129079
p212
aVhttps://pbs.twimg.com/profile_banners/336881298/1453900872
p213
aVhttps://pbs.twimg.com/profile_banners/2616440592/1420008369
p214
aVhttps://pbs.twimg.com/profile_banners/304366409/1454666306
p215
aVhttps://pbs.twimg.com/profile_banners/55727214/1437690495
p216
aVhttps://pbs.twimg.com/profile_banners/134161469/1451474066
p217
aVhttps://pbs.twimg.com/profile_banners/4884000569/1454826208
p218
aVhttps://pbs.twimg.com/profile_banners/760694047/1455308793
p219
aVhttps://pbs.twimg.com/profile_banners/1302772412/1451587116
p220
aVhttps://pbs.twimg.com/profile_banners/39186184/1446253599
p221
aVhttps://pbs.twimg.com/profile_banners/326370131/1451640263
p222
aVhttps://pbs.twimg.com/profile_banners/253345830/1424242407
p223
aVhttps://pbs.twimg.com/profile_banners/2327924072/1455318708
p224
aVhttps://pbs.twimg.com/profile_banners/1068171468/1455100817
p225
aVhttps://pbs.twimg.com/profile_banners/3160874264/1455368861
p226
aVhttps://pbs.twimg.com/profile_banners/1592120191/1452520089
p227
aVhttps://pbs.twimg.com/profile_banners/1924679905/1440501666
p228
aVhttps://pbs.twimg.com/profile_banners/2785285129/1455337798
p229
aVhttps://pbs.twimg.com/profile_banners/4902174456/1455377840
p230
aVhttps://pbs.twimg.com/profile_banners/2884351189/1453134694
p231
aVhttps://pbs.twimg.com/profile_banners/557742739/1453391105
p232
aVhttps://pbs.twimg.com/profile_banners/701024442/1454478864
p233
aVhttps://pbs.twimg.com/profile_banners/3235453748/1433367389
p234
aVhttps://pbs.twimg.com/profile_banners/960518342/1451757735
p235
aVhttps://pbs.twimg.com/profile_banners/44028841/1431048077
p236
aVhttps://pbs.twimg.com/profile_banners/16201968/1398613133
p237
aVhttps://pbs.twimg.com/profile_banners/3165862501/1430515954
p238
aVhttps://pbs.twimg.com/profile_banners/43872469/1431610648
p239
aVhttps://pbs.twimg.com/profile_banners/2849241172/1454726705
p240
aVhttps://pbs.twimg.com/profile_banners/1214860040/1453742346
p241
aVhttps://pbs.twimg.com/profile_banners/573133687/1403247462
p242
aVhttps://pbs.twimg.com/profile_banners/485112009/1420900376
p243
aVhttps://pbs.twimg.com/profile_banners/3075168583/1454853335
p244
aVhttps://pbs.twimg.com/profile_banners/167149915/1454168030
p245
aVhttps://pbs.twimg.com/profile_banners/841039189/1376027465
p246
aVhttps://pbs.twimg.com/profile_banners/356524984/1415076344
p247
aVhttps://pbs.twimg.com/profile_banners/1575138829/1414947271
p248
aVhttps://pbs.twimg.com/profile_banners/114518329/1398355925
p249
aVhttps://pbs.twimg.com/profile_banners/127007054/1421544718
p250
aVhttps://pbs.twimg.com/profile_banners/74452613/1454341286
p251
aVhttps://pbs.twimg.com/profile_banners/17117590/1454172564
p252
aVhttps://pbs.twimg.com/profile_banners/376091214/1452080643
p253
aVhttps://pbs.twimg.com/profile_banners/8863322/1405770334
p254
aVhttps://pbs.twimg.com/profile_banners/3641165781/1449438786
p255
aVhttps://pbs.twimg.com/profile_banners/624758186/1453127176
p256
aVhttps://pbs.twimg.com/profile_banners/2784097210/1455341471
p257
aVhttps://pbs.twimg.com/profile_banners/2562681881/1455247342
p258
aVhttps://pbs.twimg.com/profile_banners/4816439477/1452888589
p259
aVhttps://pbs.twimg.com/profile_banners/484585643/1455343684
p260
aVhttps://pbs.twimg.com/profile_banners/4528745483/1455312762
p261
aVhttps://pbs.twimg.com/profile_banners/2677854391/1453942769
p262
aVhttps://pbs.twimg.com/profile_banners/284575034/1413998949
p263
aVhttps://pbs.twimg.com/profile_banners/1954374745/1455197258
p264
aVhttps://pbs.twimg.com/profile_banners/262972226/1447007157
p265
aVhttps://pbs.twimg.com/profile_banners/3130802094/1454950280
p266
aVhttps://pbs.twimg.com/profile_banners/3192223779/1455211166
p267
aVhttps://pbs.twimg.com/profile_banners/411044135/1442679419
p268
aVhttps://pbs.twimg.com/profile_banners/411528022/1455057631
p269
aVhttps://pbs.twimg.com/profile_banners/3601075213/1455200166
p270
aVhttps://pbs.twimg.com/profile_banners/2200238490/1387495670
p271
aVhttps://pbs.twimg.com/profile_banners/2385823332/1394660024
p272
aVhttps://pbs.twimg.com/profile_banners/2723939079/1453949494
p273
aVhttps://pbs.twimg.com/profile_banners/69814861/1435148124
p274
aVhttps://pbs.twimg.com/profile_banners/2858547598/1419056655
p275
aVhttps://pbs.twimg.com/profile_banners/1609328509/1397711032
p276
aVhttps://pbs.twimg.com/profile_banners/2808190759/1454725606
p277
aVhttps://pbs.twimg.com/profile_banners/205554075/1435319802
p278
aVhttps://pbs.twimg.com/profile_banners/3388188953/1444476298
p279
aVhttps://pbs.twimg.com/profile_banners/2194419076/1454865267
p280
aVhttps://pbs.twimg.com/profile_banners/3223306021/1455024189
p281
aVhttps://pbs.twimg.com/profile_banners/4017746849/1449531466
p282
aVhttps://pbs.twimg.com/profile_banners/3196426460/1431704757
p283
aVhttps://pbs.twimg.com/profile_banners/3094599391/1448994316
p284
aVhttps://pbs.twimg.com/profile_banners/211952210/1454370641
p285
aVhttps://pbs.twimg.com/profile_banners/3326753488/1444696821
p286
aVhttps://pbs.twimg.com/profile_banners/2928309492/1454915827
p287
aVhttps://pbs.twimg.com/profile_banners/3317740648/1455364844
p288
aVhttps://pbs.twimg.com/profile_banners/603964053/1454873123
p289
aVhttps://pbs.twimg.com/profile_banners/4384958174/1455377380
p290
aVhttps://pbs.twimg.com/profile_banners/2890982258/1415206154
p291
aVhttps://pbs.twimg.com/profile_banners/3997523894/1445658883
p292
aVhttps://pbs.twimg.com/profile_banners/4288743335/1448570633
p293
aVhttps://pbs.twimg.com/profile_banners/2321562553/1450109538
p294
aVhttps://pbs.twimg.com/profile_banners/2530731078/1454597870
p295
aVhttps://pbs.twimg.com/profile_banners/492294698/1452030059
p296
aVhttps://pbs.twimg.com/profile_banners/32459697/1429524719
p297
aVhttps://pbs.twimg.com/profile_banners/2459180840/1444079153
p298
aVhttps://pbs.twimg.com/profile_banners/3644372600/1442892201
p299
aVhttps://pbs.twimg.com/profile_banners/380593264/1449492158
p300
aVhttps://pbs.twimg.com/profile_banners/506434404/1451757754
p301
aVhttps://pbs.twimg.com/profile_banners/2827187795/1415787656
p302
aVhttps://pbs.twimg.com/profile_banners/1612116600/1452480780
p303
aVhttps://pbs.twimg.com/profile_banners/521717346/1452969418
p304
aVhttps://pbs.twimg.com/profile_banners/478782266/1435811445
p305
aVhttps://pbs.twimg.com/profile_banners/1331052499/1453974935
p306
aVhttps://pbs.twimg.com/profile_banners/299032826/1455191818
p307
aVhttps://pbs.twimg.com/profile_banners/3307130754/1438803982
p308
aVhttps://pbs.twimg.com/profile_banners/2961483123/1453440989
p309
aVhttps://pbs.twimg.com/profile_banners/2467160324/1449848245
p310
aVhttps://pbs.twimg.com/profile_banners/1257645007/1398209796
p311
aVhttps://pbs.twimg.com/profile_banners/538274596/1455049321
p312
aVhttps://pbs.twimg.com/profile_banners/349116375/1455034804
p313
aVhttps://pbs.twimg.com/profile_banners/140818577/1454268314
p314
aVhttps://pbs.twimg.com/profile_banners/1330167972/1454899120
p315
aVhttps://pbs.twimg.com/profile_banners/585035013/1455199722
p316
aVhttps://pbs.twimg.com/profile_banners/45205116/1455379267
p317
aVhttps://pbs.twimg.com/profile_banners/3330557069/1454420474
p318
aVhttps://pbs.twimg.com/profile_banners/1892686189/1448980359
p319
aVhttps://pbs.twimg.com/profile_banners/142711533/1433706421
p320
aVhttps://pbs.twimg.com/profile_banners/1554924145/1451880318
p321
aVhttps://pbs.twimg.com/profile_banners/331252448/1455163120
p322
aVhttps://pbs.twimg.com/profile_banners/528475868/1454407635
p323
aVhttps://pbs.twimg.com/profile_banners/23587065/1444638392
p324
aVhttps://pbs.twimg.com/profile_banners/246369635/1421369789
p325
aVhttps://pbs.twimg.com/profile_banners/1355004427/1412986691
p326
aVhttps://pbs.twimg.com/profile_banners/285316941/1438443264
p327
aVhttps://pbs.twimg.com/profile_banners/1537941607/1454862703
p328
aVhttps://pbs.twimg.com/profile_banners/2757706752/1408808848
p329
aVhttps://pbs.twimg.com/profile_banners/3255227737/1435203611
p330
aVhttps://pbs.twimg.com/profile_banners/64544536/1455348055
p331
aVhttps://pbs.twimg.com/profile_banners/588698069/1453778865
p332
aVhttps://pbs.twimg.com/profile_banners/546891221/1433621166
p333
aVhttps://pbs.twimg.com/profile_banners/114978436/1410893164
p334
aVhttps://pbs.twimg.com/profile_banners/2326689419/1455030621
p335
aVhttps://pbs.twimg.com/profile_banners/452339361/1419402705
p336
aVhttps://pbs.twimg.com/profile_banners/1016693653/1433937674
p337
aVhttps://pbs.twimg.com/profile_banners/209886633/1455333993
p338
aVhttps://pbs.twimg.com/profile_banners/4844112880/1453713382
p339
aVhttps://pbs.twimg.com/profile_banners/177782290/1455046102
p340
aVhttps://pbs.twimg.com/profile_banners/193445214/1360325188
p341
aVhttps://pbs.twimg.com/profile_banners/3253624979/1455378581
p342
aVhttps://pbs.twimg.com/profile_banners/4523950516/1451559358
p343
aVhttps://pbs.twimg.com/profile_banners/3229833793/1445568493
p344
aVhttps://pbs.twimg.com/profile_banners/399234507/1363260979
p345
aVhttps://pbs.twimg.com/profile_banners/3006221026/1453659252
p346
aVhttps://pbs.twimg.com/profile_banners/1731066194/1455310203
p347
aVhttps://pbs.twimg.com/profile_banners/282589257/1455227699
p348
aVhttps://pbs.twimg.com/profile_banners/2525892205/1401139391
p349
aVhttps://pbs.twimg.com/profile_banners/222861547/1407506236
p350
aVhttps://pbs.twimg.com/profile_banners/4145788572/1446812249
p351
aVhttps://pbs.twimg.com/profile_banners/332444266/1454033932
p352
aVhttps://pbs.twimg.com/profile_banners/2265683406/1426435608
p353
aVhttps://pbs.twimg.com/profile_banners/4852120907/1453910986
p354
aVhttps://pbs.twimg.com/profile_banners/2347232978/1453867917
p355
aVhttps://pbs.twimg.com/profile_banners/1385672372/1439868312
p356
aVhttps://pbs.twimg.com/profile_banners/4188923179/1447148437
p357
aVhttps://pbs.twimg.com/profile_banners/339707760/1426534138
p358
aVhttps://pbs.twimg.com/profile_banners/2196367158/1384615833
p359
aVhttps://pbs.twimg.com/profile_banners/3534242473/1453079496
p360
aVhttps://pbs.twimg.com/profile_banners/2690477118/1454995490
p361
aVhttps://pbs.twimg.com/profile_banners/865686763/1428771636
p362
aVhttps://pbs.twimg.com/profile_banners/617109660/1455275567
p363
aVhttps://pbs.twimg.com/profile_banners/289463265/1419509647
p364
aVhttps://pbs.twimg.com/profile_banners/2682884040/1444088225
p365
aVhttps://pbs.twimg.com/profile_banners/260357099/1414332499
p366
aVhttps://pbs.twimg.com/profile_banners/4609489880/1455208666
p367
aVhttps://pbs.twimg.com/profile_banners/18310155/1440839381
p368
aVhttps://pbs.twimg.com/profile_banners/542400979/1439050455
p369
aVhttps://pbs.twimg.com/profile_banners/2682877830/1452063795
p370
aVhttps://pbs.twimg.com/profile_banners/2944566481/1448714063
p371
aVhttps://pbs.twimg.com/profile_banners/504776125/1445944831
p372
aVhttps://pbs.twimg.com/profile_banners/190784315/1451174902
p373
aVhttps://pbs.twimg.com/profile_banners/315860565/1455241693
p374
aVhttps://pbs.twimg.com/profile_banners/182867111/1438459729
p375
aVhttps://pbs.twimg.com/profile_banners/3317316740/1452723108
p376
aVhttps://pbs.twimg.com/profile_banners/1495736773/1431501478
p377
aVhttps://pbs.twimg.com/profile_banners/130343278/1455259385
p378
aVhttps://pbs.twimg.com/profile_banners/148242110/1455371449
p379
aVhttps://pbs.twimg.com/profile_banners/141302910/1364409000
p380
aVhttps://pbs.twimg.com/profile_banners/25610337/1350069887
p381
aVhttps://pbs.twimg.com/profile_banners/2217295046/1436051006
p382
aVhttps://pbs.twimg.com/profile_banners/2611566142/1454688233
p383
aVhttps://pbs.twimg.com/profile_banners/613964589/1454468953
p384
aVhttps://pbs.twimg.com/profile_banners/151618707/1446749483
p385
aVhttps://pbs.twimg.com/profile_banners/4868009890/1455377758
p386
aVhttps://pbs.twimg.com/profile_banners/897350250/1453727046
p387
aVhttps://pbs.twimg.com/profile_banners/42038507/1452570802
p388
aVhttps://pbs.twimg.com/profile_banners/476976317/1451693589
p389
aVhttps://pbs.twimg.com/profile_banners/306173055/1455378866
p390
aVhttps://pbs.twimg.com/profile_banners/3400831857/1439701556
p391
aVhttps://pbs.twimg.com/profile_banners/259596529/1444999998
p392
aVhttps://pbs.twimg.com/profile_banners/4817772588/1453875415
p393
aVhttps://pbs.twimg.com/profile_banners/1702461608/1453752324
p394
aVhttps://pbs.twimg.com/profile_banners/2198200430/1455077358
p395
aVhttps://pbs.twimg.com/profile_banners/1012329853/1391956522
p396
aVhttps://pbs.twimg.com/profile_banners/4901577454/1455289193
p397
aVhttps://pbs.twimg.com/profile_banners/2885494662/1453022672
p398
aVhttps://pbs.twimg.com/profile_banners/4794139214/1453461899
p399
aVhttps://pbs.twimg.com/profile_banners/917403798/1435338437
p400
aVhttps://pbs.twimg.com/profile_banners/2731105962/1454081872
p401
aVhttps://pbs.twimg.com/profile_banners/4127191029/1447174495
p402
aVhttps://pbs.twimg.com/profile_banners/615643294/1453963661
p403
aVhttps://pbs.twimg.com/profile_banners/2266987818/1453473145
p404
aVhttps://pbs.twimg.com/profile_banners/585357206/1416615045
p405
aVhttps://pbs.twimg.com/profile_banners/605376362/1455323669
p406
aVhttps://pbs.twimg.com/profile_banners/49376425/1398202873
p407
aVhttps://pbs.twimg.com/profile_banners/1664030940/1453057013
p408
aVhttps://pbs.twimg.com/profile_banners/1422991478/1455092773
p409
aVhttps://pbs.twimg.com/profile_banners/462321209/1453848522
p410
aVhttps://pbs.twimg.com/profile_banners/766126844/1445216596
p411
aVhttps://pbs.twimg.com/profile_banners/2412791603/1426837258
p412
aVhttps://pbs.twimg.com/profile_banners/356851477/1452789188
p413
aVhttps://pbs.twimg.com/profile_banners/810735062/1448044527
p414
aVhttps://pbs.twimg.com/profile_banners/822750380/1447125878
p415
aVhttps://pbs.twimg.com/profile_banners/237999218/1433597825
p416
aVhttps://pbs.twimg.com/profile_banners/2911565252/1451112182
p417
aVhttps://pbs.twimg.com/profile_banners/3389626153/1451125333
p418
aVhttps://pbs.twimg.com/profile_banners/793584288/1454922339
p419
aVhttps://pbs.twimg.com/profile_banners/2916941805/1455372487
p420
aVhttps://pbs.twimg.com/profile_banners/3347845774/1435429374
p421
aVhttps://pbs.twimg.com/profile_banners/2825127980/1455267017
p422
aVhttps://pbs.twimg.com/profile_banners/3418936452/1446424588
p423
aVhttps://pbs.twimg.com/profile_banners/1358454745/1439410270
p424
aVhttps://pbs.twimg.com/profile_banners/3311426784/1453804307
p425
aVhttps://pbs.twimg.com/profile_banners/3095185778/1454292255
p426
aVhttps://pbs.twimg.com/profile_banners/245660314/1453263959
p427
aVhttps://pbs.twimg.com/profile_banners/488722667/1420831095
p428
aVhttps://pbs.twimg.com/profile_banners/2483437998/1453580213
p429
aVhttps://pbs.twimg.com/profile_banners/713101534/1455372042
p430
aVhttps://pbs.twimg.com/profile_banners/33611715/1454310785
p431
aVhttps://pbs.twimg.com/profile_banners/27288074/1390217263
p432
aVhttps://pbs.twimg.com/profile_banners/15468564/1455357955
p433
aVhttps://pbs.twimg.com/profile_banners/260971954/1451689887
p434
aVhttps://pbs.twimg.com/profile_banners/2512553902/1455053142
p435
aVhttps://pbs.twimg.com/profile_banners/263549632/1452144190
p436
aVhttps://pbs.twimg.com/profile_banners/38230712/1416266816
p437
aVhttps://pbs.twimg.com/profile_banners/4504978694/1449645994
p438
aVhttps://pbs.twimg.com/profile_banners/308388167/1443758410
p439
aVhttps://pbs.twimg.com/profile_banners/4836106718/1454727580
p440
aVhttps://pbs.twimg.com/profile_banners/386090823/1408457224
p441
aVhttps://pbs.twimg.com/profile_banners/70300984/1449547629
p442
aVhttps://pbs.twimg.com/profile_banners/575915990/1452564560
p443
aVhttps://pbs.twimg.com/profile_banners/1410654469/1438831386
p444
aVhttps://pbs.twimg.com/profile_banners/2910797746/1445379666
p445
aVhttps://pbs.twimg.com/profile_banners/1490987809/1444439241
p446
aVhttps://pbs.twimg.com/profile_banners/4760965748/1452827247
p447
aVhttps://pbs.twimg.com/profile_banners/28873057/1398428186
p448
aVhttps://pbs.twimg.com/profile_banners/3352546479/1435711839
p449
aVhttps://pbs.twimg.com/profile_banners/3227545112/1450028531
p450
aVhttps://pbs.twimg.com/profile_banners/2476503910/1447139234
p451
aVhttps://pbs.twimg.com/profile_banners/3309780731/1454550023
p452
aVhttps://pbs.twimg.com/profile_banners/342508788/1454690863
p453
aVhttps://pbs.twimg.com/profile_banners/4442978474/1449307559
p454
aVhttps://pbs.twimg.com/profile_banners/60794368/1452615271
p455
aVhttps://pbs.twimg.com/profile_banners/1390901310/1451426093
p456
aVhttps://pbs.twimg.com/profile_banners/277239808/1451194991
p457
aVhttps://pbs.twimg.com/profile_banners/43188800/1455274308
p458
aVhttps://pbs.twimg.com/profile_banners/126080227/1453586924
p459
aVhttps://pbs.twimg.com/profile_banners/283072308/1452690167
p460
aVhttps://pbs.twimg.com/profile_banners/276042643/1444260176
p461
aVhttps://pbs.twimg.com/profile_banners/289158049/1398743014
p462
aVhttps://pbs.twimg.com/profile_banners/630186693/1455201978
p463
aVhttps://pbs.twimg.com/profile_banners/322673177/1454538606
p464
aVhttps://pbs.twimg.com/profile_banners/766972292/1452783019
p465
aVhttps://pbs.twimg.com/profile_banners/477071011/1454907630
p466
aVhttps://pbs.twimg.com/profile_banners/85215038/1443720689
p467
aVhttps://pbs.twimg.com/profile_banners/872422303/1433186254
p468
aVhttps://pbs.twimg.com/profile_banners/1676646894/1453694413
p469
aVhttps://pbs.twimg.com/profile_banners/3033331781/1423772016
p470
aVhttps://pbs.twimg.com/profile_banners/30236036/1404314607
p471
aVhttps://pbs.twimg.com/profile_banners/1048722518/1357465185
p472
aVhttps://pbs.twimg.com/profile_banners/2153359245/1454963352
p473
aVhttps://pbs.twimg.com/profile_banners/378707028/1439484266
p474
aVhttps://pbs.twimg.com/profile_banners/936728065/1454696868
p475
aVhttps://pbs.twimg.com/profile_banners/2500776216/1442643540
p476
aVhttps://pbs.twimg.com/profile_banners/123808044/1428473814
p477
aVhttps://pbs.twimg.com/profile_banners/569671188/1426741208
p478
aVhttps://pbs.twimg.com/profile_banners/2485503242/1454387181
p479
aVhttps://pbs.twimg.com/profile_banners/2736561678/1434801581
p480
aVhttps://pbs.twimg.com/profile_banners/377699486/1445075640
p481
aVhttps://pbs.twimg.com/profile_banners/246842298/1429576159
p482
aVhttps://pbs.twimg.com/profile_banners/178345507/1454156087
p483
aVhttps://pbs.twimg.com/profile_banners/109577479/1452697603
p484
aVhttps://pbs.twimg.com/profile_banners/4784794821/1452686273
p485
aVhttps://pbs.twimg.com/profile_banners/3300302489/1453041350
p486
aVhttps://pbs.twimg.com/profile_banners/2434650612/1455338443
p487
aVhttps://pbs.twimg.com/profile_banners/2361879252/1394406164
p488
aVhttps://pbs.twimg.com/profile_banners/154565007/1454937375
p489
aVhttps://pbs.twimg.com/profile_banners/493141781/1454856212
p490
aVhttps://pbs.twimg.com/profile_banners/345681713/1454668155
p491
aVhttps://pbs.twimg.com/profile_banners/338255196/1454942481
p492
aVhttps://pbs.twimg.com/profile_banners/1372754983/1452535204
p493
aVhttps://pbs.twimg.com/profile_banners/135323401/1455077748
p494
aVhttps://pbs.twimg.com/profile_banners/2289982273/1445951790
p495
aVhttps://pbs.twimg.com/profile_banners/2763858194/1422411477
p496
aVhttps://pbs.twimg.com/profile_banners/1592513071/1455378727
p497
aVhttps://pbs.twimg.com/profile_banners/376927658/1396621855
p498
aVhttps://pbs.twimg.com/profile_banners/2865942630/1455150290
p499
aVhttps://pbs.twimg.com/profile_banners/533693833/1453585601
p500
aVhttps://pbs.twimg.com/profile_banners/140483789/1442837232
p501
aVhttps://pbs.twimg.com/profile_banners/4302057380/1449759295
p502
aVhttps://pbs.twimg.com/profile_banners/456165785/1452796857
p503
aVhttps://pbs.twimg.com/profile_banners/353682066/1455226084
p504
aVhttps://pbs.twimg.com/profile_banners/4602015856/1454113651
p505
aVhttps://pbs.twimg.com/profile_banners/1695899791/1443131239
p506
aVhttps://pbs.twimg.com/profile_banners/3436702785/1454190157
p507
aVhttps://pbs.twimg.com/profile_banners/21401466/1444254127
p508
aVhttps://pbs.twimg.com/profile_banners/118084046/1451320684
p509
aVhttps://pbs.twimg.com/profile_banners/4735135461/1452180151
p510
aVhttps://pbs.twimg.com/profile_banners/296970456/1453555796
p511
aVhttps://pbs.twimg.com/profile_banners/2267996490/1454809980
p512
aVhttps://pbs.twimg.com/profile_banners/249606253/1380870407
p513
aVhttps://pbs.twimg.com/profile_banners/367794883/1447008341
p514
aVhttps://pbs.twimg.com/profile_banners/110503994/1384382540
p515
aVhttps://pbs.twimg.com/profile_banners/152079602/1454611118
p516
aVhttps://pbs.twimg.com/profile_banners/565096302/1435210362
p517
aVhttps://pbs.twimg.com/profile_banners/2447410335/1452675329
p518
aVhttps://pbs.twimg.com/profile_banners/596400041/1453221995
p519
aVhttps://pbs.twimg.com/profile_banners/2938558209/1455157893
p520
aVhttps://pbs.twimg.com/profile_banners/3306365671/1439550831
p521
aVhttps://pbs.twimg.com/profile_banners/339790387/1453053887
p522
aVhttps://pbs.twimg.com/profile_banners/1378247053/1379269310
p523
aVhttps://pbs.twimg.com/profile_banners/2751452970/1454771347
p524
aVhttps://pbs.twimg.com/profile_banners/1691064204/1453469190
p525
aVhttps://pbs.twimg.com/profile_banners/310548603/1446038824
p526
aVhttps://pbs.twimg.com/profile_banners/4837949921/1453541592
p527
aVhttps://pbs.twimg.com/profile_banners/818724770/1454345453
p528
aVhttps://pbs.twimg.com/profile_banners/1697076822/1454644493
p529
aVhttps://pbs.twimg.com/profile_banners/3105565975/1454812381
p530
aVhttps://pbs.twimg.com/profile_banners/355559690/1444870495
p531
aVhttps://pbs.twimg.com/profile_banners/2766245161/1455295351
p532
aVhttps://pbs.twimg.com/profile_banners/606307360/1448785680
p533
aVhttps://pbs.twimg.com/profile_banners/55886124/1447958349
p534
aVhttps://pbs.twimg.com/profile_banners/4712255466/1451978187
p535
aVhttps://pbs.twimg.com/profile_banners/621364184/1455145487
p536
aVhttps://pbs.twimg.com/profile_banners/22812883/1375902383
p537
aVhttps://pbs.twimg.com/profile_banners/21537251/1441208867
p538
aVhttps://pbs.twimg.com/profile_banners/2828005364/1454710098
p539
aVhttps://pbs.twimg.com/profile_banners/3293194884/1437846290
p540
aVhttps://pbs.twimg.com/profile_banners/907205893/1380663962
p541
aVhttps://pbs.twimg.com/profile_banners/793618339/1447149769
p542
aVhttps://pbs.twimg.com/profile_banners/2376569675/1454970790
p543
aVhttps://pbs.twimg.com/profile_banners/313049807/1454975088
p544
aVhttps://pbs.twimg.com/profile_banners/2468437369/1454890349
p545
aVhttps://pbs.twimg.com/profile_banners/776797393/1441399995
p546
aVhttps://pbs.twimg.com/profile_banners/531881711/1414203430
p547
aVhttps://pbs.twimg.com/profile_banners/631636154/1455142344
p548
aVhttps://pbs.twimg.com/profile_banners/3224712031/1454735685
p549
aVhttps://pbs.twimg.com/profile_banners/3329598526/1434465210
p550
aVhttps://pbs.twimg.com/profile_banners/2842841126/1454992454
p551
aVhttps://pbs.twimg.com/profile_banners/3091687185/1453534020
p552
aVhttps://pbs.twimg.com/profile_banners/2334032894/1445503464
p553
aVhttps://pbs.twimg.com/profile_banners/3165273853/1453580939
p554
aVhttps://pbs.twimg.com/profile_banners/1159787713/1455116477
p555
aVhttps://pbs.twimg.com/profile_banners/2474811490/1431992163
p556
aVhttps://pbs.twimg.com/profile_banners/1658722644/1425881922
p557
aVhttps://pbs.twimg.com/profile_banners/145953149/1455200345
p558
aVhttps://pbs.twimg.com/profile_banners/135124630/1441017335
p559
aVhttps://pbs.twimg.com/profile_banners/2556862682/1455287408
p560
aVhttps://pbs.twimg.com/profile_banners/316635261/1400714896
p561
aVhttps://pbs.twimg.com/profile_banners/2845075657/1455227681
p562
aVhttps://pbs.twimg.com/profile_banners/467190743/1438305418
p563
aVhttps://pbs.twimg.com/profile_banners/617442479/1453418036
p564
aVhttps://pbs.twimg.com/profile_banners/322593060/1454879480
p565
aVhttps://pbs.twimg.com/profile_banners/490748271/1449721419
p566
aVhttps://pbs.twimg.com/profile_banners/243262030/1422537721
p567
aVhttps://pbs.twimg.com/profile_banners/83108577/1453408365
p568
aVhttps://pbs.twimg.com/profile_banners/83701522/1445788593
p569
aVhttps://pbs.twimg.com/profile_banners/111137777/1448135763
p570
aVhttps://pbs.twimg.com/profile_banners/82440133/1450109361
p571
aVhttps://pbs.twimg.com/profile_banners/589616442/1385913805
p572
aVhttps://pbs.twimg.com/profile_banners/145087572/1453519413
p573
aVhttps://pbs.twimg.com/profile_banners/2180762798/1439912180
p574
aVhttps://pbs.twimg.com/profile_banners/3174404501/1455340081
p575
aVhttps://pbs.twimg.com/profile_banners/153368708/1402407769
p576
aVhttps://pbs.twimg.com/profile_banners/1271991079/1397340655
p577
aVhttps://pbs.twimg.com/profile_banners/4475823015/1450074726
p578
aVhttps://pbs.twimg.com/profile_banners/1947757273/1441123371
p579
aVhttps://pbs.twimg.com/profile_banners/2833086934/1454820566
p580
aVhttps://pbs.twimg.com/profile_banners/314414504/1452101552
p581
aVhttps://pbs.twimg.com/profile_banners/3864480514/1451130050
p582
aVhttps://pbs.twimg.com/profile_banners/563894825/1423982020
p583
aVhttps://pbs.twimg.com/profile_banners/3172308049/1429973491
p584
aVhttps://pbs.twimg.com/profile_banners/437964065/1454483525
p585
aVhttps://pbs.twimg.com/profile_banners/1312292940/1427754657
p586
aVhttps://pbs.twimg.com/profile_banners/3266954076/1450774599
p587
aVhttps://pbs.twimg.com/profile_banners/985561922/1447953471
p588
aVhttps://pbs.twimg.com/profile_banners/4121652256/1454512327
p589
aVhttps://pbs.twimg.com/profile_banners/1155411751/1452639667
p590
aVhttps://pbs.twimg.com/profile_banners/1380056208/1454903125
p591
aVhttps://pbs.twimg.com/profile_banners/2385536220/1448303523
p592
aVhttps://pbs.twimg.com/profile_banners/629494668/1443355649
p593
aVhttps://pbs.twimg.com/profile_banners/1966752738/1454211442
p594
aVhttps://pbs.twimg.com/profile_banners/4894765409/1455105652
p595
aVhttps://pbs.twimg.com/profile_banners/2184533755/1454127809
p596
aVhttps://pbs.twimg.com/profile_banners/2813543919/1452454813
p597
aVhttps://pbs.twimg.com/profile_banners/1468402921/1454351187
p598
aVhttps://pbs.twimg.com/profile_banners/316145569/1419755103
p599
aVhttps://pbs.twimg.com/profile_banners/2835373062/1417043517
p600
aVhttps://pbs.twimg.com/profile_banners/3025256943/1455216435
p601
aVhttps://pbs.twimg.com/profile_banners/60137257/1454130369
p602
aVhttps://pbs.twimg.com/profile_banners/504747403/1455223172
p603
aVhttps://pbs.twimg.com/profile_banners/1274953423/1452888609
p604
aVhttps://pbs.twimg.com/profile_banners/2225958393/1450975317
p605
aVhttps://pbs.twimg.com/profile_banners/3152172506/1454062890
p606
aVhttps://pbs.twimg.com/profile_banners/158351418/1444375413
p607
aVhttps://pbs.twimg.com/profile_banners/530830063/1455321472
p608
aVhttps://pbs.twimg.com/profile_banners/156636640/1451023508
p609
aVhttps://pbs.twimg.com/profile_banners/942624320/1431323428
p610
aVhttps://pbs.twimg.com/profile_banners/17691647/1396183322
p611
aVhttps://pbs.twimg.com/profile_banners/1596628994/1453253407
p612
aVhttps://pbs.twimg.com/profile_banners/2313633932/1435575526
p613
aVhttps://pbs.twimg.com/profile_banners/1499414455/1455334407
p614
aVhttps://pbs.twimg.com/profile_banners/4757299937/1452372017
p615
aVhttps://pbs.twimg.com/profile_banners/2444396438/1455255002
p616
aVhttps://pbs.twimg.com/profile_banners/233365419/1448071481
p617
aVhttps://pbs.twimg.com/profile_banners/2731028643/1454867630
p618
aVhttps://pbs.twimg.com/profile_banners/800624990/1357494563
p619
aVhttps://pbs.twimg.com/profile_banners/1648181846/1453348523
p620
aVhttps://pbs.twimg.com/profile_banners/239053092/1453370877
p621
aVhttps://pbs.twimg.com/profile_banners/1403713465/1454474226
p622
aVhttps://pbs.twimg.com/profile_banners/48715743/1402548413
p623
aVhttps://pbs.twimg.com/profile_banners/4839600915/1454297180
p624
aVhttps://pbs.twimg.com/profile_banners/1707619993/1454452526
p625
aVhttps://pbs.twimg.com/profile_banners/3290459550/1446999342
p626
aVhttps://pbs.twimg.com/profile_banners/1062579698/1452522593
p627
aVhttps://pbs.twimg.com/profile_banners/4845413109/1453728902
p628
aVhttps://pbs.twimg.com/profile_banners/2733208667/1454888685
p629
aVhttps://pbs.twimg.com/profile_banners/4731151496/1453932633
p630
aVhttps://pbs.twimg.com/profile_banners/566938737/1453985028
p631
aVhttps://pbs.twimg.com/profile_banners/82092832/1449739862
p632
aVhttps://pbs.twimg.com/profile_banners/1428069973/1455027891
p633
aVhttps://pbs.twimg.com/profile_banners/1107296156/1441671848
p634
aVhttps://pbs.twimg.com/profile_banners/3095981603/1454308617
p635
aVhttps://pbs.twimg.com/profile_banners/330345112/1455161823
p636
aVhttps://pbs.twimg.com/profile_banners/2727682431/1451527186
p637
aVhttps://pbs.twimg.com/profile_banners/543874873/1455056127
p638
aVhttps://pbs.twimg.com/profile_banners/3005872607/1453996871
p639
aVhttps://pbs.twimg.com/profile_banners/4441584805/1449144122
p640
aVhttps://pbs.twimg.com/profile_banners/2419503750/1450806728
p641
aVhttps://pbs.twimg.com/profile_banners/2908280291/1437784424
p642
aVhttps://pbs.twimg.com/profile_banners/1320051708/1448815034
p643
aVhttps://pbs.twimg.com/profile_banners/546447748/1429129192
p644
aVhttps://pbs.twimg.com/profile_banners/131440683/1436537428
p645
aVhttps://pbs.twimg.com/profile_banners/28374252/1452177351
p646
aVhttps://pbs.twimg.com/profile_banners/1301317999/1455194029
p647
aVhttps://pbs.twimg.com/profile_banners/2531978896/1455161701
p648
aVhttps://pbs.twimg.com/profile_banners/166658878/1453040281
p649
aVhttps://pbs.twimg.com/profile_banners/51813390/1432232164
p650
aVhttps://pbs.twimg.com/profile_banners/1329250440/1454173697
p651
aVhttps://pbs.twimg.com/profile_banners/53286307/1443071345
p652
aVhttps://pbs.twimg.com/profile_banners/446553464/1454281917
p653
aVhttps://pbs.twimg.com/profile_banners/1046806742/1454510584
p654
aVhttps://pbs.twimg.com/profile_banners/299585442/1418396552
p655
aVhttps://pbs.twimg.com/profile_banners/2934737074/1454682978
p656
aVhttps://pbs.twimg.com/profile_banners/345506084/1371575938
p657
aVhttps://pbs.twimg.com/profile_banners/1186333794/1424310561
p658
aVhttps://pbs.twimg.com/profile_banners/3303297112/1449289378
p659
aVhttps://pbs.twimg.com/profile_banners/4695826975/1453034424
p660
aVhttps://pbs.twimg.com/profile_banners/1005382124/1364790161
p661
aVhttps://pbs.twimg.com/profile_banners/4861814820/1454637217
p662
aVhttps://pbs.twimg.com/profile_banners/4502692512/1453059340
p663
aVhttps://pbs.twimg.com/profile_banners/2197225783/1454723854
p664
aVhttps://pbs.twimg.com/profile_banners/515881471/1446715311
p665
aVhttps://pbs.twimg.com/profile_banners/3070166740/1454981935
p666
aVhttps://pbs.twimg.com/profile_banners/2769858919/1430737528
p667
aVhttps://pbs.twimg.com/profile_banners/261549132/1455324294
p668
aVhttps://pbs.twimg.com/profile_banners/4317909015/1453857413
p669
aVhttps://pbs.twimg.com/profile_banners/2165811080/1450091717
p670
aVhttps://pbs.twimg.com/profile_banners/2942587130/1431786687
p671
aVhttps://pbs.twimg.com/profile_banners/408091224/1452564536
p672
aVhttps://pbs.twimg.com/profile_banners/1273747477/1454886584
p673
aVhttps://pbs.twimg.com/profile_banners/363588786/1454495207
p674
aVhttps://pbs.twimg.com/profile_banners/207171218/1414085974
p675
aVhttps://pbs.twimg.com/profile_banners/476536650/1454908062
p676
aVhttps://pbs.twimg.com/profile_banners/1853112116/1455022479
p677
aVhttps://pbs.twimg.com/profile_banners/244658706/1453679753
p678
aVhttps://pbs.twimg.com/profile_banners/385785012/1448167244
p679
aVhttps://pbs.twimg.com/profile_banners/2675738630/1453608771
p680
aVhttps://pbs.twimg.com/profile_banners/554049493/1451968006
p681
aVhttps://pbs.twimg.com/profile_banners/2563809071/1455377568
p682
aVhttps://pbs.twimg.com/profile_banners/163230111/1432314468
p683
aVhttps://pbs.twimg.com/profile_banners/59657502/1447865667
p684
aVhttps://pbs.twimg.com/profile_banners/3297305267/1453860553
p685
aVhttps://pbs.twimg.com/profile_banners/3377238565/1455287889
p686
aVhttps://pbs.twimg.com/profile_banners/851290194/1453179112
p687
aVhttps://pbs.twimg.com/profile_banners/64531550/1439569388
p688
aVhttps://pbs.twimg.com/profile_banners/1409589223/1371015583
p689
aVhttps://pbs.twimg.com/profile_banners/2889417634/1454906209
p690
aVhttps://pbs.twimg.com/profile_banners/2713545558/1454648014
p691
aVhttps://pbs.twimg.com/profile_banners/285851305/1453072228
p692
aVhttps://pbs.twimg.com/profile_banners/1885997700/1447134630
p693
aVhttps://pbs.twimg.com/profile_banners/3361865386/1455377845
p694
aVhttps://pbs.twimg.com/profile_banners/720371052/1452441791
p695
aVhttps://pbs.twimg.com/profile_banners/1737571044/1455034174
p696
aVhttps://pbs.twimg.com/profile_banners/220366626/1389134121
p697
aVhttps://pbs.twimg.com/profile_banners/66079234/1418831016
p698
aVhttps://pbs.twimg.com/profile_banners/579109548/1439044172
p699
aVhttps://pbs.twimg.com/profile_banners/3285891535/1447950625
p700
aVhttps://pbs.twimg.com/profile_banners/4331338037/1448986515
p701
aVhttps://pbs.twimg.com/profile_banners/363085880/1454303572
p702
aVhttps://pbs.twimg.com/profile_banners/92918854/1434316241
p703
aVhttps://pbs.twimg.com/profile_banners/1970094614/1416211556
p704
aVhttps://pbs.twimg.com/profile_banners/2220439952/1452079140
p705
aVhttps://pbs.twimg.com/profile_banners/1827220879/1426928353
p706
aVhttps://pbs.twimg.com/profile_banners/4839614079/1454342824
p707
aVhttps://pbs.twimg.com/profile_banners/2980033065/1450783720
p708
aVhttps://pbs.twimg.com/profile_banners/1723459104/1378156682
p709
aVhttps://pbs.twimg.com/profile_banners/2935475046/1455097900
p710
aVhttps://pbs.twimg.com/profile_banners/575156079/1382913701
p711
aVhttps://pbs.twimg.com/profile_banners/1025660186/1454762851
p712
aVhttps://pbs.twimg.com/profile_banners/274117534/1455075304
p713
aVhttps://pbs.twimg.com/profile_banners/2969100285/1446132428
p714
aVhttps://pbs.twimg.com/profile_banners/627852088/1453680480
p715
aVhttps://pbs.twimg.com/profile_banners/2392734679/1454971302
p716
aVhttps://pbs.twimg.com/profile_banners/1279063717/1454131694
p717
aVhttps://pbs.twimg.com/profile_banners/368322894/1376829510
p718
aVhttps://pbs.twimg.com/profile_banners/34780635/1402492197
p719
aVhttps://pbs.twimg.com/profile_banners/604332057/1455071621
p720
aVhttps://pbs.twimg.com/profile_banners/302361156/1450651796
p721
aVhttps://pbs.twimg.com/profile_banners/2496859657/1454870445
p722
aVhttps://pbs.twimg.com/profile_banners/2720685296/1409586039
p723
aVhttps://pbs.twimg.com/profile_banners/267554180/1452362008
p724
aVhttps://pbs.twimg.com/profile_banners/2586562533/1446282939
p725
aVhttps://pbs.twimg.com/profile_banners/393336155/1432882276
p726
aVhttps://pbs.twimg.com/profile_banners/3222524748/1453402219
p727
aVhttps://pbs.twimg.com/profile_banners/3489027193/1455008281
p728
aVhttps://pbs.twimg.com/profile_banners/52629461/1455076812
p729
aVhttps://pbs.twimg.com/profile_banners/4881015130/1454834037
p730
aVhttps://pbs.twimg.com/profile_banners/34507220/1441985482
p731
aVhttps://pbs.twimg.com/profile_banners/1339317506/1454568512
p732
aVhttps://pbs.twimg.com/profile_banners/17044695/1431970212
p733
aVhttps://pbs.twimg.com/profile_banners/24497893/1418274013
p734
aVhttps://pbs.twimg.com/profile_banners/2910021803/1417993143
p735
aVhttps://pbs.twimg.com/profile_banners/111023365/1452009929
p736
aVhttps://pbs.twimg.com/profile_banners/363358812/1452906924
p737
aVhttps://pbs.twimg.com/profile_banners/29361449/1424362993
p738
aVhttps://pbs.twimg.com/profile_banners/1418009850/1368190685
p739
aVhttps://pbs.twimg.com/profile_banners/367274003/1454582769
p740
aVhttps://pbs.twimg.com/profile_banners/883473938/1454092483
p741
aVhttps://pbs.twimg.com/profile_banners/748793696/1454769625
p742
aVhttps://pbs.twimg.com/profile_banners/1172275904/1455221511
p743
aVhttps://pbs.twimg.com/profile_banners/3013659931/1454264706
p744
aVhttps://pbs.twimg.com/profile_banners/3119768557/1453957001
p745
aVhttps://pbs.twimg.com/profile_banners/3351943589/1454808116
p746
aVhttps://pbs.twimg.com/profile_banners/160803661/1447465952
p747
aVhttps://pbs.twimg.com/profile_banners/174727775/1452707201
p748
aVhttps://pbs.twimg.com/profile_banners/4413532693/1454310393
p749
aVhttps://pbs.twimg.com/profile_banners/543625403/1442893667
p750
aVhttps://pbs.twimg.com/profile_banners/2856801588/1454129919
p751
aVhttps://pbs.twimg.com/profile_banners/151629559/1443480266
p752
aVhttps://pbs.twimg.com/profile_banners/3028236521/1454805947
p753
aVhttps://pbs.twimg.com/profile_banners/766116985/1452691584
p754
aVhttps://pbs.twimg.com/profile_banners/45829264/1363434850
p755
aVhttps://pbs.twimg.com/profile_banners/3029164037/1452868755
p756
aVhttps://pbs.twimg.com/profile_banners/319459678/1439734558
p757
aVhttps://pbs.twimg.com/profile_banners/1677784453/1451822837
p758
aVhttps://pbs.twimg.com/profile_banners/14837505/1418878497
p759
aVhttps://pbs.twimg.com/profile_banners/2309702606/1453661108
p760
aVhttps://pbs.twimg.com/profile_banners/2147587014/1430515964
p761
aVhttps://pbs.twimg.com/profile_banners/237593693/1434222943
p762
aVhttps://pbs.twimg.com/profile_banners/2421504660/1424024066
p763
aVhttps://pbs.twimg.com/profile_banners/187513613/1398236887
p764
aVhttps://pbs.twimg.com/profile_banners/4775263872/1455209085
p765
aVhttps://pbs.twimg.com/profile_banners/3193204558/1453339536
p766
aVhttps://pbs.twimg.com/profile_banners/826673742/1441373409
p767
aVhttps://pbs.twimg.com/profile_banners/627251683/1442055862
p768
aVhttps://pbs.twimg.com/profile_banners/1199740056/1454774639
p769
aVhttps://pbs.twimg.com/profile_banners/4343499313/1455206151
p770
aVhttps://pbs.twimg.com/profile_banners/4641466278/1450937450
p771
aVhttps://pbs.twimg.com/profile_banners/33736510/1452678822
p772
aVhttps://pbs.twimg.com/profile_banners/1321654860/1453332716
p773
aVhttps://pbs.twimg.com/profile_banners/51271929/1451680260
p774
aVhttps://pbs.twimg.com/profile_banners/2259482287/1454984215
p775
aVhttps://pbs.twimg.com/profile_banners/73035033/1436716554
p776
aVhttps://pbs.twimg.com/profile_banners/974083267/1454709445
p777
aVhttps://pbs.twimg.com/profile_banners/353530617/1450787988
p778
aVhttps://pbs.twimg.com/profile_banners/3012367491/1452311192
p779
aVhttps://pbs.twimg.com/profile_banners/2691714194/1453695155
p780
aVhttps://pbs.twimg.com/profile_banners/774960721/1445714737
p781
aVhttps://pbs.twimg.com/profile_banners/325523541/1408390083
p782
aVhttps://pbs.twimg.com/profile_banners/954005587/1417432275
p783
aVhttps://pbs.twimg.com/profile_banners/2482173121/1455343458
p784
aVhttps://pbs.twimg.com/profile_banners/303457303/1455048108
p785
aVhttps://pbs.twimg.com/profile_banners/247990697/1450485642
p786
aVhttps://pbs.twimg.com/profile_banners/461869152/1417463914
p787
aVhttps://pbs.twimg.com/profile_banners/75421947/1454779819
p788
aVhttps://pbs.twimg.com/profile_banners/542726534/1408687390
p789
aVhttps://pbs.twimg.com/profile_banners/109352487/1431466974
p790
aVhttps://pbs.twimg.com/profile_banners/25337249/1419688743
p791
aVhttps://pbs.twimg.com/profile_banners/337545303/1402415567
p792
aVhttps://pbs.twimg.com/profile_banners/83431172/1438048805
p793
aVhttps://pbs.twimg.com/profile_banners/735793982/1451614866
p794
aVhttps://pbs.twimg.com/profile_banners/3124320646/1454241242
p795
aVhttps://pbs.twimg.com/profile_banners/435026338/1454547630
p796
aVhttps://pbs.twimg.com/profile_banners/495439177/1434103097
p797
aVhttps://pbs.twimg.com/profile_banners/2940117632/1454315464
p798
aVhttps://pbs.twimg.com/profile_banners/1598054540/1402254716
p799
aVhttps://pbs.twimg.com/profile_banners/3008723726/1451658033
p800
aVhttps://pbs.twimg.com/profile_banners/291348112/1454845844
p801
aVhttps://pbs.twimg.com/profile_banners/2773259164/1454708174
p802
aVhttps://pbs.twimg.com/profile_banners/1579649833/1454977810
p803
aVhttps://pbs.twimg.com/profile_banners/2738491026/1446948911
p804
aVhttps://pbs.twimg.com/profile_banners/1265653770/1444323124
p805
aVhttps://pbs.twimg.com/profile_banners/3267374484/1435958897
p806
aVhttps://pbs.twimg.com/profile_banners/4764855643/1452965168
p807
aVhttps://pbs.twimg.com/profile_banners/58294406/1445880953
p808
aVhttps://pbs.twimg.com/profile_banners/2320760442/1391175720
p809
aVhttps://pbs.twimg.com/profile_banners/4143710025/1454448783
p810
aVhttps://pbs.twimg.com/profile_banners/62495788/1451496066
p811
aVhttps://pbs.twimg.com/profile_banners/399026622/1437223998
p812
aVhttps://pbs.twimg.com/profile_banners/1569863394/1452836359
p813
aVhttps://pbs.twimg.com/profile_banners/140356699/1445454434
p814
aVhttps://pbs.twimg.com/profile_banners/36313042/1453076710
p815
aVhttps://pbs.twimg.com/profile_banners/1611858558/1452631392
p816
aVhttps://pbs.twimg.com/profile_banners/842943242/1448242065
p817
aVhttps://pbs.twimg.com/profile_banners/1183898623/1454364491
p818
aVhttps://pbs.twimg.com/profile_banners/1209782599/1381690758
p819
aVhttps://pbs.twimg.com/profile_banners/1056352933/1454328440
p820
aVhttps://pbs.twimg.com/profile_banners/229947505/1454424630
p821
aVhttps://pbs.twimg.com/profile_banners/2856042660/1449538037
p822
aVhttps://pbs.twimg.com/profile_banners/4847201536/1453764663
p823
aVhttps://pbs.twimg.com/profile_banners/565191885/1454132838
p824
aVhttps://pbs.twimg.com/profile_banners/460342171/1397431382
p825
aVhttps://pbs.twimg.com/profile_banners/3076991588/1447679942
p826
aVhttps://pbs.twimg.com/profile_banners/1601798467/1450822942
p827
aVhttps://pbs.twimg.com/profile_banners/21862005/1401633295
p828
aVhttps://pbs.twimg.com/profile_banners/4899931855/1455330653
p829
aVhttps://pbs.twimg.com/profile_banners/387523648/1455355228
p830
aVhttps://pbs.twimg.com/profile_banners/554511080/1400066102
p831
aVhttps://pbs.twimg.com/profile_banners/774272588/1454996505
p832
aVhttps://pbs.twimg.com/profile_banners/1515169724/1451626675
p833
aVhttps://pbs.twimg.com/profile_banners/496048706/1455285028
p834
aVhttps://pbs.twimg.com/profile_banners/19976230/1438085440
p835
aVhttps://pbs.twimg.com/profile_banners/357660423/1400708345
p836
aVhttps://pbs.twimg.com/profile_banners/157993586/1441205899
p837
aVhttps://pbs.twimg.com/profile_banners/3257570624/1455020531
p838
aVhttps://pbs.twimg.com/profile_banners/1675593236/1441796471
p839
aVhttps://pbs.twimg.com/profile_banners/1215947096/1450360841
p840
aVhttps://pbs.twimg.com/profile_banners/2325537480/1398359321
p841
aVhttps://pbs.twimg.com/profile_banners/157983749/1452618891
p842
aVhttps://pbs.twimg.com/profile_banners/2831606192/1454678562
p843
aVhttps://pbs.twimg.com/profile_banners/4848708449/1453793996
p844
aVhttps://pbs.twimg.com/profile_banners/2942824042/1455247985
p845
aVhttps://pbs.twimg.com/profile_banners/297585782/1454255755
p846
aVhttps://pbs.twimg.com/profile_banners/48139979/1443363968
p847
aVhttps://pbs.twimg.com/profile_banners/3380311907/1452722183
p848
aVhttps://pbs.twimg.com/profile_banners/2322267491/1407898321
p849
aVhttps://pbs.twimg.com/profile_banners/2829979826/1453837867
p850
aVhttps://pbs.twimg.com/profile_banners/472593375/1452166526
p851
aVhttps://pbs.twimg.com/profile_banners/3702014237/1455315230
p852
aVhttps://pbs.twimg.com/profile_banners/581927128/1452909288
p853
aVhttps://pbs.twimg.com/profile_banners/96185616/1439106529
p854
aVhttps://pbs.twimg.com/profile_banners/4849157923/1455099850
p855
aVhttps://pbs.twimg.com/profile_banners/2181437093/1452405995
p856
aVhttps://pbs.twimg.com/profile_banners/2961137890/1422871649
p857
aVhttps://pbs.twimg.com/profile_banners/2198684264/1453997425
p858
aVhttps://pbs.twimg.com/profile_banners/443426560/1442205540
p859
aVhttps://pbs.twimg.com/profile_banners/47630337/1428773691
p860
aVhttps://pbs.twimg.com/profile_banners/433072910/1405361088
p861
aVhttps://pbs.twimg.com/profile_banners/1011866719/1454428738
p862
aVhttps://pbs.twimg.com/profile_banners/2992848122/1447394200
p863
aVhttps://pbs.twimg.com/profile_banners/16788661/1454688423
p864
aVhttps://pbs.twimg.com/profile_banners/2962767239/1454089050
p865
aVhttps://pbs.twimg.com/profile_banners/3225696392/1449343228
p866
aVhttps://pbs.twimg.com/profile_banners/19888472/1451693364
p867
aVhttps://pbs.twimg.com/profile_banners/2209479139/1444382294
p868
aVhttps://pbs.twimg.com/profile_banners/3483784994/1455312167
p869
aVhttps://pbs.twimg.com/profile_banners/2961178498/1449938950
p870
aVhttps://pbs.twimg.com/profile_banners/595990770/1453998778
p871
aVhttps://pbs.twimg.com/profile_banners/4581549275/1450899386
p872
aVhttps://pbs.twimg.com/profile_banners/180894437/1445110041
p873
aVhttps://pbs.twimg.com/profile_banners/2681091392/1454361896
p874
aVhttps://pbs.twimg.com/profile_banners/232275393/1424555412
p875
aVhttps://pbs.twimg.com/profile_banners/2561766512/1402508808
p876
aVhttps://pbs.twimg.com/profile_banners/3071736762/1454852330
p877
aVhttps://pbs.twimg.com/profile_banners/2820255617/1454984942
p878
aVhttps://pbs.twimg.com/profile_banners/1080856356/1452276042
p879
aVhttps://pbs.twimg.com/profile_banners/83811390/1452532723
p880
aVhttps://pbs.twimg.com/profile_banners/1893673634/1455356114
p881
aVhttps://pbs.twimg.com/profile_banners/188951613/1454867818
p882
aVhttps://pbs.twimg.com/profile_banners/167376713/1398782363
p883
aVhttps://pbs.twimg.com/profile_banners/1296951918/1421085455
p884
aVhttps://pbs.twimg.com/profile_banners/627041148/1455269711
p885
aVhttps://pbs.twimg.com/profile_banners/1000923685/1435274546
p886
aVhttps://pbs.twimg.com/profile_banners/302140715/1360815698
p887
aVhttps://pbs.twimg.com/profile_banners/4224756673/1447575648
p888
aVhttps://pbs.twimg.com/profile_banners/3914159772/1445003633
p889
aVhttps://pbs.twimg.com/profile_banners/15545122/1454336338
p890
aVhttps://pbs.twimg.com/profile_banners/372567052/1450079055
p891
aVhttps://pbs.twimg.com/profile_banners/706538593/1450116225
p892
aVhttps://pbs.twimg.com/profile_banners/1209488815/1452886098
p893
aVhttps://pbs.twimg.com/profile_banners/3803785340/1444140550
p894
aVhttps://pbs.twimg.com/profile_banners/2196154046/1454065949
p895
aVhttps://pbs.twimg.com/profile_banners/2343942818/1452709009
p896
aVhttps://pbs.twimg.com/profile_banners/53713195/1453153218
p897
aVhttps://pbs.twimg.com/profile_banners/1978222081/1453846414
p898
aVhttps://pbs.twimg.com/profile_banners/881402617/1427826144
p899
aVhttps://pbs.twimg.com/profile_banners/111686421/1370898101
p900
aVhttps://pbs.twimg.com/profile_banners/410257891/1452384526
p901
aVhttps://pbs.twimg.com/profile_banners/1415628540/1432382650
p902
aVhttps://pbs.twimg.com/profile_banners/1542851594/1454314850
p903
aVhttps://pbs.twimg.com/profile_banners/2414913756/1433109171
p904
aVhttps://pbs.twimg.com/profile_banners/2675436460/1405582022
p905
aVhttps://pbs.twimg.com/profile_banners/2510432082/1455353202
p906
aVhttps://pbs.twimg.com/profile_banners/1380506184/1417091828
p907
aVhttps://pbs.twimg.com/profile_banners/2955138474/1430445285
p908
aVhttps://pbs.twimg.com/profile_banners/855619244/1439671757
p909
aVhttps://pbs.twimg.com/profile_banners/748754989/1454542721
p910
aVhttps://pbs.twimg.com/profile_banners/16910869/1395267300
p911
aVhttps://pbs.twimg.com/profile_banners/4204306823/1454708198
p912
aVhttps://pbs.twimg.com/profile_banners/312122587/1451847567
p913
aVhttps://pbs.twimg.com/profile_banners/1359663241/1455095854
p914
aVhttps://pbs.twimg.com/profile_banners/4661325853/1455374147
p915
aVhttps://pbs.twimg.com/profile_banners/4900032681/1455244826
p916
aVhttps://pbs.twimg.com/profile_banners/160044558/1454446447
p917
aVhttps://pbs.twimg.com/profile_banners/111191339/1451668791
p918
aVhttps://pbs.twimg.com/profile_banners/407176958/1420114228
p919
aVhttps://pbs.twimg.com/profile_banners/579070244/1455262246
p920
aVhttps://pbs.twimg.com/profile_banners/2905744809/1428510786
p921
aVhttps://pbs.twimg.com/profile_banners/820353073/1380278748
p922
aVhttps://pbs.twimg.com/profile_banners/74495631/1439762953
p923
aVhttps://pbs.twimg.com/profile_banners/3278257213/1436767785
p924
aVhttps://pbs.twimg.com/profile_banners/4882925845/1455020950
p925
aVhttps://pbs.twimg.com/profile_banners/2519202426/1453561190
p926
aVhttps://pbs.twimg.com/profile_banners/2241686360/1454550041
p927
aVhttps://pbs.twimg.com/profile_banners/3271229221/1450576350
p928
aVhttps://pbs.twimg.com/profile_banners/2854167024/1441539888
p929
aVhttps://pbs.twimg.com/profile_banners/2450606460/1455374939
p930
aVhttps://pbs.twimg.com/profile_banners/447423004/1444620367
p931
aVhttps://pbs.twimg.com/profile_banners/4452794113/1455169588
p932
aVhttps://pbs.twimg.com/profile_banners/52891634/1398262135
p933
aVhttps://pbs.twimg.com/profile_banners/3304161441/1445230565
p934
aVhttps://pbs.twimg.com/profile_banners/487825725/1446787100
p935
aVhttps://pbs.twimg.com/profile_banners/2846024103/1414370483
p936
aVhttps://pbs.twimg.com/profile_banners/711049046/1452295719
p937
aVhttps://pbs.twimg.com/profile_banners/347907344/1452820724
p938
aVhttps://pbs.twimg.com/profile_banners/403816606/1426998055
p939
aVhttps://pbs.twimg.com/profile_banners/286822259/1432066352
p940
aVhttps://pbs.twimg.com/profile_banners/2921839644/1440432158
p941
aVhttps://pbs.twimg.com/profile_banners/227258566/1428381798
p942
aVhttps://pbs.twimg.com/profile_banners/4883877813/1454910306
p943
aVhttps://pbs.twimg.com/profile_banners/163060322/1452521810
p944
aVhttps://pbs.twimg.com/profile_banners/2200195905/1453921667
p945
aVhttps://pbs.twimg.com/profile_banners/515014628/1449867961
p946
aVhttps://pbs.twimg.com/profile_banners/4659913758/1455023724
p947
aVhttps://pbs.twimg.com/profile_banners/1495164260/1425729450
p948
aVhttps://pbs.twimg.com/profile_banners/41409888/1423177109
p949
aVhttps://pbs.twimg.com/profile_banners/109243094/1450944008
p950
aVhttps://pbs.twimg.com/profile_banners/2205576060/1453987364
p951
aVhttps://pbs.twimg.com/profile_banners/1543114717/1454877544
p952
aVhttps://pbs.twimg.com/profile_banners/1860527946/1454475766
p953
aVhttps://pbs.twimg.com/profile_banners/53388437/1448777204
p954
aVhttps://pbs.twimg.com/profile_banners/2224521401/1450143204
p955
aVhttps://pbs.twimg.com/profile_banners/603573724/1437422458
p956
aVhttps://pbs.twimg.com/profile_banners/768688039/1450313483
p957
aVhttps://pbs.twimg.com/profile_banners/291548159/1427042915
p958
aVhttps://pbs.twimg.com/profile_banners/306329252/1434508681
p959
aVhttps://pbs.twimg.com/profile_banners/323251945/1438354546
p960
aVhttps://pbs.twimg.com/profile_banners/3219648773/1455238658
p961
aVhttps://pbs.twimg.com/profile_banners/3236168116/1455377214
p962
aVhttps://pbs.twimg.com/profile_banners/16813752/1454925390
p963
aVhttps://pbs.twimg.com/profile_banners/3120406827/1454737350
p964
aVhttps://pbs.twimg.com/profile_banners/2761047838/1452893744
p965
aVhttps://pbs.twimg.com/profile_banners/2603751426/1455259379
p966
aVhttps://pbs.twimg.com/profile_banners/505878180/1406467309
p967
aVhttps://pbs.twimg.com/profile_banners/4722462007/1452180040
p968
aVhttps://pbs.twimg.com/profile_banners/1625413224/1434012640
p969
aVhttps://pbs.twimg.com/profile_banners/1551380113/1455139151
p970
aVhttps://pbs.twimg.com/profile_banners/463270800/1433853209
p971
aVhttps://pbs.twimg.com/profile_banners/2886049035/1452135925
p972
aVhttps://pbs.twimg.com/profile_banners/4839722062/1454327930
p973
aVhttps://pbs.twimg.com/profile_banners/220989525/1453288006
p974
aVhttps://pbs.twimg.com/profile_banners/2282616339/1448739541
p975
aVhttps://pbs.twimg.com/profile_banners/1403578801/1422412879
p976
aVhttps://pbs.twimg.com/profile_banners/784694388/1438210511
p977
aVhttps://pbs.twimg.com/profile_banners/2304628967/1455373463
p978
aVhttps://pbs.twimg.com/profile_banners/3215007520/1454965078
p979
aVhttps://pbs.twimg.com/profile_banners/292661482/1454913557
p980
aVhttps://pbs.twimg.com/profile_banners/325924890/1429232741
p981
aVhttps://pbs.twimg.com/profile_banners/4030535057/1454259135
p982
aVhttps://pbs.twimg.com/profile_banners/1074726764/1451173481
p983
aVhttps://pbs.twimg.com/profile_banners/1838260537/1454126691
p984
aVhttps://pbs.twimg.com/profile_banners/1925046092/1449580158
p985
aVhttps://pbs.twimg.com/profile_banners/283000346/1451728955
p986
aVhttps://pbs.twimg.com/profile_banners/2950171662/1452963797
p987
aVhttps://pbs.twimg.com/profile_banners/1977169404/1417943071
p988
aVhttps://pbs.twimg.com/profile_banners/2601839814/1431133805
p989
aVhttps://pbs.twimg.com/profile_banners/1389510660/1424344725
p990
aVhttps://pbs.twimg.com/profile_banners/637144020/1450950494
p991
aVhttps://pbs.twimg.com/profile_banners/2661438554/1453664119
p992
aVhttps://pbs.twimg.com/profile_banners/1202383224/1414551404
p993
aVhttps://pbs.twimg.com/profile_banners/12622692/1442521122
p994
aVhttps://pbs.twimg.com/profile_banners/618328819/1455155477
p995
aVhttps://pbs.twimg.com/profile_banners/70677962/1450605066
p996
aVhttps://pbs.twimg.com/profile_banners/1413592657/1454466862
p997
aVhttps://pbs.twimg.com/profile_banners/2373651602/1408453186
p998
aVhttps://pbs.twimg.com/profile_banners/1958101063/1452951466
p999
aVhttps://pbs.twimg.com/profile_banners/29229132/1403289780
p1000
aVhttps://pbs.twimg.com/profile_banners/539378144/1455172375
p1001
aVhttps://pbs.twimg.com/profile_banners/415062893/1440360454
p1002
aVhttps://pbs.twimg.com/profile_banners/375506398/1446646545
p1003
aVhttps://pbs.twimg.com/profile_banners/1364795191/1448453520
p1004
aVhttps://pbs.twimg.com/profile_banners/780555800/1451939079
p1005
aVhttps://pbs.twimg.com/profile_banners/499150884/1452573660
p1006
aVhttps://pbs.twimg.com/profile_banners/1226175140/1454051594
p1007
aVhttps://pbs.twimg.com/profile_banners/2184946372/1453419692
p1008
aVhttps://pbs.twimg.com/profile_banners/16710749/1391379193
p1009
aVhttps://pbs.twimg.com/profile_banners/215388979/1367587343
p1010
aVhttps://pbs.twimg.com/profile_banners/1419374287/1418263646
p1011
aVhttps://pbs.twimg.com/profile_banners/545563116/1441427826
p1012
aVhttps://pbs.twimg.com/profile_banners/2351607008/1453526117
p1013
aVhttps://pbs.twimg.com/profile_banners/614173602/1430883153
p1014
aVhttps://pbs.twimg.com/profile_banners/452463249/1454835952
p1015
aVhttps://pbs.twimg.com/profile_banners/506893220/1426347946
p1016
aVhttps://pbs.twimg.com/profile_banners/501362805/1453566255
p1017
aVhttps://pbs.twimg.com/profile_banners/3258464683/1442231680
p1018
aVhttps://pbs.twimg.com/profile_banners/4865708369/1455328218
p1019
aVhttps://pbs.twimg.com/profile_banners/30781544/1447855929
p1020
aVhttps://pbs.twimg.com/profile_banners/2492409684/1454859060
p1021
aVhttps://pbs.twimg.com/profile_banners/520609524/1455065209
p1022
aVhttps://pbs.twimg.com/profile_banners/3963528552/1445388600
p1023
aVhttps://pbs.twimg.com/profile_banners/947539758/1368681834
p1024
aVhttps://pbs.twimg.com/profile_banners/2265623106/1454676732
p1025
aVhttps://pbs.twimg.com/profile_banners/253652843/1439412815
p1026
aVhttps://pbs.twimg.com/profile_banners/1323331399/1448467098
p1027
aVhttps://pbs.twimg.com/profile_banners/2196945216/1453080577
p1028
aVhttps://pbs.twimg.com/profile_banners/310088039/1451665846
p1029
aVhttps://pbs.twimg.com/profile_banners/240809254/1454631125
p1030
aVhttps://pbs.twimg.com/profile_banners/4742261520/1452501621
p1031
aVhttps://pbs.twimg.com/profile_banners/3335824511/1454363789
p1032
aVhttps://pbs.twimg.com/profile_banners/280559168/1415497903
p1033
aVhttps://pbs.twimg.com/profile_banners/2697181368/1452228165
p1034
aVhttps://pbs.twimg.com/profile_banners/575368368/1358831610
p1035
aVhttps://pbs.twimg.com/profile_banners/522292803/1380188909
p1036
aVhttps://pbs.twimg.com/profile_banners/2983122514/1455206136
p1037
aVhttps://pbs.twimg.com/profile_banners/4523389281/1455375243
p1038
aVhttps://pbs.twimg.com/profile_banners/173817716/1439805300
p1039
aVhttps://pbs.twimg.com/profile_banners/1434268608/1455013605
p1040
aVhttps://pbs.twimg.com/profile_banners/40227640/1451755794
p1041
aVhttps://pbs.twimg.com/profile_banners/199036077/1366780358
p1042
aVhttps://pbs.twimg.com/profile_banners/353804840/1453318302
p1043
aVhttps://pbs.twimg.com/profile_banners/3248994133/1450308949
p1044
aVhttps://pbs.twimg.com/profile_banners/1487760920/1455310146
p1045
aVhttps://pbs.twimg.com/profile_banners/3393259037/1454687802
p1046
aVhttps://pbs.twimg.com/profile_banners/151214518/1356479605
p1047
aVhttps://pbs.twimg.com/profile_banners/2436728471/1454984270
p1048
aVhttps://pbs.twimg.com/profile_banners/580325803/1454899704
p1049
aVhttps://pbs.twimg.com/profile_banners/2154809037/1428442630
p1050
aVhttps://pbs.twimg.com/profile_banners/404421711/1421897038
p1051
aVhttps://pbs.twimg.com/profile_banners/2716227643/1454566783
p1052
aVhttps://pbs.twimg.com/profile_banners/1196787342/1451486191
p1053
aVhttps://pbs.twimg.com/profile_banners/32881697/1349408914
p1054
aVhttps://pbs.twimg.com/profile_banners/1275228253/1450703097
p1055
aVhttps://pbs.twimg.com/profile_banners/3338379245/1453504230
p1056
aVhttps://pbs.twimg.com/profile_banners/3161511655/1452308990
p1057
aVhttps://pbs.twimg.com/profile_banners/14784939/1425559929
p1058
aVhttps://pbs.twimg.com/profile_banners/1177602061/1435396108
p1059
aVhttps://pbs.twimg.com/profile_banners/1440635012/1450906396
p1060
aVhttps://pbs.twimg.com/profile_banners/2185643081/1454635583
p1061
aVhttps://pbs.twimg.com/profile_banners/477152303/1454985403
p1062
aVhttps://pbs.twimg.com/profile_banners/4843737852/1454318262
p1063
aVhttps://pbs.twimg.com/profile_banners/2940126383/1454466250
p1064
aVhttps://pbs.twimg.com/profile_banners/4899933785/1455299111
p1065
aVhttps://pbs.twimg.com/profile_banners/718155058/1453651296
p1066
aVhttps://pbs.twimg.com/profile_banners/3743647710/1443671188
p1067
aVhttps://pbs.twimg.com/profile_banners/385818318/1420874432
p1068
aVhttps://pbs.twimg.com/profile_banners/406471536/1455088467
p1069
aVhttps://pbs.twimg.com/profile_banners/2999385127/1454126515
p1070
aVhttps://pbs.twimg.com/profile_banners/4528558337/1453230742
p1071
aVhttps://pbs.twimg.com/profile_banners/183497679/1453050611
p1072
aVhttps://pbs.twimg.com/profile_banners/4898693403/1455214516
p1073
aVhttps://pbs.twimg.com/profile_banners/1665166488/1454475754
p1074
aVhttps://pbs.twimg.com/profile_banners/4715605883/1453745544
p1075
aVhttps://pbs.twimg.com/profile_banners/2269622336/1426656025
p1076
aVhttps://pbs.twimg.com/profile_banners/274890839/1444994209
p1077
aVhttps://pbs.twimg.com/profile_banners/44641905/1435761464
p1078
aVhttps://pbs.twimg.com/profile_banners/3314104043/1445024090
p1079
aVhttps://pbs.twimg.com/profile_banners/19013915/1455073200
p1080
aVhttps://pbs.twimg.com/profile_banners/457692129/1445140509
p1081
aVhttps://pbs.twimg.com/profile_banners/2248976857/1453557280
p1082
aVhttps://pbs.twimg.com/profile_banners/3325742521/1440726071
p1083
aVhttps://pbs.twimg.com/profile_banners/309777755/1454749713
p1084
aVhttps://pbs.twimg.com/profile_banners/4875415095/1454714471
p1085
aVhttps://pbs.twimg.com/profile_banners/3878744119/1445974137
p1086
aVhttps://pbs.twimg.com/profile_banners/43725038/1451942283
p1087
aVhttps://pbs.twimg.com/profile_banners/2853841385/1452115682
p1088
aVhttps://pbs.twimg.com/profile_banners/4827575463/1454782464
p1089
aVhttps://pbs.twimg.com/profile_banners/2541898981/1450607115
p1090
aVhttps://pbs.twimg.com/profile_banners/4001144549/1448221426
p1091
aVhttps://pbs.twimg.com/profile_banners/3017662073/1454755078
p1092
aVhttps://pbs.twimg.com/profile_banners/467898827/1448175178
p1093
aVhttps://pbs.twimg.com/profile_banners/171851126/1454630747
p1094
aVhttps://pbs.twimg.com/profile_banners/392010721/1452458505
p1095
aVhttps://pbs.twimg.com/profile_banners/1368478189/1409710942
p1096
aVhttps://pbs.twimg.com/profile_banners/165258134/1449451372
p1097
aVhttps://pbs.twimg.com/profile_banners/28749481/1404316686
p1098
aVhttps://pbs.twimg.com/profile_banners/1681195404/1453168775
p1099
aVhttps://pbs.twimg.com/profile_banners/252358105/1411671001
p1100
aVhttps://pbs.twimg.com/profile_banners/2948297527/1455371774
p1101
aVhttps://pbs.twimg.com/profile_banners/1879691180/1453286184
p1102
aVhttps://pbs.twimg.com/profile_banners/442420999/1448227567
p1103
aVhttps://pbs.twimg.com/profile_banners/698189998944718848/1455334566
p1104
aVhttps://pbs.twimg.com/profile_banners/2158106015/1454715204
p1105
aVhttps://pbs.twimg.com/profile_banners/220580068/1450497175
p1106
aVhttps://pbs.twimg.com/profile_banners/165399426/1447096241
p1107
aVhttps://pbs.twimg.com/profile_banners/45043281/1418950257
p1108
aVhttps://pbs.twimg.com/profile_banners/933632528/1454961799
p1109
aVhttps://pbs.twimg.com/profile_banners/144481913/1444911903
p1110
aVhttps://pbs.twimg.com/profile_banners/255117458/1455362912
p1111
aVhttps://pbs.twimg.com/profile_banners/353721122/1452553979
p1112
aVhttps://pbs.twimg.com/profile_banners/188768573/1409231529
p1113
aVhttps://pbs.twimg.com/profile_banners/81332416/1454621057
p1114
aVhttps://pbs.twimg.com/profile_banners/41579409/1446434700
p1115
aVhttps://pbs.twimg.com/profile_banners/3760687289/1450015020
p1116
aVhttps://pbs.twimg.com/profile_banners/2809263735/1452601743
p1117
aVhttps://pbs.twimg.com/profile_banners/38859528/1400301597
p1118
aVhttps://pbs.twimg.com/profile_banners/523613507/1454825176
p1119
aVhttps://pbs.twimg.com/profile_banners/1409832440/1410960744
p1120
aVhttps://pbs.twimg.com/profile_banners/220415007/1445647825
p1121
aVhttps://pbs.twimg.com/profile_banners/1685098406/1454486499
p1122
aVhttps://pbs.twimg.com/profile_banners/419026901/1369617623
p1123
aVhttps://pbs.twimg.com/profile_banners/774072534/1450779875
p1124
aVhttps://pbs.twimg.com/profile_banners/4742926704/1452705989
p1125
aVhttps://pbs.twimg.com/profile_banners/705287869/1454989027
p1126
aVhttps://pbs.twimg.com/profile_banners/334173512/1391681019
p1127
aVhttps://pbs.twimg.com/profile_banners/1180690560/1453188298
p1128
aVhttps://pbs.twimg.com/profile_banners/1024202592/1429362173
p1129
aVhttps://pbs.twimg.com/profile_banners/3353236869/1447286725
p1130
aVhttps://pbs.twimg.com/profile_banners/3147227134/1454544433
p1131
aVhttps://pbs.twimg.com/profile_banners/3054299986/1445134330
p1132
aVhttps://pbs.twimg.com/profile_banners/2888936964/1437511548
p1133
aVhttps://pbs.twimg.com/profile_banners/37370786/1453620850
p1134
aVhttps://pbs.twimg.com/profile_banners/78575590/1455075618
p1135
aVhttps://pbs.twimg.com/profile_banners/4086405453/1446340832
p1136
aVhttps://pbs.twimg.com/profile_banners/451215124/1435285176
p1137
aVhttps://pbs.twimg.com/profile_banners/3232148587/1455107841
p1138
aVhttps://pbs.twimg.com/profile_banners/1317211670/1442716631
p1139
aVhttps://pbs.twimg.com/profile_banners/3333553937/1438757156
p1140
aVhttps://pbs.twimg.com/profile_banners/2751147304/1454962703
p1141
aVhttps://pbs.twimg.com/profile_banners/3318620082/1450538474
p1142
aVhttps://pbs.twimg.com/profile_banners/245832458/1455043048
p1143
aVhttps://pbs.twimg.com/profile_banners/237934051/1453255870
p1144
aVhttps://pbs.twimg.com/profile_banners/915364056/1436548098
p1145
aVhttps://pbs.twimg.com/profile_banners/63820234/1411494547
p1146
aVhttps://pbs.twimg.com/profile_banners/26745453/1453394361
p1147
aVhttps://pbs.twimg.com/profile_banners/64102625/1442689087
p1148
aVhttps://pbs.twimg.com/profile_banners/4885015895/1454925888
p1149
aVhttps://pbs.twimg.com/profile_banners/4521062435/1450996329
p1150
aVhttps://pbs.twimg.com/profile_banners/2755885905/1455321408
p1151
aVhttps://pbs.twimg.com/profile_banners/2929430751/1421412144
p1152
aVhttps://pbs.twimg.com/profile_banners/3660127753/1454739796
p1153
aVhttps://pbs.twimg.com/profile_banners/437848563/1454455513
p1154
aVhttps://pbs.twimg.com/profile_banners/363162958/1453339344
p1155
aVhttps://pbs.twimg.com/profile_banners/354525072/1444840685
p1156
aVhttps://pbs.twimg.com/profile_banners/523526246/1453166450
p1157
aVhttps://pbs.twimg.com/profile_banners/418514564/1448261172
p1158
aVhttps://pbs.twimg.com/profile_banners/445656944/1386868165
p1159
aVhttps://pbs.twimg.com/profile_banners/22608949/1434882919
p1160
aVhttps://pbs.twimg.com/profile_banners/996160544/1445886810
p1161
aVhttps://pbs.twimg.com/profile_banners/3231416706/1455191899
p1162
aVhttps://pbs.twimg.com/profile_banners/3192384424/1453470473
p1163
aVhttps://pbs.twimg.com/profile_banners/3262970604/1454661581
p1164
aVhttps://pbs.twimg.com/profile_banners/128361883/1450667244
p1165
aVhttps://pbs.twimg.com/profile_banners/288150660/1427726380
p1166
aVhttps://pbs.twimg.com/profile_banners/3370540864/1455363920
p1167
aVhttps://pbs.twimg.com/profile_banners/113518086/1447104540
p1168
aVhttps://pbs.twimg.com/profile_banners/16203623/1452052515
p1169
aVhttps://pbs.twimg.com/profile_banners/2323802880/1450249636
p1170
aVhttps://pbs.twimg.com/profile_banners/48014739/1421455057
p1171
aVhttps://pbs.twimg.com/profile_banners/1455433946/1444814583
p1172
aVhttps://pbs.twimg.com/profile_banners/1253619380/1451582531
p1173
aVhttps://pbs.twimg.com/profile_banners/2874441476/1454185152
p1174
aVhttps://pbs.twimg.com/profile_banners/339381448/1453729745
p1175
aVhttps://pbs.twimg.com/profile_banners/18421796/1355190772
p1176
aVhttps://pbs.twimg.com/profile_banners/1654640084/1454953038
p1177
aVhttps://pbs.twimg.com/profile_banners/554069257/1454092389
p1178
aVhttps://pbs.twimg.com/profile_banners/365907077/1405049184
p1179
aVhttps://pbs.twimg.com/profile_banners/2193287598/1442230381
p1180
aVhttps://pbs.twimg.com/profile_banners/2739991071/1455372181
p1181
aVhttps://pbs.twimg.com/profile_banners/2681227075/1407175045
p1182
aVhttps://pbs.twimg.com/profile_banners/385516456/1419893519
p1183
aVhttps://pbs.twimg.com/profile_banners/2302042814/1390941810
p1184
aVhttps://pbs.twimg.com/profile_banners/1728307758/1454416265
p1185
aVhttps://pbs.twimg.com/profile_banners/2684207814/1452413828
p1186
aVhttps://pbs.twimg.com/profile_banners/2907424730/1454215030
p1187
aVhttps://pbs.twimg.com/profile_banners/474962951/1454851696
p1188
aVhttps://pbs.twimg.com/profile_banners/1551057422/1454965312
p1189
aVhttps://pbs.twimg.com/profile_banners/612012051/1450497511
p1190
aVhttps://pbs.twimg.com/profile_banners/3164555004/1455310550
p1191
aVhttps://pbs.twimg.com/profile_banners/3278224490/1436767716
p1192
aVhttps://pbs.twimg.com/profile_banners/301362560/1371271855
p1193
aVhttps://pbs.twimg.com/profile_banners/299849110/1453085138
p1194
aVhttps://pbs.twimg.com/profile_banners/1316237053/1454829160
p1195
aVhttps://pbs.twimg.com/profile_banners/346574096/1455061885
p1196
aVhttps://pbs.twimg.com/profile_banners/107857888/1455127134
p1197
aVhttps://pbs.twimg.com/profile_banners/1430981016/1394206773
p1198
aVhttps://pbs.twimg.com/profile_banners/121562273/1449080778
p1199
aVhttps://pbs.twimg.com/profile_banners/64574086/1453237537
p1200
aVhttps://pbs.twimg.com/profile_banners/164101789/1453303700
p1201
aVhttps://pbs.twimg.com/profile_banners/95905977/1426618092
p1202
aVhttps://pbs.twimg.com/profile_banners/898117387/1455230371
p1203
aVhttps://pbs.twimg.com/profile_banners/3073500898/1426857101
p1204
aVhttps://pbs.twimg.com/profile_banners/15895593/1454988075
p1205
aVhttps://pbs.twimg.com/profile_banners/310667302/1453589068
p1206
aVhttps://pbs.twimg.com/profile_banners/3435623915/1454980092
p1207
aVhttps://pbs.twimg.com/profile_banners/16414337/1451870703
p1208
aVhttps://pbs.twimg.com/profile_banners/4713591320/1453788313
p1209
aVhttps://pbs.twimg.com/profile_banners/2646879253/1453022379
p1210
aVhttps://pbs.twimg.com/profile_banners/117938798/1451914294
p1211
aVhttps://pbs.twimg.com/profile_banners/4413514992/1454871045
p1212
aVhttps://pbs.twimg.com/profile_banners/81513527/1398328826
p1213
aVhttps://pbs.twimg.com/profile_banners/2808287888/1454270664
p1214
aVhttps://pbs.twimg.com/profile_banners/18817574/1454802470
p1215
aVhttps://pbs.twimg.com/profile_banners/2980886046/1455205974
p1216
aVhttps://pbs.twimg.com/profile_banners/2602837661/1407115902
p1217
aVhttps://pbs.twimg.com/profile_banners/171123512/1355012491
p1218
aVhttps://pbs.twimg.com/profile_banners/3124111443/1454630868
p1219
aVhttps://pbs.twimg.com/profile_banners/259511735/1432693385
p1220
aVhttps://pbs.twimg.com/profile_banners/1892013774/1450061401
p1221
aVhttps://pbs.twimg.com/profile_banners/538764453/1442450975
p1222
aVhttps://pbs.twimg.com/profile_banners/425410868/1434660734
p1223
aVhttps://pbs.twimg.com/profile_banners/1731236448/1448359393
p1224
aVhttps://pbs.twimg.com/profile_banners/183424858/1454386944
p1225
aVhttps://pbs.twimg.com/profile_banners/401668134/1454378506
p1226
aVhttps://pbs.twimg.com/profile_banners/3279310337/1446223412
p1227
aVhttps://pbs.twimg.com/profile_banners/3245763724/1455336423
p1228
aVhttps://pbs.twimg.com/profile_banners/3502183454/1444626448
p1229
aVhttps://pbs.twimg.com/profile_banners/3335727191/1455248463
p1230
aVhttps://pbs.twimg.com/profile_banners/3100810643/1450576589
p1231
aVhttps://pbs.twimg.com/profile_banners/2303059320/1430889372
p1232
aVhttps://pbs.twimg.com/profile_banners/3161378790/1454259273
p1233
aVhttps://pbs.twimg.com/profile_banners/2714709080/1451223185
p1234
aVhttps://pbs.twimg.com/profile_banners/142104230/1451771622
p1235
aVhttps://pbs.twimg.com/profile_banners/1663138315/1453503457
p1236
aVhttps://pbs.twimg.com/profile_banners/239055078/1400196750
p1237
aVhttps://pbs.twimg.com/profile_banners/249203091/1452710837
p1238
aVhttps://pbs.twimg.com/profile_banners/2433586619/1444610855
p1239
aVhttps://pbs.twimg.com/profile_banners/383314750/1450538784
p1240
aVhttps://pbs.twimg.com/profile_banners/862109970/1454848334
p1241
aVhttps://pbs.twimg.com/profile_banners/2700179458/1405521367
p1242
aVhttps://pbs.twimg.com/profile_banners/597282087/1454860146
p1243
aVhttps://pbs.twimg.com/profile_banners/2596425603/1454255323
p1244
aVhttps://pbs.twimg.com/profile_banners/2738974643/1455376034
p1245
aVhttps://pbs.twimg.com/profile_banners/718199496/1448025662
p1246
aVhttps://pbs.twimg.com/profile_banners/4046788761/1449932827
p1247
aVhttps://pbs.twimg.com/profile_banners/38291550/1421252083
p1248
aVhttps://pbs.twimg.com/profile_banners/613752832/1455378449
p1249
aVhttps://pbs.twimg.com/profile_banners/169259482/1392165422
p1250
aVhttps://pbs.twimg.com/profile_banners/235297845/1442923111
p1251
aVhttps://pbs.twimg.com/profile_banners/406457340/1453479464
p1252
aVhttps://pbs.twimg.com/profile_banners/1344888877/1435592715
p1253
aVhttps://pbs.twimg.com/profile_banners/2947430053/1455375918
p1254
aVhttps://pbs.twimg.com/profile_banners/599579643/1454912583
p1255
aVhttps://pbs.twimg.com/profile_banners/2232856524/1455012207
p1256
aVhttps://pbs.twimg.com/profile_banners/3234217347/1455237172
p1257
aVhttps://pbs.twimg.com/profile_banners/424797685/1448741323
p1258
aVhttps://pbs.twimg.com/profile_banners/32218646/1455371588
p1259
aVhttps://pbs.twimg.com/profile_banners/381014409/1436344204
p1260
aVhttps://pbs.twimg.com/profile_banners/3035270923/1454560642
p1261
aVhttps://pbs.twimg.com/profile_banners/622846434/1434875622
p1262
aVhttps://pbs.twimg.com/profile_banners/2774671221/1455208712
p1263
aVhttps://pbs.twimg.com/profile_banners/77520397/1434833832
p1264
aVhttps://pbs.twimg.com/profile_banners/153431309/1439778493
p1265
aVhttps://pbs.twimg.com/profile_banners/210979663/1446427098
p1266
aVhttps://pbs.twimg.com/profile_banners/2505268347/1451127631
p1267
aVhttps://pbs.twimg.com/profile_banners/33017874/1378943506
p1268
aVhttps://pbs.twimg.com/profile_banners/88258653/1387938118
p1269
aVhttps://pbs.twimg.com/profile_banners/1726685550/1454877687
p1270
aVhttps://pbs.twimg.com/profile_banners/355655024/1454902774
p1271
aVhttps://pbs.twimg.com/profile_banners/611304442/1449030749
p1272
aVhttps://pbs.twimg.com/profile_banners/2896576719/1454968071
p1273
aVhttps://pbs.twimg.com/profile_banners/4135677132/1449243343
p1274
aVhttps://pbs.twimg.com/profile_banners/4484364072/1454314845
p1275
aVhttps://pbs.twimg.com/profile_banners/3314945761/1441866656
p1276
aVhttps://pbs.twimg.com/profile_banners/3225685626/1434076429
p1277
aVhttps://pbs.twimg.com/profile_banners/2370857642/1451829434
p1278
aVhttps://pbs.twimg.com/profile_banners/119605952/1451620593
p1279
aVhttps://pbs.twimg.com/profile_banners/2741094381/1447999250
p1280
aVhttps://pbs.twimg.com/profile_banners/1458956034/1450872024
p1281
aVhttps://pbs.twimg.com/profile_banners/1201423477/1452250883
p1282
aVhttps://pbs.twimg.com/profile_banners/3051690565/1451496126
p1283
aVhttps://pbs.twimg.com/profile_banners/375239846/1423434196
p1284
aVhttps://pbs.twimg.com/profile_banners/4235000913/1448607032
p1285
aVhttps://pbs.twimg.com/profile_banners/3908633172/1445127485
p1286
aVhttps://pbs.twimg.com/profile_banners/43660402/1449583861
p1287
aVhttps://pbs.twimg.com/profile_banners/106829395/1419087982
p1288
aVhttps://pbs.twimg.com/profile_banners/3057240878/1453858973
p1289
aVhttps://pbs.twimg.com/profile_banners/468636971/1362005964
p1290
aVhttps://pbs.twimg.com/profile_banners/199402291/1387569984
p1291
aVhttps://pbs.twimg.com/profile_banners/631634113/1455007973
p1292
aVhttps://pbs.twimg.com/profile_banners/1606655262/1430176612
p1293
aVhttps://pbs.twimg.com/profile_banners/2342026920/1435642703
p1294
aVhttps://pbs.twimg.com/profile_banners/447377793/1375044152
p1295
aVhttps://pbs.twimg.com/profile_banners/1145690388/1450392952
p1296
aVhttps://pbs.twimg.com/profile_banners/495876116/1440688655
p1297
aVhttps://pbs.twimg.com/profile_banners/453933565/1455280793
p1298
aVhttps://pbs.twimg.com/profile_banners/946450652/1455157558
p1299
aVhttps://pbs.twimg.com/profile_banners/2897411539/1455329958
p1300
aVhttps://pbs.twimg.com/profile_banners/2324394260/1428128735
p1301
aVhttps://pbs.twimg.com/profile_banners/2391658430/1455378856
p1302
aVhttps://pbs.twimg.com/profile_banners/4273050256/1448443766
p1303
aVhttps://pbs.twimg.com/profile_banners/3305345474/1454151550
p1304
aVhttps://pbs.twimg.com/profile_banners/97468889/1408714140
p1305
aVhttps://pbs.twimg.com/profile_banners/39985210/1451927727
p1306
aVhttps://pbs.twimg.com/profile_banners/28500257/1454811964
p1307
aVhttps://pbs.twimg.com/profile_banners/31561023/1422907951
p1308
aVhttps://pbs.twimg.com/profile_banners/312925660/1431198473
p1309
aVhttps://pbs.twimg.com/profile_banners/1458753692/1454869387
p1310
aVhttps://pbs.twimg.com/profile_banners/247952532/1454945724
p1311
aVhttps://pbs.twimg.com/profile_banners/211782277/1444163658
p1312
aVhttps://pbs.twimg.com/profile_banners/90663259/1453421610
p1313
aVhttps://pbs.twimg.com/profile_banners/26573545/1437440919
p1314
aVhttps://pbs.twimg.com/profile_banners/20105625/1446483518
p1315
aVhttps://pbs.twimg.com/profile_banners/179170191/1452671438
p1316
aVhttps://pbs.twimg.com/profile_banners/2981624099/1442569413
p1317
aVhttps://pbs.twimg.com/profile_banners/3972340692/1453714608
p1318
aVhttps://pbs.twimg.com/profile_banners/1939298556/1455366943
p1319
aVhttps://pbs.twimg.com/profile_banners/1958682427/1455015537
p1320
aVhttps://pbs.twimg.com/profile_banners/152824626/1387145585
p1321
aVhttps://pbs.twimg.com/profile_banners/1387046798/1449940879
p1322
aVhttps://pbs.twimg.com/profile_banners/477143360/1453487922
p1323
aVhttps://pbs.twimg.com/profile_banners/61125212/1420606586
p1324
aVhttps://pbs.twimg.com/profile_banners/1403672178/1452712915
p1325
aVhttps://pbs.twimg.com/profile_banners/586828990/1432452779
p1326
aVhttps://pbs.twimg.com/profile_banners/46555369/1439993532
p1327
aVhttps://pbs.twimg.com/profile_banners/1370447514/1443560770
p1328
aVhttps://pbs.twimg.com/profile_banners/232433219/1455004800
p1329
aVhttps://pbs.twimg.com/profile_banners/3701764347/1455377113
p1330
aVhttps://pbs.twimg.com/profile_banners/1308163574/1452549362
p1331
aVhttps://pbs.twimg.com/profile_banners/263391759/1454943927
p1332
aVhttps://pbs.twimg.com/profile_banners/576348276/1455238575
p1333
aVhttps://pbs.twimg.com/profile_banners/982895821/1449771324
p1334
aVhttps://pbs.twimg.com/profile_banners/2567836805/1455312832
p1335
aVhttps://pbs.twimg.com/profile_banners/2634141756/1450083788
p1336
aVhttps://pbs.twimg.com/profile_banners/2294187268/1449990705
p1337
aVhttps://pbs.twimg.com/profile_banners/602081573/1453343960
p1338
aVhttps://pbs.twimg.com/profile_banners/157894576/1452742481
p1339
aVhttps://pbs.twimg.com/profile_banners/295739457/1420484656
p1340
aVhttps://pbs.twimg.com/profile_banners/485153766/1450717524
p1341
aVhttps://pbs.twimg.com/profile_banners/4662354916/1455288460
p1342
aVhttps://pbs.twimg.com/profile_banners/344427103/1451073443
p1343
aVhttps://pbs.twimg.com/profile_banners/67963693/1433981591
p1344
aVhttps://pbs.twimg.com/profile_banners/924362492/1454940631
p1345
aVhttps://pbs.twimg.com/profile_banners/1595751517/1439461234
p1346
aVhttps://pbs.twimg.com/profile_banners/2703219719/1454148858
p1347
aVhttps://pbs.twimg.com/profile_banners/107240678/1455084666
p1348
aVhttps://pbs.twimg.com/profile_banners/343640565/1434482573
p1349
aVhttps://pbs.twimg.com/profile_banners/3165995725/1454865968
p1350
aVhttps://pbs.twimg.com/profile_banners/161757127/1455146631
p1351
aVhttps://pbs.twimg.com/profile_banners/2954836087/1420120760
p1352
aVhttps://pbs.twimg.com/profile_banners/3179827969/1455307211
p1353
aVhttps://pbs.twimg.com/profile_banners/3252921841/1453845742
p1354
aVhttps://pbs.twimg.com/profile_banners/791340912/1450913211
p1355
aVhttps://pbs.twimg.com/profile_banners/2276814859/1454890853
p1356
aVhttps://pbs.twimg.com/profile_banners/2252442878/1454792640
p1357
aVhttps://pbs.twimg.com/profile_banners/2841074354/1449575849
p1358
aVhttps://pbs.twimg.com/profile_banners/3223588850/1437845462
p1359
aVhttps://pbs.twimg.com/profile_banners/3079679379/1451431750
p1360
aVhttps://pbs.twimg.com/profile_banners/25493419/1452548800
p1361
aVhttps://pbs.twimg.com/profile_banners/2581154010/1455219686
p1362
aVhttps://pbs.twimg.com/profile_banners/3913922425/1450521707
p1363
aVhttps://pbs.twimg.com/profile_banners/2772832145/1455312142
p1364
aVhttps://pbs.twimg.com/profile_banners/4826164384/1453170472
p1365
aVhttps://pbs.twimg.com/profile_banners/2327328185/1455073948
p1366
aVhttps://pbs.twimg.com/profile_banners/185579226/1448484781
p1367
aVhttps://pbs.twimg.com/profile_banners/4687557014/1454161293
p1368
aVhttps://pbs.twimg.com/profile_banners/3336576315/1454570308
p1369
aVhttps://pbs.twimg.com/profile_banners/2857200007/1455318807
p1370
aVhttps://pbs.twimg.com/profile_banners/3315156108/1449917862
p1371
aVhttps://pbs.twimg.com/profile_banners/2198045077/1398520964
p1372
aVhttps://pbs.twimg.com/profile_banners/280846475/1455378613
p1373
aVhttps://pbs.twimg.com/profile_banners/542841752/1455316160
p1374
aVhttps://pbs.twimg.com/profile_banners/2194578362/1384451375
p1375
aVhttps://pbs.twimg.com/profile_banners/576990414/1455299581
p1376
aVhttps://pbs.twimg.com/profile_banners/4702251710/1455283325
p1377
aVhttps://pbs.twimg.com/profile_banners/2358020216/1393163459
p1378
aVhttps://pbs.twimg.com/profile_banners/281558217/1414179404
p1379
aVhttps://pbs.twimg.com/profile_banners/1884388411/1453181992
p1380
aVhttps://pbs.twimg.com/profile_banners/3236452058/1455336420
p1381
aVhttps://pbs.twimg.com/profile_banners/421124225/1455127067
p1382
aVhttps://pbs.twimg.com/profile_banners/2237283714/1455137722
p1383
aVhttps://pbs.twimg.com/profile_banners/4366076069/1449185169
p1384
aVhttps://pbs.twimg.com/profile_banners/4027795414/1455046131
p1385
aVhttps://pbs.twimg.com/profile_banners/133803499/1405532659
p1386
aVhttps://pbs.twimg.com/profile_banners/460937973/1432927547
p1387
aVhttps://pbs.twimg.com/profile_banners/2338430429/1444006546
p1388
aVhttps://pbs.twimg.com/profile_banners/1398636092/1453620128
p1389
aVhttps://pbs.twimg.com/profile_banners/1325106984/1449268891
p1390
aVhttps://pbs.twimg.com/profile_banners/2869685948/1454199126
p1391
aVhttps://pbs.twimg.com/profile_banners/893864612/1450202856
p1392
aVhttps://pbs.twimg.com/profile_banners/2878341932/1449917260
p1393
aVhttps://pbs.twimg.com/profile_banners/46956055/1454869935
p1394
aVhttps://pbs.twimg.com/profile_banners/3092972243/1426628188
p1395
aVhttps://pbs.twimg.com/profile_banners/196894170/1448122413
p1396
aVhttps://pbs.twimg.com/profile_banners/175000964/1443524563
p1397
aVhttps://pbs.twimg.com/profile_banners/51558846/1453935794
p1398
aVhttps://pbs.twimg.com/profile_banners/3178425446/1430242165
p1399
aVhttps://pbs.twimg.com/profile_banners/3061195046/1436516046
p1400
aVhttps://pbs.twimg.com/profile_banners/788338740/1454344488
p1401
aVhttps://pbs.twimg.com/profile_banners/3978797412/1453552547
p1402
aVhttps://pbs.twimg.com/profile_banners/2303606558/1436960879
p1403
aVhttps://pbs.twimg.com/profile_banners/4029548232/1450408824
p1404
aVhttps://pbs.twimg.com/profile_banners/1019821778/1453278824
p1405
aVhttps://pbs.twimg.com/profile_banners/2484623808/1446306741
p1406
aVhttps://pbs.twimg.com/profile_banners/4876417930/1454801854
p1407
aVhttps://pbs.twimg.com/profile_banners/27839828/1362593560
p1408
aVhttps://pbs.twimg.com/profile_banners/147858051/1443876116
p1409
aVhttps://pbs.twimg.com/profile_banners/2411209526/1404207804
p1410
aVhttps://pbs.twimg.com/profile_banners/256983871/1454463315
p1411
aVhttps://pbs.twimg.com/profile_banners/3665648842/1451205623
p1412
aVhttps://pbs.twimg.com/profile_banners/55038199/1426033505
p1413
aVhttps://pbs.twimg.com/profile_banners/3140549330/1450541400
p1414
aVhttps://pbs.twimg.com/profile_banners/19196338/1400511227
p1415
aVhttps://pbs.twimg.com/profile_banners/1202470328/1444129023
p1416
aVhttps://pbs.twimg.com/profile_banners/392289156/1411742172
p1417
aVhttps://pbs.twimg.com/profile_banners/222276638/1455289531
p1418
aVhttps://pbs.twimg.com/profile_banners/88251910/1454998257
p1419
aVhttps://pbs.twimg.com/profile_banners/2515669904/1454540358
p1420
aVhttps://pbs.twimg.com/profile_banners/4086542117/1455152149
p1421
aVhttps://pbs.twimg.com/profile_banners/2211129667/1454075079
p1422
aVhttps://pbs.twimg.com/profile_banners/14685652/1369000568
p1423
aVhttps://pbs.twimg.com/profile_banners/2517364471/1455360860
p1424
aVhttps://pbs.twimg.com/profile_banners/60136971/1432741790
p1425
aVhttps://pbs.twimg.com/profile_banners/294754397/1452773172
p1426
aVhttps://pbs.twimg.com/profile_banners/878147060/1455376972
p1427
aVhttps://pbs.twimg.com/profile_banners/2439793710/1454649969
p1428
aVhttps://pbs.twimg.com/profile_banners/4314434669/1455220326
p1429
aVhttps://pbs.twimg.com/profile_banners/516116923/1455004940
p1430
aVhttps://pbs.twimg.com/profile_banners/448656471/1455305059
p1431
aVhttps://pbs.twimg.com/profile_banners/2877430606/1452035621
p1432
aVhttps://pbs.twimg.com/profile_banners/144316908/1450371277
p1433
aVhttps://pbs.twimg.com/profile_banners/878109356/1447265150
p1434
aVhttps://pbs.twimg.com/profile_banners/145521895/1444365892
p1435
aVhttps://pbs.twimg.com/profile_banners/174274826/1454267061
p1436
aVhttps://pbs.twimg.com/profile_banners/412446030/1455096587
p1437
aVhttps://pbs.twimg.com/profile_banners/357840473/1453178259
p1438
aVhttps://pbs.twimg.com/profile_banners/30757342/1446165827
p1439
aVhttps://pbs.twimg.com/profile_banners/1615540795/1445128048
p1440
aVhttps://pbs.twimg.com/profile_banners/2852667291/1452192315
p1441
aVhttps://pbs.twimg.com/profile_banners/401442981/1426357863
p1442
aVhttps://pbs.twimg.com/profile_banners/2904512938/1425969328
p1443
aVhttps://pbs.twimg.com/profile_banners/121296791/1450059353
p1444
aVhttps://pbs.twimg.com/profile_banners/3863352072/1453178718
p1445
aVhttps://pbs.twimg.com/profile_banners/1428582259/1452417510
p1446
aVhttps://pbs.twimg.com/profile_banners/21495882/1424596585
p1447
aVhttps://pbs.twimg.com/profile_banners/352606792/1438379219
p1448
aVhttps://pbs.twimg.com/profile_banners/3082032454/1443230859
p1449
aVhttps://pbs.twimg.com/profile_banners/7424492/1437221022
p1450
aVhttps://pbs.twimg.com/profile_banners/1514153726/1442338045
p1451
aVhttps://pbs.twimg.com/profile_banners/455463626/1449516685
p1452
aVhttps://pbs.twimg.com/profile_banners/2296765711/1454978390
p1453
aVhttps://pbs.twimg.com/profile_banners/991479300/1453135053
p1454
aVhttps://pbs.twimg.com/profile_banners/2244045525/1434296086
p1455
aVhttps://pbs.twimg.com/profile_banners/2918092047/1449809044
p1456
aVhttps://pbs.twimg.com/profile_banners/33275038/1453216209
p1457
aVhttps://pbs.twimg.com/profile_banners/465250254/1455336783
p1458
aVhttps://pbs.twimg.com/profile_banners/40570198/1455077783
p1459
aVhttps://pbs.twimg.com/profile_banners/1355420785/1392418544
p1460
aVhttps://pbs.twimg.com/profile_banners/148209435/1437729240
p1461
aVhttps://pbs.twimg.com/profile_banners/1227143258/1442002971
p1462
aVhttps://pbs.twimg.com/profile_banners/305763719/1385335819
p1463
aVhttps://pbs.twimg.com/profile_banners/28220002/1348244276
p1464
aVhttps://pbs.twimg.com/profile_banners/192669432/1454728185
p1465
aVhttps://pbs.twimg.com/profile_banners/3476100673/1453659631
p1466
aVhttps://pbs.twimg.com/profile_banners/186400672/1454553108
p1467
aVhttps://pbs.twimg.com/profile_banners/382033924/1454337078
p1468
aVhttps://pbs.twimg.com/profile_banners/2759179309/1449033118
p1469
aVhttps://pbs.twimg.com/profile_banners/406215499/1443463674
p1470
aVhttps://pbs.twimg.com/profile_banners/116665459/1444454803
p1471
aVhttps://pbs.twimg.com/profile_banners/2766586605/1453127027
p1472
aVhttps://pbs.twimg.com/profile_banners/602195930/1455118209
p1473
aVhttps://pbs.twimg.com/profile_banners/424783099/1453085395
p1474
aVhttps://pbs.twimg.com/profile_banners/258163633/1426265992
p1475
aVhttps://pbs.twimg.com/profile_banners/181181445/1451384461
p1476
aVhttps://pbs.twimg.com/profile_banners/220451434/1432045085
p1477
aVhttps://pbs.twimg.com/profile_banners/46729624/1455285646
p1478
aVhttps://pbs.twimg.com/profile_banners/138920718/1455258932
p1479
aVhttps://pbs.twimg.com/profile_banners/2163699215/1455207711
p1480
aVhttps://pbs.twimg.com/profile_banners/2375157024/1447087028
p1481
aVhttps://pbs.twimg.com/profile_banners/345936728/1442863557
p1482
aVhttps://pbs.twimg.com/profile_banners/2472360350/1410519509
p1483
aVhttps://pbs.twimg.com/profile_banners/2962988431/1423500702
p1484
aVhttps://pbs.twimg.com/profile_banners/2578707725/1450706764
p1485
aVhttps://pbs.twimg.com/profile_banners/370611116/1455280498
p1486
aVhttps://pbs.twimg.com/profile_banners/2855755794/1447205161
p1487
aVhttps://pbs.twimg.com/profile_banners/634441660/1453528536
p1488
aVhttps://pbs.twimg.com/profile_banners/101062575/1450248149
p1489
aVhttps://pbs.twimg.com/profile_banners/168754949/1361736957
p1490
aVhttps://pbs.twimg.com/profile_banners/430569947/1442338452
p1491
aVhttps://pbs.twimg.com/profile_banners/1173775164/1452549961
p1492
aVhttps://pbs.twimg.com/profile_banners/3989889383/1454970089
p1493
aVhttps://pbs.twimg.com/profile_banners/3992099666/1445811497
p1494
aVhttps://pbs.twimg.com/profile_banners/4822764147/1454954654
p1495
aVhttps://pbs.twimg.com/profile_banners/1920295284/1448198648
p1496
aVhttps://pbs.twimg.com/profile_banners/1201315530/1361374530
p1497
aVhttps://pbs.twimg.com/profile_banners/443616934/1448149005
p1498
aVhttps://pbs.twimg.com/profile_banners/3120180605/1455299285
p1499
aVhttps://pbs.twimg.com/profile_banners/172425473/1392642056
p1500
aVhttps://pbs.twimg.com/profile_banners/1132842920/1455256976
p1501
aVhttps://pbs.twimg.com/profile_banners/499717121/1396428215
p1502
aVhttps://pbs.twimg.com/profile_banners/596958150/1441040962
p1503
aVhttps://pbs.twimg.com/profile_banners/1316775126/1454638853
p1504
aVhttps://pbs.twimg.com/profile_banners/476407460/1454917194
p1505
aVhttps://pbs.twimg.com/profile_banners/4581423560/1455314389
p1506
aVhttps://pbs.twimg.com/profile_banners/159405337/1454322671
p1507
aVhttps://pbs.twimg.com/profile_banners/2871440468/1435179019
p1508
aVhttps://pbs.twimg.com/profile_banners/245289888/1440020007
p1509
aVhttps://pbs.twimg.com/profile_banners/338127670/1454874804
p1510
aVhttps://pbs.twimg.com/profile_banners/256806974/1412085387
p1511
aVhttps://pbs.twimg.com/profile_banners/27979317/1450545402
p1512
aVhttps://pbs.twimg.com/profile_banners/46381467/1399119517
p1513
aVhttps://pbs.twimg.com/profile_banners/3166838677/1448862637
p1514
aVhttps://pbs.twimg.com/profile_banners/1510580929/1447667851
p1515
aVhttps://pbs.twimg.com/profile_banners/3303730848/1455028293
p1516
aVhttps://pbs.twimg.com/profile_banners/4686356653/1451613534
p1517
aVhttps://pbs.twimg.com/profile_banners/381820220/1451832536
p1518
aVhttps://pbs.twimg.com/profile_banners/295447126/1454881731
p1519
aVhttps://pbs.twimg.com/profile_banners/4366577542/1450027427
p1520
aVhttps://pbs.twimg.com/profile_banners/1486318464/1455166060
p1521
aVhttps://pbs.twimg.com/profile_banners/102208790/1443368322
p1522
aVhttps://pbs.twimg.com/profile_banners/3284989704/1455017420
p1523
aVhttps://pbs.twimg.com/profile_banners/3009310303/1455026448
p1524
aVhttps://pbs.twimg.com/profile_banners/279653258/1454536962
p1525
aVhttps://pbs.twimg.com/profile_banners/2420090162/1454815380
p1526
aVhttps://pbs.twimg.com/profile_banners/302647517/1437364678
p1527
aVhttps://pbs.twimg.com/profile_banners/2518906145/1446987798
p1528
aVhttps://pbs.twimg.com/profile_banners/3615070572/1453772244
p1529
aVhttps://pbs.twimg.com/profile_banners/157382476/1442347075
p1530
aVhttps://pbs.twimg.com/profile_banners/306108600/1454900535
p1531
aVhttps://pbs.twimg.com/profile_banners/3138953119/1454818080
p1532
aVhttps://pbs.twimg.com/profile_banners/2376865244/1452118816
p1533
aVhttps://pbs.twimg.com/profile_banners/2691191850/1406676155
p1534
aVhttps://pbs.twimg.com/profile_banners/604003450/1455330626
p1535
aVhttps://pbs.twimg.com/profile_banners/2275628804/1454609322
p1536
aVhttps://pbs.twimg.com/profile_banners/4502023900/1454967374
p1537
aVhttps://pbs.twimg.com/profile_banners/232295643/1397543862
p1538
aVhttps://pbs.twimg.com/profile_banners/522659890/1445696210
p1539
aVhttps://pbs.twimg.com/profile_banners/610751990/1367964312
p1540
aVhttps://pbs.twimg.com/profile_banners/1649730020/1424459982
p1541
aVhttps://pbs.twimg.com/profile_banners/4472421855/1455331107
p1542
aVhttps://pbs.twimg.com/profile_banners/2686170012/1455077050
p1543
aVhttps://pbs.twimg.com/profile_banners/564805917/1453141622
p1544
aVhttps://pbs.twimg.com/profile_banners/2711050730/1452408483
p1545
aVhttps://pbs.twimg.com/profile_banners/2481737087/1441837388
p1546
aVhttps://pbs.twimg.com/profile_banners/956582702/1446933174
p1547
aVhttps://pbs.twimg.com/profile_banners/2566358196/1402815321
p1548
aVhttps://pbs.twimg.com/profile_banners/3746457614/1454685323
p1549
aVhttps://pbs.twimg.com/profile_banners/547832103/1452376400
p1550
aVhttps://pbs.twimg.com/profile_banners/57610936/1441623623
p1551
aVhttps://pbs.twimg.com/profile_banners/782546347/1432386988
p1552
aVhttps://pbs.twimg.com/profile_banners/3520061066/1441927345
p1553
aVhttps://pbs.twimg.com/profile_banners/226229007/1382386450
p1554
aVhttps://pbs.twimg.com/profile_banners/4215437375/1447825727
p1555
aVhttps://pbs.twimg.com/profile_banners/779431580/1455378341
p1556
aVhttps://pbs.twimg.com/profile_banners/296382698/1449511192
p1557
aVhttps://pbs.twimg.com/profile_banners/802503350/1446903025
p1558
aVhttps://pbs.twimg.com/profile_banners/4552040315/1451707691
p1559
aVhttps://pbs.twimg.com/profile_banners/2911766533/1452951603
p1560
aVhttps://pbs.twimg.com/profile_banners/726119934/1446382343
p1561
aVhttps://pbs.twimg.com/profile_banners/4897081664/1455370216
p1562
aVhttps://pbs.twimg.com/profile_banners/2829934959/1429754255
p1563
aVhttps://pbs.twimg.com/profile_banners/168239158/1425938869
p1564
aVhttps://pbs.twimg.com/profile_banners/2787189320/1409717756
p1565
aVhttps://pbs.twimg.com/profile_banners/377445345/1455082742
p1566
aVhttps://pbs.twimg.com/profile_banners/801349842/1454448071
p1567
aVhttps://pbs.twimg.com/profile_banners/600021943/1455307801
p1568
aVhttps://pbs.twimg.com/profile_banners/1932382441/1455351263
p1569
aVhttps://pbs.twimg.com/profile_banners/2430095335/1454261769
p1570
aVhttps://pbs.twimg.com/profile_banners/185123036/1455372068
p1571
aVhttps://pbs.twimg.com/profile_banners/723383533/1378877743
p1572
aVhttps://pbs.twimg.com/profile_banners/16282576/1415631715
p1573
aVhttps://pbs.twimg.com/profile_banners/2887412779/1452607687
p1574
aVhttps://pbs.twimg.com/profile_banners/200426922/1433773236
p1575
aVhttps://pbs.twimg.com/profile_banners/478733904/1454796544
p1576
aVhttps://pbs.twimg.com/profile_banners/482658470/1448307447
p1577
aVhttps://pbs.twimg.com/profile_banners/1053049956/1454277330
p1578
aVhttps://pbs.twimg.com/profile_banners/1441246470/1440321304
p1579
aVhttps://pbs.twimg.com/profile_banners/55427710/1455379708
p1580
aVhttps://pbs.twimg.com/profile_banners/3285222024/1440164404
p1581
aVhttps://pbs.twimg.com/profile_banners/3073905854/1454947773
p1582
aVhttps://pbs.twimg.com/profile_banners/419870114/1442076676
p1583
aVhttps://pbs.twimg.com/profile_banners/311406637/1453690097
p1584
aVhttps://pbs.twimg.com/profile_banners/1393188702/1425668001
p1585
aVhttps://pbs.twimg.com/profile_banners/3219890730/1433482855
p1586
aVhttps://pbs.twimg.com/profile_banners/82377732/1404426446
p1587
aVhttps://pbs.twimg.com/profile_banners/566358157/1452201270
p1588
aVhttps://pbs.twimg.com/profile_banners/805246908/1435204435
p1589
aVhttps://pbs.twimg.com/profile_banners/1220003186/1451511519
p1590
aVhttps://pbs.twimg.com/profile_banners/2502386401/1454778865
p1591
aVhttps://pbs.twimg.com/profile_banners/578813022/1431087075
p1592
aVhttps://pbs.twimg.com/profile_banners/2235732807/1454011411
p1593
aVhttps://pbs.twimg.com/profile_banners/370287114/1454352707
p1594
aVhttps://pbs.twimg.com/profile_banners/4276546572/1454134992
p1595
aVhttps://pbs.twimg.com/profile_banners/22456715/1448586187
p1596
aVhttps://pbs.twimg.com/profile_banners/737591616/1455379144
p1597
aVhttps://pbs.twimg.com/profile_banners/253526876/1443203832
p1598
aVhttps://pbs.twimg.com/profile_banners/3373031038/1455234345
p1599
aVhttps://pbs.twimg.com/profile_banners/2921291484/1420216357
p1600
aVhttps://pbs.twimg.com/profile_banners/1438750358/1455107000
p1601
aVhttps://pbs.twimg.com/profile_banners/506047158/1452877082
p1602
aVhttps://pbs.twimg.com/profile_banners/47349333/1450220066
p1603
aVhttps://pbs.twimg.com/profile_banners/3732455715/1442876256
p1604
aVhttps://pbs.twimg.com/profile_banners/2863230810/1453296669
p1605
aVhttps://pbs.twimg.com/profile_banners/905985199/1436263350
p1606
aVhttps://pbs.twimg.com/profile_banners/3462651383/1453562185
p1607
aVhttps://pbs.twimg.com/profile_banners/2377609703/1454546803
p1608
aVhttps://pbs.twimg.com/profile_banners/2860402113/1415110977
p1609
aVhttps://pbs.twimg.com/profile_banners/1648060386/1453514639
p1610
aVhttps://pbs.twimg.com/profile_banners/1141085664/1441210026
p1611
aVhttps://pbs.twimg.com/profile_banners/4428176176/1449676687
p1612
aVhttps://pbs.twimg.com/profile_banners/4285893147/1455376990
p1613
aVhttps://pbs.twimg.com/profile_banners/16204520/1372737049
p1614
aVhttps://pbs.twimg.com/profile_banners/2635463802/1452965026
p1615
aVhttps://pbs.twimg.com/profile_banners/1442363683/1369064041
p1616
aVhttps://pbs.twimg.com/profile_banners/3772807343/1443245194
p1617
aVhttps://pbs.twimg.com/profile_banners/1119023198/1454840134
p1618
aVhttps://pbs.twimg.com/profile_banners/160186899/1422040638
p1619
aVhttps://pbs.twimg.com/profile_banners/2601723043/1454759888
p1620
aVhttps://pbs.twimg.com/profile_banners/1118671850/1455161153
p1621
aVhttps://pbs.twimg.com/profile_banners/2855484121/1421574856
p1622
aVhttps://pbs.twimg.com/profile_banners/2481937027/1426970712
p1623
aVhttps://pbs.twimg.com/profile_banners/539216307/1454256439
p1624
aVhttps://pbs.twimg.com/profile_banners/635204267/1453519074
p1625
aVhttps://pbs.twimg.com/profile_banners/375547077/1422783566
p1626
aVhttps://pbs.twimg.com/profile_banners/1540146972/1429804913
p1627
aVhttps://pbs.twimg.com/profile_banners/273626631/1451803712
p1628
aVhttps://pbs.twimg.com/profile_banners/1250471892/1449567036
p1629
aVhttps://pbs.twimg.com/profile_banners/2326431426/1449379884
p1630
aVhttps://pbs.twimg.com/profile_banners/19206604/1445956827
p1631
aVhttps://pbs.twimg.com/profile_banners/145857788/1454209279
p1632
aVhttps://pbs.twimg.com/profile_banners/35216216/1451542090
p1633
aVhttps://pbs.twimg.com/profile_banners/326921305/1426698081
p1634
aVhttps://pbs.twimg.com/profile_banners/2369186184/1452737710
p1635
aVhttps://pbs.twimg.com/profile_banners/2612699346/1452468390
p1636
aVhttps://pbs.twimg.com/profile_banners/27997371/1448865939
p1637
aVhttps://pbs.twimg.com/profile_banners/1614751154/1413154573
p1638
aVhttps://pbs.twimg.com/profile_banners/2915502439/1455176951
p1639
aVhttps://pbs.twimg.com/profile_banners/3447552016/1455361558
p1640
aVhttps://pbs.twimg.com/profile_banners/4337460083/1454009340
p1641
aVhttps://pbs.twimg.com/profile_banners/465924307/1455234088
p1642
aVhttps://pbs.twimg.com/profile_banners/270223166/1375222627
p1643
aVhttps://pbs.twimg.com/profile_banners/1449283567/1454871755
p1644
aVhttps://pbs.twimg.com/profile_banners/538620469/1400948246
p1645
aVhttps://pbs.twimg.com/profile_banners/1854165931/1435092941
p1646
aVhttps://pbs.twimg.com/profile_banners/64244634/1359421374
p1647
aVhttps://pbs.twimg.com/profile_banners/459534710/1419963469
p1648
aVhttps://pbs.twimg.com/profile_banners/26608018/1429634252
p1649
aVhttps://pbs.twimg.com/profile_banners/2415753842/1445185042
p1650
aVhttps://pbs.twimg.com/profile_banners/53808974/1455283778
p1651
aVhttps://pbs.twimg.com/profile_banners/4547448022/1454105068
p1652
aVhttps://pbs.twimg.com/profile_banners/384030408/1440110885
p1653
aVhttps://pbs.twimg.com/profile_banners/4380378912/1453633086
p1654
aVhttps://pbs.twimg.com/profile_banners/2451918750/1455320472
p1655
aVhttps://pbs.twimg.com/profile_banners/31651693/1454443225
p1656
aVhttps://pbs.twimg.com/profile_banners/235857269/1362898582
p1657
aVhttps://pbs.twimg.com/profile_banners/4722428474/1455362498
p1658
aVhttps://pbs.twimg.com/profile_banners/4813134055/1454716363
p1659
aVhttps://pbs.twimg.com/profile_banners/145953685/1355116374
p1660
aVhttps://pbs.twimg.com/profile_banners/2462277258/1398378443
p1661
aVhttps://pbs.twimg.com/profile_banners/4676694528/1455054873
p1662
aVhttps://pbs.twimg.com/profile_banners/2153664240/1454905234
p1663
aVhttps://pbs.twimg.com/profile_banners/2324828978/1423803062
p1664
aVhttps://pbs.twimg.com/profile_banners/2784764812/1454817854
p1665
aVhttps://pbs.twimg.com/profile_banners/62206010/1446216212
p1666
aVhttps://pbs.twimg.com/profile_banners/140586430/1450307145
p1667
aVhttps://pbs.twimg.com/profile_banners/154583224/1454600263
p1668
aVhttps://pbs.twimg.com/profile_banners/405402751/1386139604
p1669
aVhttps://pbs.twimg.com/profile_banners/3233494895/1443039177
p1670
aVhttps://pbs.twimg.com/profile_banners/3312351839/1454351172
p1671
aVhttps://pbs.twimg.com/profile_banners/4248683832/1451628788
p1672
aVhttps://pbs.twimg.com/profile_banners/562572349/1446685251
p1673
aVhttps://pbs.twimg.com/profile_banners/231971519/1454262301
p1674
aVhttps://pbs.twimg.com/profile_banners/2252681048/1450526831
p1675
aVhttps://pbs.twimg.com/profile_banners/275831454/1427505568
p1676
aVhttps://pbs.twimg.com/profile_banners/3935128274/1450787065
p1677
aVhttps://pbs.twimg.com/profile_banners/2904943715/1453304479
p1678
aVhttps://pbs.twimg.com/profile_banners/3237183407/1443709314
p1679
aVhttps://pbs.twimg.com/profile_banners/315581207/1455262347
p1680
aVhttps://pbs.twimg.com/profile_banners/2198681876/1384651330
p1681
aVhttps://pbs.twimg.com/profile_banners/915896402/1454219486
p1682
aVhttps://pbs.twimg.com/profile_banners/2880777889/1452877613
p1683
aVhttps://pbs.twimg.com/profile_banners/185782855/1388686488
p1684
aVhttps://pbs.twimg.com/profile_banners/1684859160/1455052171
p1685
aVhttps://pbs.twimg.com/profile_banners/4701667458/1454162395
p1686
aVhttps://pbs.twimg.com/profile_banners/1424984072/1454377066
p1687
aVhttps://pbs.twimg.com/profile_banners/101677707/1440130761
p1688
aVhttps://pbs.twimg.com/profile_banners/210774132/1444894915
p1689
aVhttps://pbs.twimg.com/profile_banners/790363722/1455351444
p1690
aVhttps://pbs.twimg.com/profile_banners/1975359314/1453617957
p1691
aVhttps://pbs.twimg.com/profile_banners/1923023546/1452161741
p1692
aVhttps://pbs.twimg.com/profile_banners/566708444/1454556899
p1693
aVhttps://pbs.twimg.com/profile_banners/94782711/1439250519
p1694
aVhttps://pbs.twimg.com/profile_banners/942072990/1455236655
p1695
aVhttps://pbs.twimg.com/profile_banners/312684498/1426054569
p1696
aVhttps://pbs.twimg.com/profile_banners/3164591593/1454589958
p1697
aVhttps://pbs.twimg.com/profile_banners/2567148416/1455377472
p1698
aVhttps://pbs.twimg.com/profile_banners/327980613/1432456768
p1699
aVhttps://pbs.twimg.com/profile_banners/477260345/1455340673
p1700
aVhttps://pbs.twimg.com/profile_banners/4709964962/1452516081
p1701
aVhttps://pbs.twimg.com/profile_banners/155751041/1453589392
p1702
aVhttps://pbs.twimg.com/profile_banners/490801815/1445680270
p1703
aVhttps://pbs.twimg.com/profile_banners/82188487/1398948366
p1704
aVhttps://pbs.twimg.com/profile_banners/479910621/1443750885
p1705
aVhttps://pbs.twimg.com/profile_banners/3168616717/1453723061
p1706
aVhttps://pbs.twimg.com/profile_banners/70992536/1413856835
p1707
aVhttps://pbs.twimg.com/profile_banners/2665397591/1451594253
p1708
aVhttps://pbs.twimg.com/profile_banners/3173915882/1455378107
p1709
aVhttps://pbs.twimg.com/profile_banners/52463362/1453694779
p1710
aVhttps://pbs.twimg.com/profile_banners/60976207/1411745379
p1711
aVhttps://pbs.twimg.com/profile_banners/2413854716/1454917717
p1712
aVhttps://pbs.twimg.com/profile_banners/65489178/1449297091
p1713
aVhttps://pbs.twimg.com/profile_banners/3389532683/1438904926
p1714
aVhttps://pbs.twimg.com/profile_banners/232653212/1447351658
p1715
aVhttps://pbs.twimg.com/profile_banners/76783145/1454308401
p1716
aVhttps://pbs.twimg.com/profile_banners/706806911/1447340782
p1717
aVhttps://pbs.twimg.com/profile_banners/3841315275/1454103164
p1718
aVhttps://pbs.twimg.com/profile_banners/46714243/1452980529
p1719
aVhttps://pbs.twimg.com/profile_banners/2739322004/1453641766
p1720
aVhttps://pbs.twimg.com/profile_banners/3139744730/1438498101
p1721
aVhttps://pbs.twimg.com/profile_banners/37733315/1452228267
p1722
aVhttps://pbs.twimg.com/profile_banners/68286810/1436922782
p1723
aVhttps://pbs.twimg.com/profile_banners/93028020/1444865343
p1724
aVhttps://pbs.twimg.com/profile_banners/2880753306/1454814666
p1725
aVhttps://pbs.twimg.com/profile_banners/1870256994/1429393590
p1726
aVhttps://pbs.twimg.com/profile_banners/2565887354/1452325602
p1727
aVhttps://pbs.twimg.com/profile_banners/1056539832/1455377659
p1728
aVhttps://pbs.twimg.com/profile_banners/4271083881/1448428994
p1729
aVhttps://pbs.twimg.com/profile_banners/1152568500/1453750333
p1730
aVhttps://pbs.twimg.com/profile_banners/938725946/1443527848
p1731
aVhttps://pbs.twimg.com/profile_banners/541626023/1455324615
p1732
aVhttps://pbs.twimg.com/profile_banners/4698877633/1455123569
p1733
aVhttps://pbs.twimg.com/profile_banners/41702222/1453231342
p1734
aVhttps://pbs.twimg.com/profile_banners/2309077015/1455258292
p1735
aVhttps://pbs.twimg.com/profile_banners/3669903795/1452203998
p1736
aVhttps://pbs.twimg.com/profile_banners/1543420230/1451755490
p1737
aVhttps://pbs.twimg.com/profile_banners/1681818367/1455163749
p1738
aVhttps://pbs.twimg.com/profile_banners/2869834273/1413938323
p1739
aVhttps://pbs.twimg.com/profile_banners/81149350/1432865240
p1740
aVhttps://pbs.twimg.com/profile_banners/3013669817/1435115940
p1741
aVhttps://pbs.twimg.com/profile_banners/1626514549/1455190476
p1742
aVhttps://pbs.twimg.com/profile_banners/414049378/1446556566
p1743
aVhttps://pbs.twimg.com/profile_banners/31630176/1455101289
p1744
aVhttps://pbs.twimg.com/profile_banners/4164226034/1454262073
p1745
aVhttps://pbs.twimg.com/profile_banners/3087722102/1455241324
p1746
aVhttps://pbs.twimg.com/profile_banners/419254780/1454014599
p1747
aVhttps://pbs.twimg.com/profile_banners/178838503/1450496159
p1748
aVhttps://pbs.twimg.com/profile_banners/105580137/1455003574
p1749
aVhttps://pbs.twimg.com/profile_banners/1126555916/1445295224
p1750
aVhttps://pbs.twimg.com/profile_banners/26579036/1400944130
p1751
aVhttps://pbs.twimg.com/profile_banners/384911162/1449432275
p1752
aVhttps://pbs.twimg.com/profile_banners/4253642174/1454814223
p1753
aVhttps://pbs.twimg.com/profile_banners/2156258240/1451559469
p1754
aVhttps://pbs.twimg.com/profile_banners/1092800713/1455329942
p1755
aVhttps://pbs.twimg.com/profile_banners/2725674345/1454794334
p1756
aVhttps://pbs.twimg.com/profile_banners/1433955914/1449412451
p1757
aVhttps://pbs.twimg.com/profile_banners/414321527/1454960852
p1758
aVhttps://pbs.twimg.com/profile_banners/566806442/1454598215
p1759
aVhttps://pbs.twimg.com/profile_banners/606089480/1452999316
p1760
aVhttps://pbs.twimg.com/profile_banners/282014277/1454184082
p1761
aVhttps://pbs.twimg.com/profile_banners/2312388943/1455220021
p1762
aVhttps://pbs.twimg.com/profile_banners/3105837370/1455325340
p1763
aVhttps://pbs.twimg.com/profile_banners/8607372/1436779744
p1764
aVhttps://pbs.twimg.com/profile_banners/1128000972/1432909167
p1765
aVhttps://pbs.twimg.com/profile_banners/3644060654/1445165055
p1766
aVhttps://pbs.twimg.com/profile_banners/208401763/1439540292
p1767
aVhttps://pbs.twimg.com/profile_banners/637089655/1442430614
p1768
aVhttps://pbs.twimg.com/profile_banners/1340874542/1455233132
p1769
aVhttps://pbs.twimg.com/profile_banners/888414373/1454246786
p1770
aVhttps://pbs.twimg.com/profile_banners/121302223/1433297586
p1771
aVhttps://pbs.twimg.com/profile_banners/715918094/1455361759
p1772
aVhttps://pbs.twimg.com/profile_banners/873742014/1451338687
p1773
aVhttps://pbs.twimg.com/profile_banners/446214559/1375369245
p1774
aVhttps://pbs.twimg.com/profile_banners/21708671/1421240968
p1775
aVhttps://pbs.twimg.com/profile_banners/2656579200/1455320502
p1776
aVhttps://pbs.twimg.com/profile_banners/3265453598/1455239519
p1777
aVhttps://pbs.twimg.com/profile_banners/752015910/1454985791
p1778
aVhttps://pbs.twimg.com/profile_banners/1513664090/1455304352
p1779
aVhttps://pbs.twimg.com/profile_banners/2157906313/1455250208
p1780
aVhttps://pbs.twimg.com/profile_banners/517213370/1451193384
p1781
aVhttps://pbs.twimg.com/profile_banners/94602665/1361926073
p1782
aVhttps://pbs.twimg.com/profile_banners/2642063122/1445730428
p1783
aVhttps://pbs.twimg.com/profile_banners/1334500921/1446635234
p1784
aVhttps://pbs.twimg.com/profile_banners/421904766/1391947832
p1785
aVhttps://pbs.twimg.com/profile_banners/64535849/1443907952
p1786
aVhttps://pbs.twimg.com/profile_banners/177329747/1421011462
p1787
aVhttps://pbs.twimg.com/profile_banners/2181492408/1433743737
p1788
aVhttps://pbs.twimg.com/profile_banners/3191841002/1455031171
p1789
aVhttps://pbs.twimg.com/profile_banners/942542827/1452457687
p1790
aVhttps://pbs.twimg.com/profile_banners/535958242/1449727171
p1791
aVhttps://pbs.twimg.com/profile_banners/477939377/1452956126
p1792
aVhttps://pbs.twimg.com/profile_banners/112920147/1404328493
p1793
aVhttps://pbs.twimg.com/profile_banners/1518058957/1452913633
p1794
aVhttps://pbs.twimg.com/profile_banners/237206940/1454230279
p1795
aVhttps://pbs.twimg.com/profile_banners/3753538215/1454653329
p1796
aVhttps://pbs.twimg.com/profile_banners/1591587698/1455249390
p1797
aVhttps://pbs.twimg.com/profile_banners/3500496506/1449040491
p1798
aVhttps://pbs.twimg.com/profile_banners/2927351407/1455353200
p1799
aVhttps://pbs.twimg.com/profile_banners/2360290110/1454345042
p1800
aVhttps://pbs.twimg.com/profile_banners/194841385/1455237208
p1801
aVhttps://pbs.twimg.com/profile_banners/3244357414/1431222978
p1802
aVhttps://pbs.twimg.com/profile_banners/3306049771/1455018108
p1803
aVhttps://pbs.twimg.com/profile_banners/431264105/1453600088
p1804
aVhttps://pbs.twimg.com/profile_banners/2376341281/1445006237
p1805
aVhttps://pbs.twimg.com/profile_banners/1547463068/1425606576
p1806
aVhttps://pbs.twimg.com/profile_banners/4882990869/1454793473
p1807
aVhttps://pbs.twimg.com/profile_banners/4568541503/1450882189
p1808
aVhttps://pbs.twimg.com/profile_banners/2425960444/1452832805
p1809
aVhttps://pbs.twimg.com/profile_banners/3230587290/1455365475
p1810
aVhttps://pbs.twimg.com/profile_banners/3303432310/1455340837
p1811
aVhttps://pbs.twimg.com/profile_banners/1284419737/1423621773
p1812
aVhttps://pbs.twimg.com/profile_banners/2329203169/1441199991
p1813
aVhttps://pbs.twimg.com/profile_banners/1109850836/1451861049
p1814
aVhttps://pbs.twimg.com/profile_banners/2613728101/1454548570
p1815
aVhttps://pbs.twimg.com/profile_banners/2737015671/1453812920
p1816
aVhttps://pbs.twimg.com/profile_banners/372434101/1453607610
p1817
aVhttps://pbs.twimg.com/profile_banners/1599126080/1455084600
p1818
aVhttps://pbs.twimg.com/profile_banners/187807380/1442915140
p1819
aVhttps://pbs.twimg.com/profile_banners/711789521/1454684357
p1820
aVhttps://pbs.twimg.com/profile_banners/385194354/1444603097
p1821
aVhttps://pbs.twimg.com/profile_banners/545637054/1451851123
p1822
aVhttps://pbs.twimg.com/profile_banners/1633015663/1455363780
p1823
aVhttps://pbs.twimg.com/profile_banners/3833017102/1454971621
p1824
aVhttps://pbs.twimg.com/profile_banners/2347091517/1454898384
p1825
aVhttps://pbs.twimg.com/profile_banners/3074465359/1455316169
p1826
aVhttps://pbs.twimg.com/profile_banners/4306441402/1449928742
p1827
aVhttps://pbs.twimg.com/profile_banners/4762762650/1454812206
p1828
aVhttps://pbs.twimg.com/profile_banners/4271268375/1450382215
p1829
aVhttps://pbs.twimg.com/profile_banners/1687355952/1452046409
p1830
aVhttps://pbs.twimg.com/profile_banners/2687867435/1453235837
p1831
aVhttps://pbs.twimg.com/profile_banners/3273062653/1454587613
p1832
aVhttps://pbs.twimg.com/profile_banners/53234948/1453674829
p1833
aVhttps://pbs.twimg.com/profile_banners/2986726860/1442275759
p1834
aVhttps://pbs.twimg.com/profile_banners/3139673581/1453995664
p1835
aVhttps://pbs.twimg.com/profile_banners/318074355/1427703101
p1836
aVhttps://pbs.twimg.com/profile_banners/1915564838/1454802059
p1837
aVhttps://pbs.twimg.com/profile_banners/412951171/1454073457
p1838
aVhttps://pbs.twimg.com/profile_banners/2280390140/1419260714
p1839
aVhttps://pbs.twimg.com/profile_banners/4870545502/1455369438
p1840
aVhttps://pbs.twimg.com/profile_banners/2598084157/1447630418
p1841
aVhttps://pbs.twimg.com/profile_banners/1576871444/1454946666
p1842
aVhttps://pbs.twimg.com/profile_banners/2754872702/1452694345
p1843
aVhttps://pbs.twimg.com/profile_banners/2246187428/1425566549
p1844
aVhttps://pbs.twimg.com/profile_banners/332053178/1453944945
p1845
aVhttps://pbs.twimg.com/profile_banners/28434714/1447029923
p1846
aVhttps://pbs.twimg.com/profile_banners/3669765974/1451456131
p1847
aVhttps://pbs.twimg.com/profile_banners/283075946/1455051514
p1848
aVhttps://pbs.twimg.com/profile_banners/292619181/1385844587
p1849
aVhttps://pbs.twimg.com/profile_banners/34399239/1454888110
p1850
aVhttps://pbs.twimg.com/profile_banners/146864931/1448104815
p1851
aVhttps://pbs.twimg.com/profile_banners/4306290496/1448708561
p1852
aVhttps://pbs.twimg.com/profile_banners/40443615/1424176508
p1853
aVhttps://pbs.twimg.com/profile_banners/4628576467/1451710236
p1854
aVhttps://pbs.twimg.com/profile_banners/109371771/1454868260
p1855
aVhttps://pbs.twimg.com/profile_banners/840642290/1455307351
p1856
aVhttps://pbs.twimg.com/profile_banners/2382662514/1455165833
p1857
aVhttps://pbs.twimg.com/profile_banners/3587229138/1455368733
p1858
aVhttps://pbs.twimg.com/profile_banners/2934728139/1454698406
p1859
aVhttps://pbs.twimg.com/profile_banners/697032573395058688/1455020718
p1860
aVhttps://pbs.twimg.com/profile_banners/2586542376/1454506737
p1861
aVhttps://pbs.twimg.com/profile_banners/307868624/1454139836
p1862
aVhttps://pbs.twimg.com/profile_banners/3148791030/1434576800
p1863
aVhttps://pbs.twimg.com/profile_banners/915137490/1413633221
p1864
aVhttps://pbs.twimg.com/profile_banners/2696286809/1454498108
p1865
aVhttps://pbs.twimg.com/profile_banners/2960548907/1443707380
p1866
aVhttps://pbs.twimg.com/profile_banners/1363510334/1448831056
p1867
aVhttps://pbs.twimg.com/profile_banners/2319471720/1454025987
p1868
aVhttps://pbs.twimg.com/profile_banners/89614753/1364060775
p1869
aVhttps://pbs.twimg.com/profile_banners/3099931316/1455366767
p1870
aVhttps://pbs.twimg.com/profile_banners/4696697743/1455183437
p1871
aVhttps://pbs.twimg.com/profile_banners/549498136/1403133109
p1872
aVhttps://pbs.twimg.com/profile_banners/3397607511/1439475057
p1873
aVhttps://pbs.twimg.com/profile_banners/4475247929/1450050374
p1874
aVhttps://pbs.twimg.com/profile_banners/416421777/1453327940
p1875
aVhttps://pbs.twimg.com/profile_banners/385910404/1436508571
p1876
aVhttps://pbs.twimg.com/profile_banners/533042773/1454850022
p1877
aVhttps://pbs.twimg.com/profile_banners/3301298137/1454306812
p1878
aVhttps://pbs.twimg.com/profile_banners/365376426/1451069481
p1879
aVhttps://pbs.twimg.com/profile_banners/3010170810/1426431930
p1880
aVhttps://pbs.twimg.com/profile_banners/2658968208/1454924313
p1881
aVhttps://pbs.twimg.com/profile_banners/555618719/1453995612
p1882
aVhttps://pbs.twimg.com/profile_banners/1689357804/1447758984
p1883
aVhttps://pbs.twimg.com/profile_banners/2761350887/1452559391
p1884
aVhttps://pbs.twimg.com/profile_banners/436611193/1440410362
p1885
aVhttps://pbs.twimg.com/profile_banners/1497537085/1454510844
p1886
aVhttps://pbs.twimg.com/profile_banners/4899025677/1455302363
p1887
aVhttps://pbs.twimg.com/profile_banners/118988858/1454180701
p1888
aVhttps://pbs.twimg.com/profile_banners/171621506/1454929024
p1889
aVhttps://pbs.twimg.com/profile_banners/287161833/1408999793
p1890
aVhttps://pbs.twimg.com/profile_banners/3323244775/1455157295
p1891
aVhttps://pbs.twimg.com/profile_banners/3425477451/1452446778
p1892
aVhttps://pbs.twimg.com/profile_banners/2658243187/1451623227
p1893
aVhttps://pbs.twimg.com/profile_banners/2774007786/1409162963
p1894
aVhttps://pbs.twimg.com/profile_banners/1726689870/1439113202
p1895
aVhttps://pbs.twimg.com/profile_banners/456957462/1408680135
p1896
aVhttps://pbs.twimg.com/profile_banners/2782818162/1442535978
p1897
aVhttps://pbs.twimg.com/profile_banners/3395931160/1438279729
p1898
aVhttps://pbs.twimg.com/profile_banners/346606714/1455234310
p1899
aVhttps://pbs.twimg.com/profile_banners/2566775324/1402738320
p1900
aVhttps://pbs.twimg.com/profile_banners/2893194343/1415467832
p1901
aVhttps://pbs.twimg.com/profile_banners/366448401/1434103435
p1902
aVhttps://pbs.twimg.com/profile_banners/31516111/1437192345
p1903
aVhttps://pbs.twimg.com/profile_banners/1131589650/1359479610
p1904
aVhttps://pbs.twimg.com/profile_banners/56543350/1454284765
p1905
aVhttps://pbs.twimg.com/profile_banners/295299665/1441911190
p1906
aVhttps://pbs.twimg.com/profile_banners/2814618871/1410945953
p1907
aVhttps://pbs.twimg.com/profile_banners/803348694/1454635704
p1908
aVhttps://pbs.twimg.com/profile_banners/80319337/1430763724
p1909
aVhttps://pbs.twimg.com/profile_banners/236863717/1448306111
p1910
aVhttps://pbs.twimg.com/profile_banners/3035661064/1423868626
p1911
aVhttps://pbs.twimg.com/profile_banners/2816507440/1453142506
p1912
aVhttps://pbs.twimg.com/profile_banners/1087559923/1404292548
p1913
aVhttps://pbs.twimg.com/profile_banners/1569070813/1455117109
p1914
aVhttps://pbs.twimg.com/profile_banners/351381708/1453111335
p1915
aVhttps://pbs.twimg.com/profile_banners/3649077020/1455263126
p1916
aVhttps://pbs.twimg.com/profile_banners/3068519195/1445998464
p1917
aVhttps://pbs.twimg.com/profile_banners/1712561862/1421752434
p1918
aVhttps://pbs.twimg.com/profile_banners/781561272/1448292685
p1919
aVhttps://pbs.twimg.com/profile_banners/430727193/1392747507
p1920
aVhttps://pbs.twimg.com/profile_banners/3254034000/1435104591
p1921
aVhttps://pbs.twimg.com/profile_banners/23639309/1454287522
p1922
aVhttps://pbs.twimg.com/profile_banners/3506094623/1441059500
p1923
aVhttps://pbs.twimg.com/profile_banners/3357796193/1435970105
p1924
aVhttps://pbs.twimg.com/profile_banners/2800608903/1412277912
p1925
aVhttps://pbs.twimg.com/profile_banners/272068801/1366828230
p1926
aVhttps://pbs.twimg.com/profile_banners/731213132/1394488796
p1927
aVhttps://pbs.twimg.com/profile_banners/251994646/1451259494
p1928
aVhttps://pbs.twimg.com/profile_banners/2538408792/1417408958
p1929
aVhttps://pbs.twimg.com/profile_banners/4564475574/1455376138
p1930
aVhttps://pbs.twimg.com/profile_banners/347890158/1445653137
p1931
aVhttps://pbs.twimg.com/profile_banners/1180961940/1445562880
p1932
aVhttps://pbs.twimg.com/profile_banners/3067022490/1445109719
p1933
aVhttps://pbs.twimg.com/profile_banners/59057993/1423742739
p1934
aVhttps://pbs.twimg.com/profile_banners/269941762/1443485869
p1935
aVhttps://pbs.twimg.com/profile_banners/316190121/1451872159
p1936
aVhttps://pbs.twimg.com/profile_banners/441144122/1445371336
p1937
aVhttps://pbs.twimg.com/profile_banners/217726844/1436062058
p1938
aVhttps://pbs.twimg.com/profile_banners/1507066424/1382864487
p1939
aVhttps://pbs.twimg.com/profile_banners/80338062/1431432977
p1940
aVhttps://pbs.twimg.com/profile_banners/628592542/1361665479
p1941
aVhttps://pbs.twimg.com/profile_banners/1184133506/1453141018
p1942
aVhttps://pbs.twimg.com/profile_banners/18333622/1448982966
p1943
aVhttps://pbs.twimg.com/profile_banners/2396963676/1453151253
p1944
aVhttps://pbs.twimg.com/profile_banners/194079456/1454443581
p1945
aVhttps://pbs.twimg.com/profile_banners/2896395513/1421094720
p1946
aVhttps://pbs.twimg.com/profile_banners/619073248/1454658838
p1947
aVhttps://pbs.twimg.com/profile_banners/97768542/1399060128
p1948
aVhttps://pbs.twimg.com/profile_banners/292374563/1360783856
p1949
aVhttps://pbs.twimg.com/profile_banners/303281370/1432182038
p1950
aVhttps://pbs.twimg.com/profile_banners/22145959/1398692983
p1951
aVhttps://pbs.twimg.com/profile_banners/2389503561/1429190760
p1952
aVhttps://pbs.twimg.com/profile_banners/367818064/1429381860
p1953
aVhttps://pbs.twimg.com/profile_banners/1735687284/1435506495
p1954
aVhttps://pbs.twimg.com/profile_banners/2976206207/1424884517
p1955
aVhttps://pbs.twimg.com/profile_banners/164299771/1432512864
p1956
aVhttps://pbs.twimg.com/profile_banners/3381024743/1442454044
p1957
aVhttps://pbs.twimg.com/profile_banners/49255216/1441903487
p1958
aVhttps://pbs.twimg.com/profile_banners/232274279/1455112001
p1959
aVhttps://pbs.twimg.com/profile_banners/13833982/1429211525
p1960
aVhttps://pbs.twimg.com/profile_banners/604456932/1405012610
p1961
aVhttps://pbs.twimg.com/profile_banners/134803959/1366753319
p1962
aVhttps://pbs.twimg.com/profile_banners/114534852/1414572189
p1963
aVhttps://pbs.twimg.com/profile_banners/3213136127/1434996273
p1964
aVhttps://pbs.twimg.com/profile_banners/233005200/1455249269
p1965
aVhttps://pbs.twimg.com/profile_banners/729807702/1427917493
p1966
aVhttps://pbs.twimg.com/profile_banners/225897197/1348682094
p1967
aVhttps://pbs.twimg.com/profile_banners/3319592850/1446361342
p1968
aVhttps://pbs.twimg.com/profile_banners/16373137/1348451479
p1969
aVhttps://pbs.twimg.com/profile_banners/18438022/1455208811
p1970
aVhttps://pbs.twimg.com/profile_banners/34047406/1448642669
p1971
aVhttps://pbs.twimg.com/profile_banners/3231570985/1445587571
p1972
aVhttps://pbs.twimg.com/profile_banners/729798608/1452860666
p1973
aVhttps://pbs.twimg.com/profile_banners/3123766732/1454422748
p1974
aVhttps://pbs.twimg.com/profile_banners/187517136/1439843207
p1975
aVhttps://pbs.twimg.com/profile_banners/2984730901/1451345382
p1976
aVhttps://pbs.twimg.com/profile_banners/749986728/1443547090
p1977
aVhttps://pbs.twimg.com/profile_banners/973688886/1452061209
p1978
aVhttps://pbs.twimg.com/profile_banners/89192116/1446809342
p1979
aVhttps://pbs.twimg.com/profile_banners/49054558/1454532529
p1980
aVhttps://pbs.twimg.com/profile_banners/123613116/1404150345
p1981
aVhttps://pbs.twimg.com/profile_banners/2286186129/1438422241
p1982
aVhttps://pbs.twimg.com/profile_banners/2740871066/1408361180
p1983
aVhttps://pbs.twimg.com/profile_banners/45250653/1449520877
p1984
aVhttps://pbs.twimg.com/profile_banners/2895744792/1440912949
p1985
aVhttps://pbs.twimg.com/profile_banners/3087506616/1454271434
p1986
aVhttps://pbs.twimg.com/profile_banners/274136152/1407110149
p1987
aVhttps://pbs.twimg.com/profile_banners/573263587/1453281114
p1988
aVhttps://pbs.twimg.com/profile_banners/288034071/1448857349
p1989
aVhttps://pbs.twimg.com/profile_banners/185160900/1453981199
p1990
aVhttps://pbs.twimg.com/profile_banners/440366765/1442480317
p1991
aVhttps://pbs.twimg.com/profile_banners/14550939/1440723822
p1992
aVhttps://pbs.twimg.com/profile_banners/2887933402/1455209717
p1993
aVhttps://pbs.twimg.com/profile_banners/616833/1449440925
p1994
aVhttps://pbs.twimg.com/profile_banners/181764309/1408484372
p1995
aVhttps://pbs.twimg.com/profile_banners/195068725/1449073091
p1996
aVhttps://pbs.twimg.com/profile_banners/861532946/1454169346
p1997
aVhttps://pbs.twimg.com/profile_banners/273768180/1383643215
p1998
aVhttps://pbs.twimg.com/profile_banners/2203232041/1401478513
p1999
aVhttps://pbs.twimg.com/profile_banners/16699279/1442533469
p2000
aVhttps://pbs.twimg.com/profile_banners/18774246/1442844376
p2001
aVhttps://pbs.twimg.com/profile_banners/81513296/1427525418
p2002
aVhttps://pbs.twimg.com/profile_banners/101867471/1348301786
p2003
aVhttps://pbs.twimg.com/profile_banners/1030864790/1438292722
p2004
aVhttps://pbs.twimg.com/profile_banners/3157457904/1455377065
p2005
aVhttps://pbs.twimg.com/profile_banners/3169365820/1430294978
p2006
aVhttps://pbs.twimg.com/profile_banners/1653260394/1399459506
p2007
aVhttps://pbs.twimg.com/profile_banners/21452804/1390533731
p2008
aVhttps://pbs.twimg.com/profile_banners/2207780696/1436528693
p2009
aVhttps://pbs.twimg.com/profile_banners/762327451/1353407789
p2010
aVhttps://pbs.twimg.com/profile_banners/85707941/1392577417
p2011
aVhttps://pbs.twimg.com/profile_banners/498035017/1455324627
p2012
aVhttps://pbs.twimg.com/profile_banners/34201203/1349311466
p2013
aVhttps://pbs.twimg.com/profile_banners/4500178692/1452208393
p2014
aVhttps://pbs.twimg.com/profile_banners/25819530/1443280528
p2015
aVhttps://pbs.twimg.com/profile_banners/508768835/1454441955
p2016
aVhttps://pbs.twimg.com/profile_banners/3367491543/1454506511
p2017
aVhttps://pbs.twimg.com/profile_banners/8818562/1408027163
p2018
aVhttps://pbs.twimg.com/profile_banners/2206302126/1454644376
p2019
aVhttps://pbs.twimg.com/profile_banners/1861149764/1384110800
p2020
aVhttps://pbs.twimg.com/profile_banners/20745934/1348013883
p2021
aVhttps://pbs.twimg.com/profile_banners/2888669656/1447449995
p2022
aVhttps://pbs.twimg.com/profile_banners/18800840/1450266677
p2023
aVhttps://pbs.twimg.com/profile_banners/18456511/1442322301
p2024
aVhttps://pbs.twimg.com/profile_banners/209705089/1429821493
p2025
aVhttps://pbs.twimg.com/profile_banners/634514671/1450142354
p2026
aVhttps://pbs.twimg.com/profile_banners/872840173/1451218676
p2027
aVhttps://pbs.twimg.com/profile_banners/2858130168/1442456563
p2028
aVhttps://pbs.twimg.com/profile_banners/2847325644/1429114985
p2029
aVhttps://pbs.twimg.com/profile_banners/2746240854/1427823435
p2030
aVhttps://pbs.twimg.com/profile_banners/3991743498/1449848585
p2031
aVhttps://pbs.twimg.com/profile_banners/3285171433/1453675248
p2032
aVhttps://pbs.twimg.com/profile_banners/45649435/1400692313
p2033
aVhttps://pbs.twimg.com/profile_banners/2246958113/1451334337
p2034
aVhttps://pbs.twimg.com/profile_banners/28493247/1377234916
p2035
aVhttps://pbs.twimg.com/profile_banners/1710120552/1449311408
p2036
aVhttps://pbs.twimg.com/profile_banners/4471772775/1450025768
p2037
aVhttps://pbs.twimg.com/profile_banners/2921331198/1455095684
p2038
aVhttps://pbs.twimg.com/profile_banners/510091707/1455365447
p2039
aVhttps://pbs.twimg.com/profile_banners/2970074355/1453229231
p2040
aVhttps://pbs.twimg.com/profile_banners/3478950622/1440850167
p2041
aVhttps://pbs.twimg.com/profile_banners/2490285582/1455284636
p2042
aVhttps://pbs.twimg.com/profile_banners/3257796815/1432182390
p2043
aVhttps://pbs.twimg.com/profile_banners/2148939786/1455110996
p2044
aVhttps://pbs.twimg.com/profile_banners/2971298278/1437991628
p2045
aVhttps://pbs.twimg.com/profile_banners/2372004035/1454436565
p2046
aVhttps://pbs.twimg.com/profile_banners/3301803234/1455338437
p2047
aVhttps://pbs.twimg.com/profile_banners/23450564/1387850462
p2048
aVhttps://pbs.twimg.com/profile_banners/3386687206/1442454185
p2049
aVhttps://pbs.twimg.com/profile_banners/4648608853/1455238449
p2050
aVhttps://pbs.twimg.com/profile_banners/4039719493/1448111757
p2051
aVhttps://pbs.twimg.com/profile_banners/150653567/1450200933
p2052
aVhttps://pbs.twimg.com/profile_banners/5789492/1437595360
p2053
aVhttps://pbs.twimg.com/profile_banners/2945115937/1444574294
p2054
aVhttps://pbs.twimg.com/profile_banners/154377508/1399662246
p2055
aVhttps://pbs.twimg.com/profile_banners/377282357/1393435620
p2056
aVhttps://pbs.twimg.com/profile_banners/3013003843/1442052342
p2057
aVhttps://pbs.twimg.com/profile_banners/2513334638/1402557731
p2058
aVhttps://pbs.twimg.com/profile_banners/3658109238/1445621284
p2059
aVhttps://pbs.twimg.com/profile_banners/3299435142/1450870840
p2060
aVhttps://pbs.twimg.com/profile_banners/202855034/1447208253
p2061
aVhttps://pbs.twimg.com/profile_banners/490177170/1453903051
p2062
aVhttps://pbs.twimg.com/profile_banners/2429610398/1451660086
p2063
aVhttps://pbs.twimg.com/profile_banners/495355304/1404408388
p2064
aVhttps://pbs.twimg.com/profile_banners/1439692628/1379033651
p2065
aVhttps://pbs.twimg.com/profile_banners/2191239486/1454424283
p2066
aVhttps://pbs.twimg.com/profile_banners/2677868993/1453616291
p2067
aVhttps://pbs.twimg.com/profile_banners/2941409994/1420605495
p2068
aVhttps://pbs.twimg.com/profile_banners/605643501/1454349294
p2069
aVhttps://pbs.twimg.com/profile_banners/64309747/1450218958
p2070
aVhttps://pbs.twimg.com/profile_banners/1130943660/1455377825
p2071
aVhttps://pbs.twimg.com/profile_banners/2352921037/1454065043
p2072
aVhttps://pbs.twimg.com/profile_banners/1475461634/1425341943
p2073
aVhttps://pbs.twimg.com/profile_banners/340234449/1455109319
p2074
aVhttps://pbs.twimg.com/profile_banners/2231898000/1433744813
p2075
aVhttps://pbs.twimg.com/profile_banners/4528200856/1452871255
p2076
aVhttps://pbs.twimg.com/profile_banners/3698645298/1447201594
p2077
aVhttps://pbs.twimg.com/profile_banners/4580909055/1451820688
p2078
aVhttps://pbs.twimg.com/profile_banners/3021182617/1454511876
p2079
aVhttps://pbs.twimg.com/profile_banners/277645921/1455137851
p2080
aVhttps://pbs.twimg.com/profile_banners/3136004156/1435309727
p2081
aVhttps://pbs.twimg.com/profile_banners/3422649554/1450808911
p2082
aVhttps://pbs.twimg.com/profile_banners/399045509/1398201109
p2083
aVhttps://pbs.twimg.com/profile_banners/313719062/1435867432
p2084
aVhttps://pbs.twimg.com/profile_banners/107515416/1406618053
p2085
aVhttps://pbs.twimg.com/profile_banners/1224154813/1448173086
p2086
aVhttps://pbs.twimg.com/profile_banners/174973896/1444826823
p2087
aVhttps://pbs.twimg.com/profile_banners/139155136/1454530239
p2088
aVhttps://pbs.twimg.com/profile_banners/2809100049/1453996469
p2089
aVhttps://pbs.twimg.com/profile_banners/189423727/1418832962
p2090
aVhttps://pbs.twimg.com/profile_banners/2706319916/1407289616
p2091
aVhttps://pbs.twimg.com/profile_banners/3457800433/1442369256
p2092
aVhttps://pbs.twimg.com/profile_banners/2370959600/1453764618
p2093
aVhttps://pbs.twimg.com/profile_banners/2748400389/1451766021
p2094
aVhttps://pbs.twimg.com/profile_banners/167068751/1455337678
p2095
aVhttps://pbs.twimg.com/profile_banners/14707086/1454479939
p2096
aVhttps://pbs.twimg.com/profile_banners/606473018/1441902035
p2097
aVhttps://pbs.twimg.com/profile_banners/2532242793/1421617393
p2098
aVhttps://pbs.twimg.com/profile_banners/798368250/1454826864
p2099
aVhttps://pbs.twimg.com/profile_banners/1064961811/1453587086
p2100
aVhttps://pbs.twimg.com/profile_banners/4631799216/1454747842
p2101
aVhttps://pbs.twimg.com/profile_banners/42171911/1451353351
p2102
aVhttps://pbs.twimg.com/profile_banners/204439681/1455019335
p2103
aVhttps://pbs.twimg.com/profile_banners/39515860/1445109103
p2104
aVhttps://pbs.twimg.com/profile_banners/14157103/1433203210
p2105
aVhttps://pbs.twimg.com/profile_banners/2448749401/1411291426
p2106
aVhttps://pbs.twimg.com/profile_banners/2191223090/1450040357
p2107
aVhttps://pbs.twimg.com/profile_banners/1547421949/1455064385
p2108
aVhttps://pbs.twimg.com/profile_banners/238746000/1434817914
p2109
aVhttps://pbs.twimg.com/profile_banners/427032540/1454040242
p2110
aVhttps://pbs.twimg.com/profile_banners/58644094/1400424271
p2111
aVhttps://pbs.twimg.com/profile_banners/2912498006/1417158932
p2112
aVhttps://pbs.twimg.com/profile_banners/42596258/1444448820
p2113
aVhttps://pbs.twimg.com/profile_banners/509064523/1427140783
p2114
aVhttps://pbs.twimg.com/profile_banners/3304751904/1455143657
p2115
aVhttps://pbs.twimg.com/profile_banners/20074976/1443707915
p2116
aVhttps://pbs.twimg.com/profile_banners/417779280/1367795663
p2117
aVhttps://pbs.twimg.com/profile_banners/2255481061/1417275948
p2118
aVhttps://pbs.twimg.com/profile_banners/69908860/1451998373
p2119
aVhttps://pbs.twimg.com/profile_banners/50715394/1448572112
p2120
aVhttps://pbs.twimg.com/profile_banners/1613405647/1443721336
p2121
aVhttps://pbs.twimg.com/profile_banners/31292969/1375390350
p2122
aVhttps://pbs.twimg.com/profile_banners/20560963/1453140542
p2123
aVhttps://pbs.twimg.com/profile_banners/778346004/1423586872
p2124
aVhttps://pbs.twimg.com/profile_banners/2945161266/1443624097
p2125
aVhttps://pbs.twimg.com/profile_banners/222166521/1447167074
p2126
aVhttps://pbs.twimg.com/profile_banners/3220835772/1455144493
p2127
aVhttps://pbs.twimg.com/profile_banners/1938779293/1450933211
p2128
aVhttps://pbs.twimg.com/profile_banners/3295787459/1455236748
p2129
aVhttps://pbs.twimg.com/profile_banners/606238159/1447343352
p2130
aVhttps://pbs.twimg.com/profile_banners/484945378/1423971738
p2131
aVhttps://pbs.twimg.com/profile_banners/262774803/1454877877
p2132
aVhttps://pbs.twimg.com/profile_banners/580525744/1454485178
p2133
aVhttps://pbs.twimg.com/profile_banners/703424136/1451929597
p2134
aVhttps://pbs.twimg.com/profile_banners/242349065/1438878920
p2135
aVhttps://pbs.twimg.com/profile_banners/2411683621/1397739572
p2136
aVhttps://pbs.twimg.com/profile_banners/166977027/1441135730
p2137
aVhttps://pbs.twimg.com/profile_banners/1531699093/1442311850
p2138
aVhttps://pbs.twimg.com/profile_banners/152191300/1427752089
p2139
aVhttps://pbs.twimg.com/profile_banners/190226038/1445394700
p2140
aVhttps://pbs.twimg.com/profile_banners/83417417/1453342305
p2141
aVhttps://pbs.twimg.com/profile_banners/62109031/1353671643
p2142
aVhttps://pbs.twimg.com/profile_banners/914807264/1435446363
p2143
aVhttps://pbs.twimg.com/profile_banners/3072695696/1454300014
p2144
aVhttps://pbs.twimg.com/profile_banners/3623179817/1455378215
p2145
aVhttps://pbs.twimg.com/profile_banners/2757442315/1455377907
p2146
aVhttps://pbs.twimg.com/profile_banners/394836129/1455303289
p2147
aVhttps://pbs.twimg.com/profile_banners/265184444/1451711102
p2148
aVhttps://pbs.twimg.com/profile_banners/4813332975/1454601390
p2149
aVhttps://pbs.twimg.com/profile_banners/816475459/1452615975
p2150
aVhttps://pbs.twimg.com/profile_banners/563089477/1452265842
p2151
aVhttps://pbs.twimg.com/profile_banners/572082389/1433975691
p2152
aVhttps://pbs.twimg.com/profile_banners/427213502/1445007562
p2153
aVhttps://pbs.twimg.com/profile_banners/39483383/1440031565
p2154
aVhttps://pbs.twimg.com/profile_banners/271784413/1354997591
p2155
aVhttps://pbs.twimg.com/profile_banners/3041180166/1455242331
p2156
aVhttps://pbs.twimg.com/profile_banners/596132097/1446777281
p2157
aVhttps://pbs.twimg.com/profile_banners/226039921/1419094555
p2158
aVhttps://pbs.twimg.com/profile_banners/3035564740/1423864413
p2159
aVhttps://pbs.twimg.com/profile_banners/257150516/1455344662
p2160
aVhttps://pbs.twimg.com/profile_banners/1657857427/1428164019
p2161
aVhttps://pbs.twimg.com/profile_banners/16005814/1445115741
p2162
aVhttps://pbs.twimg.com/profile_banners/99255463/1405993522
p2163
aVhttps://pbs.twimg.com/profile_banners/2958108522/1454739627
p2164
aVhttps://pbs.twimg.com/profile_banners/68013016/1454967609
p2165
aVhttps://pbs.twimg.com/profile_banners/377245087/1423329120
p2166
aVhttps://pbs.twimg.com/profile_banners/1865341075/1398605380
p2167
aVhttps://pbs.twimg.com/profile_banners/2365706413/1442839595
p2168
aVhttps://pbs.twimg.com/profile_banners/3433608046/1442455478
p2169
aVhttps://pbs.twimg.com/profile_banners/67239223/1449293248
p2170
aVhttps://pbs.twimg.com/profile_banners/400348620/1438733242
p2171
aVhttps://pbs.twimg.com/profile_banners/4081472113/1451665545
p2172
aVhttps://pbs.twimg.com/profile_banners/694947843719749632/1454526888
p2173
aVhttps://pbs.twimg.com/profile_banners/49707617/1426627132
p2174
aVhttps://pbs.twimg.com/profile_banners/284996482/1435099563
p2175
aVhttps://pbs.twimg.com/profile_banners/369059904/1453691054
p2176
aVhttps://pbs.twimg.com/profile_banners/291650241/1454475723
p2177
aVhttps://pbs.twimg.com/profile_banners/2849269327/1455380212
p2178
aVhttps://pbs.twimg.com/profile_banners/3308400158/1438918201
p2179
aVhttps://pbs.twimg.com/profile_banners/283168374/1447883045
p2180
aVhttps://pbs.twimg.com/profile_banners/56747481/1379247194
p2181
aVhttps://pbs.twimg.com/profile_banners/1653486547/1415452713
p2182
aVhttps://pbs.twimg.com/profile_banners/3388306121/1442454590
p2183
aVhttps://pbs.twimg.com/profile_banners/21965432/1454793690
p2184
aVhttps://pbs.twimg.com/profile_banners/2791076815/1455193624
p2185
aVhttps://pbs.twimg.com/profile_banners/2774480962/1447397238
p2186
aVhttps://pbs.twimg.com/profile_banners/3548142262/1450376049
p2187
aVhttps://pbs.twimg.com/profile_banners/1343776830/1455380318
p2188
aVhttps://pbs.twimg.com/profile_banners/1920807991/1452907763
p2189
aVhttps://pbs.twimg.com/profile_banners/113035690/1433100932
p2190
aVhttps://pbs.twimg.com/profile_banners/919708688/1454945444
p2191
aVhttps://pbs.twimg.com/profile_banners/90816854/1391937806
p2192
aVhttps://pbs.twimg.com/profile_banners/2255528509/1401055915
p2193
aVhttps://pbs.twimg.com/profile_banners/853801490/1419263843
p2194
aVhttps://pbs.twimg.com/profile_banners/236611299/1421210101
p2195
aVhttps://pbs.twimg.com/profile_banners/284476450/1455187040
p2196
aVhttps://pbs.twimg.com/profile_banners/3424277571/1455120187
p2197
aVhttps://pbs.twimg.com/profile_banners/1571698658/1452582696
p2198
aVhttps://pbs.twimg.com/profile_banners/118181747/1453412502
p2199
aVhttps://pbs.twimg.com/profile_banners/2317286859/1447127566
p2200
aVhttps://pbs.twimg.com/profile_banners/982678748/1455379882
p2201
aVhttps://pbs.twimg.com/profile_banners/2787594120/1454082822
p2202
aVhttps://pbs.twimg.com/profile_banners/523006342/1448913972
p2203
aVhttps://pbs.twimg.com/profile_banners/76484700/1453125411
p2204
aVhttps://pbs.twimg.com/profile_banners/1678047254/1388069673
p2205
aVhttps://pbs.twimg.com/profile_banners/1382393394/1453545758
p2206
aVhttps://pbs.twimg.com/profile_banners/227406035/1419553118
p2207
aVhttps://pbs.twimg.com/profile_banners/4145428452/1450616409
p2208
aVhttps://pbs.twimg.com/profile_banners/83638974/1442265311
p2209
aVhttps://pbs.twimg.com/profile_banners/315292983/1451396252
p2210
aVhttps://pbs.twimg.com/profile_banners/291088458/1355655513
p2211
aVhttps://pbs.twimg.com/profile_banners/2963532897/1454679716
p2212
aVhttps://pbs.twimg.com/profile_banners/25185293/1453925227
p2213
aVhttps://pbs.twimg.com/profile_banners/2489060538/1452996009
p2214
aVhttps://pbs.twimg.com/profile_banners/112271599/1454723784
p2215
aVhttps://pbs.twimg.com/profile_banners/16415617/1398826251
p2216
aVhttps://pbs.twimg.com/profile_banners/343341061/1429855458
p2217
aVhttps://pbs.twimg.com/profile_banners/121489952/1455303715
p2218
aVhttps://pbs.twimg.com/profile_banners/369919093/1432865091
p2219
aVhttps://pbs.twimg.com/profile_banners/2372437498/1453331208
p2220
aVhttps://pbs.twimg.com/profile_banners/74549740/1409605938
p2221
aVhttps://pbs.twimg.com/profile_banners/2781324344/1451010350
p2222
aVhttps://pbs.twimg.com/profile_banners/2311537296/1437753818
p2223
aVhttps://pbs.twimg.com/profile_banners/3397017734/1454282160
p2224
aVhttps://pbs.twimg.com/profile_banners/326357436/1450889623
p2225
aVhttps://pbs.twimg.com/profile_banners/300799449/1435981379
p2226
aVhttps://pbs.twimg.com/profile_banners/3233120807/1455357192
p2227
aVhttps://pbs.twimg.com/profile_banners/961343264/1353454628
p2228
aVhttps://pbs.twimg.com/profile_banners/3302117582/1454632770
p2229
aVhttps://pbs.twimg.com/profile_banners/609800890/1452643034
p2230
aVhttps://pbs.twimg.com/profile_banners/66278769/1422857516
p2231
aVhttps://pbs.twimg.com/profile_banners/2864981177/1449265897
p2232
aVhttps://pbs.twimg.com/profile_banners/313798185/1455016927
p2233
aVhttps://pbs.twimg.com/profile_banners/3111858261/1453244226
p2234
aVhttps://pbs.twimg.com/profile_banners/2393805379/1411628462
p2235
aVhttps://pbs.twimg.com/profile_banners/326530132/1354103617
p2236
aVhttps://pbs.twimg.com/profile_banners/1090653367/1454284884
p2237
aVhttps://pbs.twimg.com/profile_banners/3315086840/1451828182
p2238
aVhttps://pbs.twimg.com/profile_banners/612850298/1451016720
p2239
aVhttps://pbs.twimg.com/profile_banners/3687970760/1448679981
p2240
aVhttps://pbs.twimg.com/profile_banners/31544023/1451725624
p2241
aVhttps://pbs.twimg.com/profile_banners/2900742766/1454063304
p2242
aVhttps://pbs.twimg.com/profile_banners/1664245806/1420605755
p2243
aVhttps://pbs.twimg.com/profile_banners/3557582901/1455048449
p2244
aVhttps://pbs.twimg.com/profile_banners/1066334605/1455192888
p2245
aVhttps://pbs.twimg.com/profile_banners/24842854/1431035902
p2246
aVhttps://pbs.twimg.com/profile_banners/1035202645/1450231041
p2247
aVhttps://pbs.twimg.com/profile_banners/151405495/1452038511
p2248
aVhttps://pbs.twimg.com/profile_banners/2203993411/1455231256
p2249
aVhttps://pbs.twimg.com/profile_banners/218184388/1425292153
p2250
aVhttps://pbs.twimg.com/profile_banners/1873068686/1449391509
p2251
aVhttps://pbs.twimg.com/profile_banners/794585587/1451645162
p2252
aVhttps://pbs.twimg.com/profile_banners/3025210929/1448054931
p2253
aVhttps://pbs.twimg.com/profile_banners/2892499036/1454936163
p2254
aVhttps://pbs.twimg.com/profile_banners/3222297649/1455377386
p2255
aVhttps://pbs.twimg.com/profile_banners/403598762/1455376139
p2256
aVhttps://pbs.twimg.com/profile_banners/3048047139/1448416399
p2257
aVhttps://pbs.twimg.com/profile_banners/84846583/1454704227
p2258
aVhttps://pbs.twimg.com/profile_banners/81675136/1448005537
p2259
aVhttps://pbs.twimg.com/profile_banners/109070092/1440965662
p2260
aVhttps://pbs.twimg.com/profile_banners/3322569824/1447601299
p2261
aVhttps://pbs.twimg.com/profile_banners/439647015/1438728845
p2262
aVhttps://pbs.twimg.com/profile_banners/3033614304/1454239700
p2263
aVhttps://pbs.twimg.com/profile_banners/252572892/1433261879
p2264
aVhttps://pbs.twimg.com/profile_banners/905017405/1450977159
p2265
aVhttps://pbs.twimg.com/profile_banners/1673966456/1379906682
p2266
aVhttps://pbs.twimg.com/profile_banners/3081048438/1430539745
p2267
aVhttps://pbs.twimg.com/profile_banners/3206923997/1454158683
p2268
aVhttps://pbs.twimg.com/profile_banners/3559677255/1454019346
p2269
aVhttps://pbs.twimg.com/profile_banners/3461304318/1444889343
p2270
aVhttps://pbs.twimg.com/profile_banners/3337821213/1454888282
p2271
aVhttps://pbs.twimg.com/profile_banners/167582460/1392927100
p2272
aVhttps://pbs.twimg.com/profile_banners/318769895/1451835549
p2273
aVhttps://pbs.twimg.com/profile_banners/609892390/1450775725
p2274
aVhttps://pbs.twimg.com/profile_banners/2896264345/1455365136
p2275
aVhttps://pbs.twimg.com/profile_banners/3599027779/1444186925
p2276
aVhttps://pbs.twimg.com/profile_banners/1371238369/1455345777
p2277
aVhttps://pbs.twimg.com/profile_banners/2854298322/1453104735
p2278
aVhttps://pbs.twimg.com/profile_banners/2282930023/1440577542
p2279
aVhttps://pbs.twimg.com/profile_banners/286707099/1455158871
p2280
aVhttps://pbs.twimg.com/profile_banners/705609982/1452742434
p2281
aVhttps://pbs.twimg.com/profile_banners/3059303430/1455360023
p2282
aVhttps://pbs.twimg.com/profile_banners/1689153120/1454697839
p2283
aVhttps://pbs.twimg.com/profile_banners/571793051/1454726782
p2284
aVhttps://pbs.twimg.com/profile_banners/68213709/1433437506
p2285
aVhttps://pbs.twimg.com/profile_banners/428354390/1454286364
p2286
aVhttps://pbs.twimg.com/profile_banners/1665344360/1455109214
p2287
aVhttps://pbs.twimg.com/profile_banners/1494007872/1455085375
p2288
aVhttps://pbs.twimg.com/profile_banners/499261776/1422377591
p2289
aVhttps://pbs.twimg.com/profile_banners/2836492658/1455022730
p2290
aVhttps://pbs.twimg.com/profile_banners/2479874022/1401265129
p2291
aVhttps://pbs.twimg.com/profile_banners/2566980405/1428278402
p2292
aVhttps://pbs.twimg.com/profile_banners/601980880/1451281348
p2293
aVhttps://pbs.twimg.com/profile_banners/233225234/1447044763
p2294
aVhttps://pbs.twimg.com/profile_banners/2455700293/1455366901
p2295
aVhttps://pbs.twimg.com/profile_banners/498046577/1453617175
p2296
aVhttps://pbs.twimg.com/profile_banners/610612206/1453218977
p2297
aVhttps://pbs.twimg.com/profile_banners/2571111773/1455065499
p2298
aVhttps://pbs.twimg.com/profile_banners/139669885/1376941276
p2299
aVhttps://pbs.twimg.com/profile_banners/29546802/1449681552
p2300
aVhttps://pbs.twimg.com/profile_banners/3095676326/1455331618
p2301
aVhttps://pbs.twimg.com/profile_banners/335496446/1450964729
p2302
aVhttps://pbs.twimg.com/profile_banners/352456566/1455078121
p2303
aVhttps://pbs.twimg.com/profile_banners/752054006/1455086071
p2304
aVhttps://pbs.twimg.com/profile_banners/52074354/1446775994
p2305
aVhttps://pbs.twimg.com/profile_banners/22389632/1429626575
p2306
aVhttps://pbs.twimg.com/profile_banners/217793230/1455225815
p2307
aVhttps://pbs.twimg.com/profile_banners/162593069/1454811569
p2308
aVhttps://pbs.twimg.com/profile_banners/313474163/1435623458
p2309
aVhttps://pbs.twimg.com/profile_banners/464790353/1454771980
p2310
aVhttps://pbs.twimg.com/profile_banners/22397913/1412823076
p2311
aVhttps://pbs.twimg.com/profile_banners/396426837/1433257604
p2312
aVhttps://pbs.twimg.com/profile_banners/855578732/1446253146
p2313
aVhttps://pbs.twimg.com/profile_banners/3313053389/1442979973
p2314
aVhttps://pbs.twimg.com/profile_banners/553676799/1455121004
p2315
aVhttps://pbs.twimg.com/profile_banners/65555663/1447742136
p2316
aVhttps://pbs.twimg.com/profile_banners/14141556/1433521248
p2317
aVhttps://pbs.twimg.com/profile_banners/508166401/1452258092
p2318
aVhttps://pbs.twimg.com/profile_banners/370160638/1455305607
p2319
aVhttps://pbs.twimg.com/profile_banners/1719503641/1454628595
p2320
aVhttps://pbs.twimg.com/profile_banners/23825416/1416982053
p2321
aVhttps://pbs.twimg.com/profile_banners/1387152726/1453483951
p2322
aVhttps://pbs.twimg.com/profile_banners/165007075/1455071206
p2323
aVhttps://pbs.twimg.com/profile_banners/278263268/1451364256
p2324
aVhttps://pbs.twimg.com/profile_banners/1076661734/1453085521
p2325
aVhttps://pbs.twimg.com/profile_banners/1701391531/1446977882
p2326
aVhttps://pbs.twimg.com/profile_banners/365197524/1445596799
p2327
aVhttps://pbs.twimg.com/profile_banners/458427220/1442501700
p2328
aVhttps://pbs.twimg.com/profile_banners/85246632/1450778945
p2329
aVhttps://pbs.twimg.com/profile_banners/366855731/1453911903
p2330
aVhttps://pbs.twimg.com/profile_banners/3256411661/1445272781
p2331
aVhttps://pbs.twimg.com/profile_banners/25319425/1423683980
p2332
aVhttps://pbs.twimg.com/profile_banners/233072370/1454624503
p2333
aVhttps://pbs.twimg.com/profile_banners/322121468/1455236166
p2334
aVhttps://pbs.twimg.com/profile_banners/998103848/1454281507
p2335
aVhttps://pbs.twimg.com/profile_banners/3068643267/1446831728
p2336
aVhttps://pbs.twimg.com/profile_banners/262059398/1380429441
p2337
aVhttps://pbs.twimg.com/profile_banners/2172935233/1453084816
p2338
aVhttps://pbs.twimg.com/profile_banners/1104905006/1447362332
p2339
aVhttps://pbs.twimg.com/profile_banners/2769232362/1453181629
p2340
aVhttps://pbs.twimg.com/profile_banners/1143314066/1453280563
p2341
aVhttps://pbs.twimg.com/profile_banners/195103033/1455299975
p2342
aVhttps://pbs.twimg.com/profile_banners/705947491/1448945698
p2343
aVhttps://pbs.twimg.com/profile_banners/2357612627/1442202666
p2344
aVhttps://pbs.twimg.com/profile_banners/60925423/1454130918
p2345
aVhttps://pbs.twimg.com/profile_banners/105846838/1413143189
p2346
aVhttps://pbs.twimg.com/profile_banners/394691264/1451207688
p2347
aVhttps://pbs.twimg.com/profile_banners/389015982/1451783742
p2348
aVhttps://pbs.twimg.com/profile_banners/516099979/1453495336
p2349
aVhttps://pbs.twimg.com/profile_banners/542521132/1452514523
p2350
aVhttps://pbs.twimg.com/profile_banners/267071944/1448328304
p2351
aVhttps://pbs.twimg.com/profile_banners/772780015/1452133585
p2352
aVhttps://pbs.twimg.com/profile_banners/2559104022/1455156119
p2353
aVhttps://pbs.twimg.com/profile_banners/470515449/1454222655
p2354
aVhttps://pbs.twimg.com/profile_banners/346282095/1450981247
p2355
aVhttps://pbs.twimg.com/profile_banners/3343081809/1454114233
p2356
aVhttps://pbs.twimg.com/profile_banners/494587993/1454210381
p2357
aVhttps://pbs.twimg.com/profile_banners/2415764243/1455375620
p2358
aVhttps://pbs.twimg.com/profile_banners/1722041191/1454076335
p2359
aVhttps://pbs.twimg.com/profile_banners/3183655825/1454481653
p2360
aVhttps://pbs.twimg.com/profile_banners/4603562262/1451153422
p2361
aVhttps://pbs.twimg.com/profile_banners/25558778/1454297183
p2362
aVhttps://pbs.twimg.com/profile_banners/2596382731/1431949015
p2363
aVhttps://pbs.twimg.com/profile_banners/42569357/1403329874
p2364
aVhttps://pbs.twimg.com/profile_banners/3422094281/1454799226
p2365
aVhttps://pbs.twimg.com/profile_banners/1518065827/1440831116
p2366
aVhttps://pbs.twimg.com/profile_banners/861601177/1449843109
p2367
aVhttps://pbs.twimg.com/profile_banners/446371391/1454275602
p2368
aVhttps://pbs.twimg.com/profile_banners/274299817/1425972375
p2369
aVhttps://pbs.twimg.com/profile_banners/1224721166/1454996287
p2370
aVhttps://pbs.twimg.com/profile_banners/564727533/1447115369
p2371
aVhttps://pbs.twimg.com/profile_banners/285490234/1433481099
p2372
aVhttps://pbs.twimg.com/profile_banners/2613540236/1454252894
p2373
aVhttps://pbs.twimg.com/profile_banners/7092842/1454795197
p2374
aVhttps://pbs.twimg.com/profile_banners/133182052/1454509027
p2375
aVhttps://pbs.twimg.com/profile_banners/242060259/1452252901
p2376
aVhttps://pbs.twimg.com/profile_banners/2270008051/1435353722
p2377
aVhttps://pbs.twimg.com/profile_banners/59753092/1429000969
p2378
aVhttps://pbs.twimg.com/profile_banners/3234334681/1453688897
p2379
aVhttps://pbs.twimg.com/profile_banners/2364152146/1422357461
p2380
aVhttps://pbs.twimg.com/profile_banners/4082893774/1455204743
p2381
aVhttps://pbs.twimg.com/profile_banners/121321393/1451281603
p2382
aVhttps://pbs.twimg.com/profile_banners/2288821177/1454739565
p2383
aVhttps://pbs.twimg.com/profile_banners/464239883/1452599898
p2384
aVhttps://pbs.twimg.com/profile_banners/2624673191/1453257772
p2385
aVhttps://pbs.twimg.com/profile_banners/2874382769/1420486317
p2386
aVhttps://pbs.twimg.com/profile_banners/1569949081/1454935415
p2387
aVhttps://pbs.twimg.com/profile_banners/316829444/1443242991
p2388
aVhttps://pbs.twimg.com/profile_banners/2769686969/1452305685
p2389
aVhttps://pbs.twimg.com/profile_banners/3197779291/1451585816
p2390
aVhttps://pbs.twimg.com/profile_banners/4753513821/1453979092
p2391
aVhttps://pbs.twimg.com/profile_banners/878486174/1449572225
p2392
aVhttps://pbs.twimg.com/profile_banners/185423399/1453865356
p2393
aVhttps://pbs.twimg.com/profile_banners/2796258750/1455142857
p2394
aVhttps://pbs.twimg.com/profile_banners/321674776/1454999820
p2395
aVhttps://pbs.twimg.com/profile_banners/425296329/1415761214
p2396
aVhttps://pbs.twimg.com/profile_banners/2179326339/1444667790
p2397
aVhttps://pbs.twimg.com/profile_banners/587621898/1448395091
p2398
aVhttps://pbs.twimg.com/profile_banners/709108380/1453849124
p2399
aVhttps://pbs.twimg.com/profile_banners/2528846665/1454772161
p2400
aVhttps://pbs.twimg.com/profile_banners/356481991/1455251983
p2401
aVhttps://pbs.twimg.com/profile_banners/2353271240/1453916135
p2402
aVhttps://pbs.twimg.com/profile_banners/352023744/1455331650
p2403
aVhttps://pbs.twimg.com/profile_banners/1070793272/1453788673
p2404
aVhttps://pbs.twimg.com/profile_banners/2941198476/1448495823
p2405
aVhttps://pbs.twimg.com/profile_banners/3750840495/1452652968
p2406
aVhttps://pbs.twimg.com/profile_banners/2432073901/1455066839
p2407
aVhttps://pbs.twimg.com/profile_banners/53814232/1448987293
p2408
aVhttps://pbs.twimg.com/profile_banners/2359073963/1455290960
p2409
aVhttps://pbs.twimg.com/profile_banners/286560213/1425440368
p2410
aVhttps://pbs.twimg.com/profile_banners/2497170271/1455075218
p2411
aVhttps://pbs.twimg.com/profile_banners/622462264/1384552456
p2412
aVhttps://pbs.twimg.com/profile_banners/175554245/1450075721
p2413
aVhttps://pbs.twimg.com/profile_banners/2747531174/1452728087
p2414
aVhttps://pbs.twimg.com/profile_banners/752236044/1452350956
p2415
aVhttps://pbs.twimg.com/profile_banners/351820531/1450767766
p2416
aVhttps://pbs.twimg.com/profile_banners/164706617/1454959391
p2417
aVhttps://pbs.twimg.com/profile_banners/2230557595/1453334818
p2418
aVhttps://pbs.twimg.com/profile_banners/3177142117/1455078213
p2419
aVhttps://pbs.twimg.com/profile_banners/105834578/1451401961
p2420
aVhttps://pbs.twimg.com/profile_banners/2694582092/1454603393
p2421
aVhttps://pbs.twimg.com/profile_banners/25587474/1417531405
p2422
aVhttps://pbs.twimg.com/profile_banners/1129546891/1453958061
p2423
aVhttps://pbs.twimg.com/profile_banners/19900085/1421435336
p2424
aVhttps://pbs.twimg.com/profile_banners/2278362800/1452607697
p2425
aVhttps://pbs.twimg.com/profile_banners/442027940/1452968372
p2426
aVhttps://pbs.twimg.com/profile_banners/3115843948/1451862093
p2427
aVhttps://pbs.twimg.com/profile_banners/250924750/1452551874
p2428
aVhttps://pbs.twimg.com/profile_banners/709750950/1453525479
p2429
aVhttps://pbs.twimg.com/profile_banners/2931544915/1454885139
p2430
aVhttps://pbs.twimg.com/profile_banners/441205880/1455052884
p2431
aVhttps://pbs.twimg.com/profile_banners/873273829/1444594035
p2432
aVhttps://pbs.twimg.com/profile_banners/4299540913/1453384221
p2433
aVhttps://pbs.twimg.com/profile_banners/2333990140/1455129972
p2434
aVhttps://pbs.twimg.com/profile_banners/3274665758/1455363604
p2435
aVhttps://pbs.twimg.com/profile_banners/1548922092/1424412619
p2436
aVhttps://pbs.twimg.com/profile_banners/3161963612/1441867624
p2437
aVhttps://pbs.twimg.com/profile_banners/2425664382/1453590901
p2438
aVhttps://pbs.twimg.com/profile_banners/151702120/1453969181
p2439
aVhttps://pbs.twimg.com/profile_banners/1180318560/1452818760
p2440
aVhttps://pbs.twimg.com/profile_banners/2303011905/1443773226
p2441
aVhttps://pbs.twimg.com/profile_banners/985895593/1375801048
p2442
aVhttps://pbs.twimg.com/profile_banners/722943480/1454943070
p2443
aVhttps://pbs.twimg.com/profile_banners/2348253066/1442819658
p2444
aVhttps://pbs.twimg.com/profile_banners/4271775614/1455208997
p2445
aVhttps://pbs.twimg.com/profile_banners/1158397189/1451677543
p2446
aVhttps://pbs.twimg.com/profile_banners/4683414751/1455336953
p2447
aVhttps://pbs.twimg.com/profile_banners/244029605/1451310689
p2448
aVhttps://pbs.twimg.com/profile_banners/581344391/1447605456
p2449
aVhttps://pbs.twimg.com/profile_banners/308820543/1453238047
p2450
aVhttps://pbs.twimg.com/profile_banners/2279981336/1439563207
p2451
aVhttps://pbs.twimg.com/profile_banners/1392087499/1455338082
p2452
aVhttps://pbs.twimg.com/profile_banners/431938694/1454418491
p2453
aVhttps://pbs.twimg.com/profile_banners/1072431942/1455327208
p2454
aVhttps://pbs.twimg.com/profile_banners/2405447720/1454135580
p2455
aVhttps://pbs.twimg.com/profile_banners/452658410/1454718249
p2456
aVhttps://pbs.twimg.com/profile_banners/714165632/1451507795
p2457
aVhttps://pbs.twimg.com/profile_banners/238905332/1451329584
p2458
aVhttps://pbs.twimg.com/profile_banners/508143131/1455071045
p2459
aVhttps://pbs.twimg.com/profile_banners/3310296769/1444941594
p2460
aVhttps://pbs.twimg.com/profile_banners/604184708/1454546754
p2461
aVhttps://pbs.twimg.com/profile_banners/599352062/1445356625
p2462
aVhttps://pbs.twimg.com/profile_banners/3243322412/1454933433
p2463
aVhttps://pbs.twimg.com/profile_banners/612056664/1453092087
p2464
aVhttps://pbs.twimg.com/profile_banners/2767384781/1454893682
p2465
aVhttps://pbs.twimg.com/profile_banners/627945349/1450687560
p2466
aVhttps://pbs.twimg.com/profile_banners/527461051/1447898853
p2467
aVhttps://pbs.twimg.com/profile_banners/57798518/1435310861
p2468
aVhttps://pbs.twimg.com/profile_banners/1124635897/1448668485
p2469
aVhttps://pbs.twimg.com/profile_banners/519076063/1454476972
p2470
aVhttps://pbs.twimg.com/profile_banners/2148453014/1455067152
p2471
aVhttps://pbs.twimg.com/profile_banners/25898178/1445916540
p2472
aVhttps://pbs.twimg.com/profile_banners/37527164/1434504417
p2473
aVhttps://pbs.twimg.com/profile_banners/510802596/1454215833
p2474
aVhttps://pbs.twimg.com/profile_banners/2896153199/1455323460
p2475
aVhttps://pbs.twimg.com/profile_banners/4121862141/1454897174
p2476
aVhttps://pbs.twimg.com/profile_banners/1308889207/1422406382
p2477
aVhttps://pbs.twimg.com/profile_banners/4562004912/1455282708
p2478
aVhttps://pbs.twimg.com/profile_banners/3871101798/1454915974
p2479
aVhttps://pbs.twimg.com/profile_banners/570801560/1454263053
p2480
aVhttps://pbs.twimg.com/profile_banners/575597695/1353141894
p2481
aVhttps://pbs.twimg.com/profile_banners/2370820485/1455229962
p2482
aVhttps://pbs.twimg.com/profile_banners/268149114/1454446009
p2483
aVhttps://pbs.twimg.com/profile_banners/144375298/1453611581
p2484
aVhttps://pbs.twimg.com/profile_banners/484317916/1454335114
p2485
aVhttps://pbs.twimg.com/profile_banners/808700058/1455360831
p2486
aVhttps://pbs.twimg.com/profile_banners/3227382814/1455239621
p2487
aVhttps://pbs.twimg.com/profile_banners/2565400531/1424140681
p2488
aVhttps://pbs.twimg.com/profile_banners/2809677852/1439876662
p2489
aVhttps://pbs.twimg.com/profile_banners/26078031/1454630904
p2490
aVhttps://pbs.twimg.com/profile_banners/2176518820/1453010881
p2491
aVhttps://pbs.twimg.com/profile_banners/467640242/1421878631
p2492
aVhttps://pbs.twimg.com/profile_banners/88624582/1452701618
p2493
aVhttps://pbs.twimg.com/profile_banners/3393077961/1451265365
p2494
aVhttps://pbs.twimg.com/profile_banners/748989494/1455249086
p2495
aVhttps://pbs.twimg.com/profile_banners/863875753/1451278680
p2496
aVhttps://pbs.twimg.com/profile_banners/340637881/1430095781
p2497
aVhttps://pbs.twimg.com/profile_banners/502987254/1448831425
p2498
aVhttps://pbs.twimg.com/profile_banners/478831207/1455044560
p2499
aVhttps://pbs.twimg.com/profile_banners/702346075/1449571989
p2500
aVhttps://pbs.twimg.com/profile_banners/186178834/1453594543
p2501
aVhttps://pbs.twimg.com/profile_banners/2763448022/1439910582
p2502
aVhttps://pbs.twimg.com/profile_banners/464212996/1389237809
p2503
aVhttps://pbs.twimg.com/profile_banners/267351932/1446780269
p2504
aVhttps://pbs.twimg.com/profile_banners/765682321/1452268327
p2505
aVhttps://pbs.twimg.com/profile_banners/996203239/1454817491
p2506
aVhttps://pbs.twimg.com/profile_banners/4673982542/1455225597
p2507
aVhttps://pbs.twimg.com/profile_banners/2498859956/1451289326
p2508
aVhttps://pbs.twimg.com/profile_banners/901505641/1454169453
p2509
aVhttps://pbs.twimg.com/profile_banners/4825648580/1453989541
p2510
aVhttps://pbs.twimg.com/profile_banners/620279016/1454687001
p2511
aVhttps://pbs.twimg.com/profile_banners/422246533/1454786247
p2512
aVhttps://pbs.twimg.com/profile_banners/955911030/1453756514
p2513
aVhttps://pbs.twimg.com/profile_banners/1642118858/1453162803
p2514
aVhttps://pbs.twimg.com/profile_banners/2660736915/1453357636
p2515
aVhttps://pbs.twimg.com/profile_banners/1571861053/1452903173
p2516
aVhttps://pbs.twimg.com/profile_banners/20582066/1386544250
p2517
aVhttps://pbs.twimg.com/profile_banners/72278519/1455336694
p2518
aVhttps://pbs.twimg.com/profile_banners/2687767649/1454806823
p2519
aVhttps://pbs.twimg.com/profile_banners/2970326816/1454798739
p2520
aVhttps://pbs.twimg.com/profile_banners/258924179/1448385783
p2521
aVhttps://pbs.twimg.com/profile_banners/2214666100/1454871456
p2522
aVhttps://pbs.twimg.com/profile_banners/1282192231/1451966103
p2523
aVhttps://pbs.twimg.com/profile_banners/854386412/1454812202
p2524
aVhttps://pbs.twimg.com/profile_banners/2497477635/1403975817
p2525
aVhttps://pbs.twimg.com/profile_banners/2429083262/1454093186
p2526
aVhttps://pbs.twimg.com/profile_banners/1613687126/1403926074
p2527
aVhttps://pbs.twimg.com/profile_banners/1377100740/1454729992
p2528
aVhttps://pbs.twimg.com/profile_banners/2855893030/1453937053
p2529
aVhttps://pbs.twimg.com/profile_banners/4891710481/1455176306
p2530
aVhttps://pbs.twimg.com/profile_banners/1067054245/1452955388
p2531
aVhttps://pbs.twimg.com/profile_banners/344118859/1453047416
p2532
aVhttps://pbs.twimg.com/profile_banners/2197054538/1455181334
p2533
aVhttps://pbs.twimg.com/profile_banners/2164002263/1455277885
p2534
aVhttps://pbs.twimg.com/profile_banners/1606223677/1454446892
p2535
aVhttps://pbs.twimg.com/profile_banners/278876710/1443221754
p2536
aVhttps://pbs.twimg.com/profile_banners/1485926820/1453864690
p2537
aVhttps://pbs.twimg.com/profile_banners/798651380/1453141983
p2538
aVhttps://pbs.twimg.com/profile_banners/2292764567/1452971807
p2539
aVhttps://pbs.twimg.com/profile_banners/3140593964/1454476895
p2540
aVhttps://pbs.twimg.com/profile_banners/499562729/1448475802
p2541
aVhttps://pbs.twimg.com/profile_banners/2747287142/1451391765
p2542
aVhttps://pbs.twimg.com/profile_banners/2529935091/1455138692
p2543
aVhttps://pbs.twimg.com/profile_banners/2843342636/1452436145
p2544
aVhttps://pbs.twimg.com/profile_banners/410213911/1451187605
p2545
aVhttps://pbs.twimg.com/profile_banners/2447204323/1452573491
p2546
aVhttps://pbs.twimg.com/profile_banners/2821828675/1453253962
p2547
aVhttps://pbs.twimg.com/profile_banners/145725939/1403182822
p2548
aVhttps://pbs.twimg.com/profile_banners/3181415978/1453886835
p2549
aVhttps://pbs.twimg.com/profile_banners/534993395/1455343050
p2550
aVhttps://pbs.twimg.com/profile_banners/566396443/1442273796
p2551
aVhttps://pbs.twimg.com/profile_banners/18942418/1454340913
p2552
aVhttps://pbs.twimg.com/profile_banners/103464310/1453766644
p2553
aVhttps://pbs.twimg.com/profile_banners/172223894/1452115676
p2554
aVhttps://pbs.twimg.com/profile_banners/1693572392/1454908671
p2555
aVhttps://pbs.twimg.com/profile_banners/1441742132/1454800544
p2556
aVhttps://pbs.twimg.com/profile_banners/1170452772/1453662151
p2557
aVhttps://pbs.twimg.com/profile_banners/44903241/1446940654
p2558
aVhttps://pbs.twimg.com/profile_banners/2395558278/1454729061
p2559
aVhttps://pbs.twimg.com/profile_banners/131311115/1446474750
p2560
aVhttps://pbs.twimg.com/profile_banners/382492239/1396471021
p2561
aVhttps://pbs.twimg.com/profile_banners/2840323999/1455216606
p2562
aVhttps://pbs.twimg.com/profile_banners/1017864121/1454648301
p2563
aVhttps://pbs.twimg.com/profile_banners/505540778/1454899589
p2564
aVhttps://pbs.twimg.com/profile_banners/745856660/1414181782
p2565
aVhttps://pbs.twimg.com/profile_banners/3089323758/1454699416
p2566
aVhttps://pbs.twimg.com/profile_banners/2955137556/1454263319
p2567
aVhttps://pbs.twimg.com/profile_banners/3292007803/1455259013
p2568
aVhttps://pbs.twimg.com/profile_banners/3399616094/1454518707
p2569
aVhttps://pbs.twimg.com/profile_banners/307221947/1348029715
p2570
aVhttps://pbs.twimg.com/profile_banners/2851599254/1455378885
p2571
aVhttps://pbs.twimg.com/profile_banners/788830760/1449489301
p2572
aVhttps://pbs.twimg.com/profile_banners/532704786/1447920512
p2573
aVhttps://pbs.twimg.com/profile_banners/3026356604/1454867624
p2574
aVhttps://pbs.twimg.com/profile_banners/2931476338/1418962027
p2575
aVhttps://pbs.twimg.com/profile_banners/463439266/1452734823
p2576
aVhttps://pbs.twimg.com/profile_banners/136188703/1442341133
p2577
aVhttps://pbs.twimg.com/profile_banners/1851319304/1452912883
p2578
aVhttps://pbs.twimg.com/profile_banners/264892364/1455278220
p2579
aVhttps://pbs.twimg.com/profile_banners/403726885/1455069948
p2580
aVhttps://pbs.twimg.com/profile_banners/3379563791/1451197371
p2581
aVhttps://pbs.twimg.com/profile_banners/852238153/1451684772
p2582
aVhttps://pbs.twimg.com/profile_banners/363331808/1453405902
p2583
aVhttps://pbs.twimg.com/profile_banners/2261984744/1455380015
p2584
aVhttps://pbs.twimg.com/profile_banners/2283476011/1452179031
p2585
aVhttps://pbs.twimg.com/profile_banners/637099329/1436203269
p2586
aVhttps://pbs.twimg.com/profile_banners/625235682/1454558704
p2587
aVhttps://pbs.twimg.com/profile_banners/311167488/1454199914
p2588
aVhttps://pbs.twimg.com/profile_banners/603744003/1434179749
p2589
aVhttps://pbs.twimg.com/profile_banners/285031812/1445232314
p2590
aVhttps://pbs.twimg.com/profile_banners/805546939/1446265397
p2591
aVhttps://pbs.twimg.com/profile_banners/783062996/1454349481
p2592
aVhttps://pbs.twimg.com/profile_banners/3425815930/1451234559
p2593
aVhttps://pbs.twimg.com/profile_banners/2483168186/1454172838
p2594
aVhttps://pbs.twimg.com/profile_banners/163615713/1452387156
p2595
aVhttps://pbs.twimg.com/profile_banners/265379020/1448478648
p2596
aVhttps://pbs.twimg.com/profile_banners/751906926/1455230085
p2597
aVhttps://pbs.twimg.com/profile_banners/604773828/1454794052
p2598
aVhttps://pbs.twimg.com/profile_banners/548678557/1454019837
p2599
aVhttps://pbs.twimg.com/profile_banners/1049427344/1356926492
p2600
aVhttps://pbs.twimg.com/profile_banners/2358825699/1453472100
p2601
aVhttps://pbs.twimg.com/profile_banners/601464142/1454939012
p2602
aVhttps://pbs.twimg.com/profile_banners/235597910/1454967176
p2603
aVhttps://pbs.twimg.com/profile_banners/381501311/1451848071
p2604
aVhttps://pbs.twimg.com/profile_banners/1539563706/1455332197
p2605
aVhttps://pbs.twimg.com/profile_banners/630678664/1388236715
p2606
aVhttps://pbs.twimg.com/profile_banners/1239663584/1454029400
p2607
aVhttps://pbs.twimg.com/profile_banners/2334526277/1444600045
p2608
aVhttps://pbs.twimg.com/profile_banners/4742450834/1454485551
p2609
aVhttps://pbs.twimg.com/profile_banners/447668948/1453606606
p2610
aVhttps://pbs.twimg.com/profile_banners/1003387813/1453172790
p2611
aVhttps://pbs.twimg.com/profile_banners/1969792771/1416214615
p2612
aVhttps://pbs.twimg.com/profile_banners/2397127930/1455279564
p2613
aVhttps://pbs.twimg.com/profile_banners/2991904930/1445204105
p2614
aVhttps://pbs.twimg.com/profile_banners/21557984/1374360012
p2615
aVhttps://pbs.twimg.com/profile_banners/3653346495/1455328297
p2616
aVhttps://pbs.twimg.com/profile_banners/28504550/1386350462
p2617
aVhttps://pbs.twimg.com/profile_banners/2277426199/1453901884
p2618
aVhttps://pbs.twimg.com/profile_banners/3982670654/1451937606
p2619
aVhttps://pbs.twimg.com/profile_banners/4714508847/1454102701
p2620
aVhttps://pbs.twimg.com/profile_banners/594461105/1454073613
p2621
aVhttps://pbs.twimg.com/profile_banners/1398560461/1367934701
p2622
aVhttps://pbs.twimg.com/profile_banners/1513394772/1449311261
p2623
aVhttps://pbs.twimg.com/profile_banners/1134190861/1449019277
p2624
aVhttps://pbs.twimg.com/profile_banners/569509832/1357769492
p2625
aVhttps://pbs.twimg.com/profile_banners/3998495479/1455345856
p2626
aVhttps://pbs.twimg.com/profile_banners/4004144534/1455290668
p2627
aVhttps://pbs.twimg.com/profile_banners/2912114215/1446839305
p2628
aVhttps://pbs.twimg.com/profile_banners/2569759787/1455317164
p2629
aVhttps://pbs.twimg.com/profile_banners/2149701165/1454729879
p2630
aVhttps://pbs.twimg.com/profile_banners/4289617097/1448655076
p2631
aVhttps://pbs.twimg.com/profile_banners/365476807/1445447037
p2632
aVhttps://pbs.twimg.com/profile_banners/928653265/1450360624
p2633
aVhttps://pbs.twimg.com/profile_banners/3004085763/1454359958
p2634
aVhttps://pbs.twimg.com/profile_banners/3986760383/1448153456
p2635
aVhttps://pbs.twimg.com/profile_banners/1281663968/1454604663
p2636
aVhttps://pbs.twimg.com/profile_banners/3272030270/1452049902
p2637
aVhttps://pbs.twimg.com/profile_banners/1592872206/1453533879
p2638
aVhttps://pbs.twimg.com/profile_banners/2875634691/1446698087
p2639
aVhttps://pbs.twimg.com/profile_banners/527499180/1452561101
p2640
aVhttps://pbs.twimg.com/profile_banners/1576283166/1455058237
p2641
aVhttps://pbs.twimg.com/profile_banners/845765198/1454878706
p2642
aVhttps://pbs.twimg.com/profile_banners/2751275447/1451370469
p2643
aVhttps://pbs.twimg.com/profile_banners/739628701/1447910410
p2644
aVhttps://pbs.twimg.com/profile_banners/4478922373/1449439426
p2645
aVhttps://pbs.twimg.com/profile_banners/3276179144/1446408379
p2646
aVhttps://pbs.twimg.com/profile_banners/2994907919/1453402473
p2647
aVhttps://pbs.twimg.com/profile_banners/4721535316/1452393657
p2648
aVhttps://pbs.twimg.com/profile_banners/2732035905/1454221438
p2649
aVhttps://pbs.twimg.com/profile_banners/1654551954/1450810548
p2650
aVhttps://pbs.twimg.com/profile_banners/3192601735/1453528576
p2651
aVhttps://pbs.twimg.com/profile_banners/325063924/1400898507
p2652
aVhttps://pbs.twimg.com/profile_banners/157297690/1436602259
p2653
aVhttps://pbs.twimg.com/profile_banners/95442863/1447416922
p2654
aVhttps://pbs.twimg.com/profile_banners/3394854253/1455238706
p2655
aVhttps://pbs.twimg.com/profile_banners/785829386/1402021187
p2656
aVhttps://pbs.twimg.com/profile_banners/59887931/1447826591
p2657
aVhttps://pbs.twimg.com/profile_banners/2396791478/1452902209
p2658
aVhttps://pbs.twimg.com/profile_banners/402047065/1393430102
p2659
aVhttps://pbs.twimg.com/profile_banners/716641426/1454856527
p2660
aVhttps://pbs.twimg.com/profile_banners/3325782642/1442039072
p2661
aVhttps://pbs.twimg.com/profile_banners/2387925494/1454771412
p2662
aVhttps://pbs.twimg.com/profile_banners/156626220/1414943335
p2663
aVhttps://pbs.twimg.com/profile_banners/21477619/1360088902
p2664
aVhttps://pbs.twimg.com/profile_banners/390816340/1372639107
p2665
aVhttps://pbs.twimg.com/profile_banners/3701950212/1453449685
p2666
aVhttps://pbs.twimg.com/profile_banners/4840972089/1453616925
p2667
aVhttps://pbs.twimg.com/profile_banners/21129931/1448494179
p2668
aVhttps://pbs.twimg.com/profile_banners/3231386099/1455309658
p2669
aVhttps://pbs.twimg.com/profile_banners/615951215/1362040205
p2670
aVhttps://pbs.twimg.com/profile_banners/2949516845/1453592003
p2671
aVhttps://pbs.twimg.com/profile_banners/2885154865/1451922282
p2672
aVhttps://pbs.twimg.com/profile_banners/3366976701/1448257937
p2673
aVhttps://pbs.twimg.com/profile_banners/3411764985/1439178177
p2674
aVhttps://pbs.twimg.com/profile_banners/2858806364/1454079908
p2675
aVhttps://pbs.twimg.com/profile_banners/3031499715/1455252296
p2676
aVhttps://pbs.twimg.com/profile_banners/2367939786/1452859231
p2677
aVhttps://pbs.twimg.com/profile_banners/4720048693/1454655121
p2678
aVhttps://pbs.twimg.com/profile_banners/4449144504/1449206693
p2679
aVhttps://pbs.twimg.com/profile_banners/2296698534/1445200160
p2680
aVhttps://pbs.twimg.com/profile_banners/2908396832/1448215097
p2681
aVhttps://pbs.twimg.com/profile_banners/480809557/1452841685
p2682
aVhttps://pbs.twimg.com/profile_banners/3373226914/1454770119
p2683
aVhttps://pbs.twimg.com/profile_banners/3177752533/1454413881
p2684
aVhttps://pbs.twimg.com/profile_banners/2924322143/1454383796
p2685
aVhttps://pbs.twimg.com/profile_banners/19746087/1433035904
p2686
aVhttps://pbs.twimg.com/profile_banners/1403380652/1454565037
p2687
aVhttps://pbs.twimg.com/profile_banners/3289264086/1454868670
p2688
aVhttps://pbs.twimg.com/profile_banners/2969050394/1455200415
p2689
aVhttps://pbs.twimg.com/profile_banners/36654433/1452868107
p2690
aVhttps://pbs.twimg.com/profile_banners/970104805/1454853667
p2691
aVhttps://pbs.twimg.com/profile_banners/117544968/1361244717
p2692
aVhttps://pbs.twimg.com/profile_banners/4263942975/1449349152
p2693
aVhttps://pbs.twimg.com/profile_banners/396551230/1451618696
p2694
aVhttps://pbs.twimg.com/profile_banners/4451631194/1455093156
p2695
aVhttps://pbs.twimg.com/profile_banners/2773418450/1454321172
p2696
aVhttps://pbs.twimg.com/profile_banners/1210160162/1453501118
p2697
aVhttps://pbs.twimg.com/profile_banners/2156181021/1454959349
p2698
aVhttps://pbs.twimg.com/profile_banners/4497625581/1453707060
p2699
aVhttps://pbs.twimg.com/profile_banners/2213194797/1453312673
p2700
aVhttps://pbs.twimg.com/profile_banners/757989900/1429914890
p2701
aVhttps://pbs.twimg.com/profile_banners/3166678470/1436652068
p2702
aVhttps://pbs.twimg.com/profile_banners/4473484529/1452535388
p2703
aVhttps://pbs.twimg.com/profile_banners/4616978743/1451171117
p2704
aVhttps://pbs.twimg.com/profile_banners/2902937340/1448959557
p2705
aVhttps://pbs.twimg.com/profile_banners/4737549440/1454262983
p2706
aVhttps://pbs.twimg.com/profile_banners/613658871/1446713227
p2707
aVhttps://pbs.twimg.com/profile_banners/4846210522/1455236329
p2708
aVhttps://pbs.twimg.com/profile_banners/2400520719/1451770795
p2709
aVhttps://pbs.twimg.com/profile_banners/730371457/1428089351
p2710
aVhttps://pbs.twimg.com/profile_banners/3218496374/1452919517
p2711
aVhttps://pbs.twimg.com/profile_banners/818491165/1392471041
p2712
aVhttps://pbs.twimg.com/profile_banners/3113707649/1451137690
p2713
aVhttps://pbs.twimg.com/profile_banners/2524342804/1442793929
p2714
aVhttps://pbs.twimg.com/profile_banners/59951643/1447879415
p2715
aVhttps://pbs.twimg.com/profile_banners/3293251056/1453974188
p2716
aVhttps://pbs.twimg.com/profile_banners/4374560734/1454009063
p2717
aVhttps://pbs.twimg.com/profile_banners/1541989310/1391390247
p2718
aVhttps://pbs.twimg.com/profile_banners/2416419987/1453156170
p2719
aVhttps://pbs.twimg.com/profile_banners/2355450715/1427202002
p2720
aVhttps://pbs.twimg.com/profile_banners/4901998642/1455298849
p2721
aVhttps://pbs.twimg.com/profile_banners/3038842970/1454963126
p2722
aVhttps://pbs.twimg.com/profile_banners/406216921/1453754036
p2723
aVhttps://pbs.twimg.com/profile_banners/19114714/1389968100
p2724
aVhttps://pbs.twimg.com/profile_banners/151818520/1426162087
p2725
aVhttps://pbs.twimg.com/profile_banners/1176274604/1439358794
p2726
aVhttps://pbs.twimg.com/profile_banners/2724849649/1454880205
p2727
aVhttps://pbs.twimg.com/profile_banners/714862599/1452639528
p2728
aVhttps://pbs.twimg.com/profile_banners/2650924592/1439638192
p2729
aVhttps://pbs.twimg.com/profile_banners/2471361553/1435681872
p2730
aVhttps://pbs.twimg.com/profile_banners/4733989097/1454682813
p2731
aVhttps://pbs.twimg.com/profile_banners/1201134925/1453513162
p2732
aVhttps://pbs.twimg.com/profile_banners/158227509/1379818155
p2733
aVhttps://pbs.twimg.com/profile_banners/4490084128/1450167952
p2734
aVhttps://pbs.twimg.com/profile_banners/3370142086/1455335477
p2735
aVhttps://pbs.twimg.com/profile_banners/1688938244/1426476999
p2736
aVhttps://pbs.twimg.com/profile_banners/3344227918/1454588065
p2737
aVhttps://pbs.twimg.com/profile_banners/1049523540/1447859579
p2738
aVhttps://pbs.twimg.com/profile_banners/3299962987/1454698215
p2739
aVhttps://pbs.twimg.com/profile_banners/809871876/1375688581
p2740
aVhttps://pbs.twimg.com/profile_banners/1975513916/1417661970
p2741
aVhttps://pbs.twimg.com/profile_banners/3218865282/1449775258
p2742
aVhttps://pbs.twimg.com/profile_banners/4540143147/1455342171
p2743
aVhttps://pbs.twimg.com/profile_banners/3196002896/1451483588
p2744
aVhttps://pbs.twimg.com/profile_banners/2314286542/1419860870
p2745
aVhttps://pbs.twimg.com/profile_banners/4787312108/1454689602
p2746
aVhttps://pbs.twimg.com/profile_banners/1973903616/1417672038
p2747
aVhttps://pbs.twimg.com/profile_banners/4768100737/1452953415
p2748
aVhttps://pbs.twimg.com/profile_banners/4712998400/1451989032
p2749
aVhttps://pbs.twimg.com/profile_banners/363130222/1383398176
p2750
aVhttps://pbs.twimg.com/profile_banners/2767536358/1451677894
p2751
aVhttps://pbs.twimg.com/profile_banners/2961223540/1453952295
p2752
aVhttps://pbs.twimg.com/profile_banners/3866344096/1444004581
p2753
aVhttps://pbs.twimg.com/profile_banners/2163232254/1446338703
p2754
aVhttps://pbs.twimg.com/profile_banners/1032295400/1445347037
p2755
aVhttps://pbs.twimg.com/profile_banners/413818512/1452859323
p2756
aVhttps://pbs.twimg.com/profile_banners/2267339982/1426343695
p2757
aVhttps://pbs.twimg.com/profile_banners/433320862/1399967157
p2758
aVhttps://pbs.twimg.com/profile_banners/4159383393/1454718742
p2759
aVhttps://pbs.twimg.com/profile_banners/1469505252/1437648134
p2760
aVhttps://pbs.twimg.com/profile_banners/4352435294/1455259129
p2761
aVhttps://pbs.twimg.com/profile_banners/3236754676/1455061916
p2762
aVhttps://pbs.twimg.com/profile_banners/1635979987/1414385965
p2763
aVhttps://pbs.twimg.com/profile_banners/3381213455/1437617196
p2764
aVhttps://pbs.twimg.com/profile_banners/1438793983/1455015608
p2765
aVhttps://pbs.twimg.com/profile_banners/52665844/1450014318
p2766
aVhttps://pbs.twimg.com/profile_banners/4384880240/1454733854
p2767
aVhttps://pbs.twimg.com/profile_banners/2934729916/1420725378
p2768
aVhttps://pbs.twimg.com/profile_banners/2572836485/1448310226
p2769
aVhttps://pbs.twimg.com/profile_banners/3140693162/1432261536
p2770
aVhttps://pbs.twimg.com/profile_banners/2837359399/1455190159
p2771
aVhttps://pbs.twimg.com/profile_banners/2430201888/1439995184
p2772
aVhttps://pbs.twimg.com/profile_banners/1629043885/1451930826
p2773
aVhttps://pbs.twimg.com/profile_banners/349193327/1384951421
p2774
aVhttps://pbs.twimg.com/profile_banners/4884015389/1455225804
p2775
aVhttps://pbs.twimg.com/profile_banners/2908770245/1444014558
p2776
aVhttps://pbs.twimg.com/profile_banners/156002883/1437945294
p2777
aVhttps://pbs.twimg.com/profile_banners/487087587/1454676219
p2778
aVhttps://pbs.twimg.com/profile_banners/2951644168/1454631724
p2779
aVhttps://pbs.twimg.com/profile_banners/2296327298/1404837991
p2780
aVhttps://pbs.twimg.com/profile_banners/4498896263/1454875421
p2781
aVhttps://pbs.twimg.com/profile_banners/180506209/1453176353
p2782
aVhttps://pbs.twimg.com/profile_banners/3308736294/1440379221
p2783
aVhttps://pbs.twimg.com/profile_banners/461095135/1454873339
p2784
aVhttps://pbs.twimg.com/profile_banners/3496683972/1450962149
p2785
aVhttps://pbs.twimg.com/profile_banners/4865511636/1454696948
p2786
aVhttps://pbs.twimg.com/profile_banners/4902426794/1455376754
p2787
aVhttps://pbs.twimg.com/profile_banners/2550231638/1441596551
p2788
aVhttps://pbs.twimg.com/profile_banners/4888509389/1454958761
p2789
aVhttps://pbs.twimg.com/profile_banners/2901860911/1416164802
p2790
aVhttps://pbs.twimg.com/profile_banners/3744460037/1453485914
p2791
aVhttps://pbs.twimg.com/profile_banners/695820245215420416/1454781173
p2792
aVhttps://pbs.twimg.com/profile_banners/3140201148/1431871261
p2793
aVhttps://pbs.twimg.com/profile_banners/2938930110/1455379112
p2794
aVhttps://pbs.twimg.com/profile_banners/3695546123/1454602842
p2795
aVhttps://pbs.twimg.com/profile_banners/3904027539/1453345353
p2796
aVhttps://pbs.twimg.com/profile_banners/971984011/1452697688
p2797
aVhttps://pbs.twimg.com/profile_banners/4361947702/1455362534
p2798
aVhttps://pbs.twimg.com/profile_banners/2577306588/1444037569
p2799
aVhttps://pbs.twimg.com/profile_banners/2572688630/1439256022
p2800
aVhttps://pbs.twimg.com/profile_banners/4670047514/1454739842
p2801
aVhttps://pbs.twimg.com/profile_banners/118562628/1449029627
p2802
aVhttps://pbs.twimg.com/profile_banners/188387832/1349356739
p2803
aVhttps://pbs.twimg.com/profile_banners/26932916/1450041642
p2804
aVhttps://pbs.twimg.com/profile_banners/4324937536/1455196087
p2805
aVhttps://pbs.twimg.com/profile_banners/3430923725/1449100571
p2806
aVhttps://pbs.twimg.com/profile_banners/3413972133/1450808949
p2807
aVhttps://pbs.twimg.com/profile_banners/4891170923/1455003564
p2808
aVhttps://pbs.twimg.com/profile_banners/2713885547/1405660941
p2809
aVhttps://pbs.twimg.com/profile_banners/33313749/1454526738
p2810
aVhttps://pbs.twimg.com/profile_banners/4107253996/1446585306
p2811
aVhttps://pbs.twimg.com/profile_banners/2627223434/1414719479
p2812
aVhttps://pbs.twimg.com/profile_banners/486240843/1449929336
p2813
aVhttps://pbs.twimg.com/profile_banners/2902394824/1452043198
p2814
aVhttps://pbs.twimg.com/profile_banners/2759936782/1453444888
p2815
aVhttps://pbs.twimg.com/profile_banners/2628039276/1431684033
p2816
aVhttps://pbs.twimg.com/profile_banners/1049227932/1356922509
p2817
aVhttps://pbs.twimg.com/profile_banners/2848241137/1428147412
p2818
aVhttps://pbs.twimg.com/profile_banners/2207512674/1453333033
p2819
aVhttps://pbs.twimg.com/profile_banners/170642381/1444836938
p2820
aVhttps://pbs.twimg.com/profile_banners/2453043862/1434569976
p2821
aVhttps://pbs.twimg.com/profile_banners/330611545/1446712871
p2822
aVhttps://pbs.twimg.com/profile_banners/2976822286/1421808447
p2823
aVhttps://pbs.twimg.com/profile_banners/2993910562/1428669188
p2824
aVhttps://pbs.twimg.com/profile_banners/3149022841/1430959899
p2825
aVhttps://pbs.twimg.com/profile_banners/594572314/1455231253
p2826
aVhttps://pbs.twimg.com/profile_banners/4867223038/1455249962
p2827
aVhttps://pbs.twimg.com/profile_banners/2639051167/1405343809
p2828
aVhttps://pbs.twimg.com/profile_banners/204332206/1448502559
p2829
aVhttps://pbs.twimg.com/profile_banners/595569676/1432113190
p2830
aVhttps://pbs.twimg.com/profile_banners/1443113424/1453110794
p2831
aVhttps://pbs.twimg.com/profile_banners/3434065454/1452950412
p2832
aVhttps://pbs.twimg.com/profile_banners/779468161/1446409557
p2833
aVhttps://pbs.twimg.com/profile_banners/4417162893/1450708592
p2834
aVhttps://pbs.twimg.com/profile_banners/3306767435/1445072635
p2835
aVhttps://pbs.twimg.com/profile_banners/3884671695/1445824168
p2836
aVhttps://pbs.twimg.com/profile_banners/2800942767/1447972221
p2837
aVhttps://pbs.twimg.com/profile_banners/4732176871/1453724083
p2838
aVhttps://pbs.twimg.com/profile_banners/80611714/1414933398
p2839
aVhttps://pbs.twimg.com/profile_banners/167594163/1451354932
p2840
a.