(lp0
Vhttps://pbs.twimg.com/profile_banners/3300999478/1453049872
p1
aVhttps://pbs.twimg.com/profile_banners/795653108/1449062379
p2
aVhttps://pbs.twimg.com/profile_banners/1322206404/1431322755
p3
aVhttps://pbs.twimg.com/profile_banners/2273529989/1455377984
p4
aVhttps://pbs.twimg.com/profile_banners/4572511114/1455290273
p5
aVhttps://pbs.twimg.com/profile_banners/3323255759/1454728344
p6
aVhttps://pbs.twimg.com/profile_banners/1016746238/1401341064
p7
aVhttps://pbs.twimg.com/profile_banners/2934731867/1420920002
p8
aVhttps://pbs.twimg.com/profile_banners/2651977011/1455378054
p9
aVhttps://pbs.twimg.com/profile_banners/2928232988/1430122901
p10
aVhttps://pbs.twimg.com/profile_banners/919797284/1430252038
p11
aVhttps://pbs.twimg.com/profile_banners/2806644423/1431478713
p12
aVhttps://pbs.twimg.com/profile_banners/2786896658/1440649953
p13
aVhttps://pbs.twimg.com/profile_banners/2644597930/1445373066
p14
aVhttps://pbs.twimg.com/profile_banners/2934740033/1419299130
p15
aVhttps://pbs.twimg.com/profile_banners/2781698334/1431790705
p16
aVhttps://pbs.twimg.com/profile_banners/202994349/1453969958
p17
aVhttps://pbs.twimg.com/profile_banners/2848241137/1428147412
p18
aVhttps://pbs.twimg.com/profile_banners/2763989263/1431302140
p19
aVhttps://pbs.twimg.com/profile_banners/152862070/1454579968
p20
aVhttps://pbs.twimg.com/profile_banners/2999178929/1455245741
p21
aVhttps://pbs.twimg.com/profile_banners/2931392052/1453969392
p22
aVhttps://pbs.twimg.com/profile_banners/1945108579/1438815135
p23
aVhttps://pbs.twimg.com/profile_banners/363793813/1453534410
p24
aVhttps://pbs.twimg.com/profile_banners/4848450262/1455297422
p25
aVhttps://pbs.twimg.com/profile_banners/719699202/1455151658
p26
aVhttps://pbs.twimg.com/profile_banners/423676991/1454803071
p27
aVhttps://pbs.twimg.com/profile_banners/277219496/1404684933
p28
aVhttps://pbs.twimg.com/profile_banners/2634080796/1455225774
p29
aVhttps://pbs.twimg.com/profile_banners/736302738/1455333723
p30
aVhttps://pbs.twimg.com/profile_banners/2467369807/1455363594
p31
aVhttps://pbs.twimg.com/profile_banners/3061340052/1434907078
p32
aVhttps://pbs.twimg.com/profile_banners/3300660910/1455309587
p33
aVhttps://pbs.twimg.com/profile_banners/1279864916/1450880531
p34
aVhttps://pbs.twimg.com/profile_banners/4492866016/1450190661
p35
aVhttps://pbs.twimg.com/profile_banners/3369758465/1436561645
p36
aVhttps://pbs.twimg.com/profile_banners/1710940818/1452892090
p37
aVhttps://pbs.twimg.com/profile_banners/1170039967/1455301839
p38
aVhttps://pbs.twimg.com/profile_banners/3344785780/1453673346
p39
aVhttps://pbs.twimg.com/profile_banners/79326286/1414394395
p40
aVhttps://pbs.twimg.com/profile_banners/147420007/1454616579
p41
aVhttps://pbs.twimg.com/profile_banners/3326257783/1440325675
p42
aVhttps://pbs.twimg.com/profile_banners/544320239/1454352926
p43
aVhttps://pbs.twimg.com/profile_banners/43640296/1355727400
p44
aVhttps://pbs.twimg.com/profile_banners/628926878/1454706417
p45
aVhttps://pbs.twimg.com/profile_banners/116808358/1452644834
p46
aVhttps://pbs.twimg.com/profile_banners/50361069/1455199580
p47
aVhttps://pbs.twimg.com/profile_banners/121629619/1455117765
p48
aVhttps://pbs.twimg.com/profile_banners/2481128468/1455157742
p49
aVhttps://pbs.twimg.com/profile_banners/799804208/1455085340
p50
aVhttps://pbs.twimg.com/profile_banners/68685433/1452621817
p51
aVhttps://pbs.twimg.com/profile_banners/480048718/1455380578
p52
aVhttps://pbs.twimg.com/profile_banners/2962185912/1454517658
p53
aVhttps://pbs.twimg.com/profile_banners/304147786/1453943716
p54
aVhttps://pbs.twimg.com/profile_banners/1089188539/1440329372
p55
aVhttps://pbs.twimg.com/profile_banners/1404108096/1455379340
p56
aVhttps://pbs.twimg.com/profile_banners/2582697290/1455316252
p57
aVhttps://pbs.twimg.com/profile_banners/4570825120/1455372354
p58
aVhttps://pbs.twimg.com/profile_banners/1102335572/1452550976
p59
aVhttps://pbs.twimg.com/profile_banners/3259765374/1455366692
p60
aVhttps://pbs.twimg.com/profile_banners/3232811053/1453572299
p61
aVhttps://pbs.twimg.com/profile_banners/517850667/1440866129
p62
aVhttps://pbs.twimg.com/profile_banners/292753244/1455265351
p63
aVhttps://pbs.twimg.com/profile_banners/135864208/1413308099
p64
aVhttps://pbs.twimg.com/profile_banners/4858681278/1455106426
p65
aVhttps://pbs.twimg.com/profile_banners/448024840/1455067062
p66
aVhttps://pbs.twimg.com/profile_banners/41785359/1421160086
p67
aVhttps://pbs.twimg.com/profile_banners/3281278375/1454492941
p68
aVhttps://pbs.twimg.com/profile_banners/2480827290/1449712644
p69
aVhttps://pbs.twimg.com/profile_banners/468717053/1424762433
p70
aVhttps://pbs.twimg.com/profile_banners/1654078724/1455252284
p71
aVhttps://pbs.twimg.com/profile_banners/3430464789/1455287613
p72
aVhttps://pbs.twimg.com/profile_banners/233778544/1444137033
p73
aVhttps://pbs.twimg.com/profile_banners/478984012/1451703155
p74
aVhttps://pbs.twimg.com/profile_banners/3395783417/1438275618
p75
aVhttps://pbs.twimg.com/profile_banners/515228427/1436722578
p76
aVhttps://pbs.twimg.com/profile_banners/360321873/1442694491
p77
aVhttps://pbs.twimg.com/profile_banners/1541022918/1455376129
p78
aVhttps://pbs.twimg.com/profile_banners/141606355/1419172221
p79
aVhttps://pbs.twimg.com/profile_banners/605644715/1453912313
p80
aVhttps://pbs.twimg.com/profile_banners/3247034704/1454797961
p81
aVhttps://pbs.twimg.com/profile_banners/2200600274/1455074081
p82
aVhttps://pbs.twimg.com/profile_banners/535074518/1455025488
p83
aVhttps://pbs.twimg.com/profile_banners/4617645918/1454933235
p84
aVhttps://pbs.twimg.com/profile_banners/1140808346/1453037737
p85
aVhttps://pbs.twimg.com/profile_banners/3449092462/1440622620
p86
aVhttps://pbs.twimg.com/profile_banners/336140787/1454460434
p87
aVhttps://pbs.twimg.com/profile_banners/2937780359/1419298976
p88
aVhttps://pbs.twimg.com/profile_banners/2581411018/1454851390
p89
aVhttps://pbs.twimg.com/profile_banners/2801863783/1410359789
p90
aVhttps://pbs.twimg.com/profile_banners/15616142/1385910419
p91
aVhttps://pbs.twimg.com/profile_banners/66601717/1415862569
p92
aVhttps://pbs.twimg.com/profile_banners/4839502635/1454133701
p93
aVhttps://pbs.twimg.com/profile_banners/2640595601/1455192324
p94
aVhttps://pbs.twimg.com/profile_banners/2225135490/1450527724
p95
aVhttps://pbs.twimg.com/profile_banners/4835914710/1455300177
p96
aVhttps://pbs.twimg.com/profile_banners/4082077339/1454816730
p97
aVhttps://pbs.twimg.com/profile_banners/486569941/1451452570
p98
aVhttps://pbs.twimg.com/profile_banners/43456595/1454423411
p99
aVhttps://pbs.twimg.com/profile_banners/2349431510/1424620935
p100
aVhttps://pbs.twimg.com/profile_banners/1915870633/1442881058
p101
aVhttps://pbs.twimg.com/profile_banners/2484645474/1455147625
p102
aVhttps://pbs.twimg.com/profile_banners/3567159321/1455316236
p103
aVhttps://pbs.twimg.com/profile_banners/4087180034/1454387015
p104
aVhttps://pbs.twimg.com/profile_banners/28228687/1451674432
p105
aVhttps://pbs.twimg.com/profile_banners/117087700/1420530732
p106
aVhttps://pbs.twimg.com/profile_banners/1028650543/1453043907
p107
aVhttps://pbs.twimg.com/profile_banners/288975816/1454246378
p108
aVhttps://pbs.twimg.com/profile_banners/133669729/1445374013
p109
aVhttps://pbs.twimg.com/profile_banners/51204751/1454020347
p110
aVhttps://pbs.twimg.com/profile_banners/3122602857/1449371348
p111
aVhttps://pbs.twimg.com/profile_banners/2284956685/1454661742
p112
aVhttps://pbs.twimg.com/profile_banners/124248049/1454928374
p113
aVhttps://pbs.twimg.com/profile_banners/45357016/1450555096
p114
aVhttps://pbs.twimg.com/profile_banners/1475553187/1454777024
p115
aVhttps://pbs.twimg.com/profile_banners/4580352868/1455238643
p116
aVhttps://pbs.twimg.com/profile_banners/2250926014/1455330193
p117
aVhttps://pbs.twimg.com/profile_banners/983600874/1454877320
p118
aVhttps://pbs.twimg.com/profile_banners/401525207/1431628681
p119
aVhttps://pbs.twimg.com/profile_banners/31592620/1420899084
p120
aVhttps://pbs.twimg.com/profile_banners/180197186/1454564969
p121
aVhttps://pbs.twimg.com/profile_banners/386228883/1451791207
p122
aVhttps://pbs.twimg.com/profile_banners/2842546089/1454073269
p123
aVhttps://pbs.twimg.com/profile_banners/2945904393/1454893546
p124
aVhttps://pbs.twimg.com/profile_banners/282005646/1454779073
p125
aVhttps://pbs.twimg.com/profile_banners/3315567270/1452356032
p126
aVhttps://pbs.twimg.com/profile_banners/4025273482/1451132203
p127
aVhttps://pbs.twimg.com/profile_banners/3255668479/1455112248
p128
aVhttps://pbs.twimg.com/profile_banners/2792425646/1409969540
p129
aVhttps://pbs.twimg.com/profile_banners/241338472/1448719799
p130
aVhttps://pbs.twimg.com/profile_banners/2232127256/1455377776
p131
aVhttps://pbs.twimg.com/profile_banners/71794738/1402487225
p132
aVhttps://pbs.twimg.com/profile_banners/4897676285/1455194955
p133
aVhttps://pbs.twimg.com/profile_banners/372171379/1455177944
p134
aVhttps://pbs.twimg.com/profile_banners/17833758/1370866524
p135
aVhttps://pbs.twimg.com/profile_banners/262289564/1454168991
p136
aVhttps://pbs.twimg.com/profile_banners/1178407788/1455258348
p137
aVhttps://pbs.twimg.com/profile_banners/4550105749/1454215000
p138
aVhttps://pbs.twimg.com/profile_banners/2953827523/1454973840
p139
aVhttps://pbs.twimg.com/profile_banners/384561098/1406388065
p140
aVhttps://pbs.twimg.com/profile_banners/2445041203/1454831054
p141
aVhttps://pbs.twimg.com/profile_banners/2402201444/1452919950
p142
aVhttps://pbs.twimg.com/profile_banners/198040277/1449730344
p143
aVhttps://pbs.twimg.com/profile_banners/1099658112/1455114699
p144
aVhttps://pbs.twimg.com/profile_banners/287104337/1426080125
p145
aVhttps://pbs.twimg.com/profile_banners/36979782/1435969295
p146
aVhttps://pbs.twimg.com/profile_banners/3243374788/1455341667
p147
aVhttps://pbs.twimg.com/profile_banners/14999052/1402931979
p148
aVhttps://pbs.twimg.com/profile_banners/203764459/1389480698
p149
aVhttps://pbs.twimg.com/profile_banners/4888886691/1454950707
p150
aVhttps://pbs.twimg.com/profile_banners/508290315/1454534634
p151
aVhttps://pbs.twimg.com/profile_banners/3856413263/1455119045
p152
aVhttps://pbs.twimg.com/profile_banners/319963230/1372973669
p153
aVhttps://pbs.twimg.com/profile_banners/882341030/1352306363
p154
aVhttps://pbs.twimg.com/profile_banners/155412101/1451321489
p155
aVhttps://pbs.twimg.com/profile_banners/2654235208/1412674828
p156
aVhttps://pbs.twimg.com/profile_banners/982017565/1405992191
p157
aVhttps://pbs.twimg.com/profile_banners/936912511/1352467862
p158
aVhttps://pbs.twimg.com/profile_banners/109586084/1368779779
p159
aVhttps://pbs.twimg.com/profile_banners/947539758/1368681834
p160
aVhttps://pbs.twimg.com/profile_banners/226996502/1348221934
p161
aVhttps://pbs.twimg.com/profile_banners/258567574/1444088449
p162
aVhttps://pbs.twimg.com/profile_banners/496774364/1444835566
p163
aVhttps://pbs.twimg.com/profile_banners/1006879248/1366662216
p164
aVhttps://pbs.twimg.com/profile_banners/26590779/1437873768
p165
aVhttps://pbs.twimg.com/profile_banners/123325629/1454279266
p166
aVhttps://pbs.twimg.com/profile_banners/178083491/1428777584
p167
aVhttps://pbs.twimg.com/profile_banners/31597981/1428108053
p168
aVhttps://pbs.twimg.com/profile_banners/370699216/1417793090
p169
aVhttps://pbs.twimg.com/profile_banners/977614921/1431522242
p170
aVhttps://pbs.twimg.com/profile_banners/457692129/1445140509
p171
aVhttps://pbs.twimg.com/profile_banners/61429947/1440268095
p172
aVhttps://pbs.twimg.com/profile_banners/2922172126/1455049533
p173
aVhttps://pbs.twimg.com/profile_banners/4901535879/1455290219
p174
aVhttps://pbs.twimg.com/profile_banners/63602751/1453349517
p175
aVhttps://pbs.twimg.com/profile_banners/28007985/1388597970
p176
aVhttps://pbs.twimg.com/profile_banners/4843241559/1453671000
p177
aVhttps://pbs.twimg.com/profile_banners/1724525785/1378186891
p178
aVhttps://pbs.twimg.com/profile_banners/573710584/1378003800
p179
aVhttps://pbs.twimg.com/profile_banners/3390467026/1454208093
p180
aVhttps://pbs.twimg.com/profile_banners/2440901391/1455302124
p181
aVhttps://pbs.twimg.com/profile_banners/31186729/1455058494
p182
aVhttps://pbs.twimg.com/profile_banners/2309099437/1451803490
p183
aVhttps://pbs.twimg.com/profile_banners/210351676/1453088988
p184
aVhttps://pbs.twimg.com/profile_banners/2279522616/1444174117
p185
aVhttps://pbs.twimg.com/profile_banners/380708009/1371752589
p186
aVhttps://pbs.twimg.com/profile_banners/392953929/1455065146
p187
aVhttps://pbs.twimg.com/profile_banners/520131323/1455103998
p188
aVhttps://pbs.twimg.com/profile_banners/2535938831/1452910098
p189
aVhttps://pbs.twimg.com/profile_banners/314058873/1437333553
p190
aVhttps://pbs.twimg.com/profile_banners/47107534/1381356737
p191
aVhttps://pbs.twimg.com/profile_banners/287601875/1455371374
p192
aVhttps://pbs.twimg.com/profile_banners/3173417871/1429205464
p193
aVhttps://pbs.twimg.com/profile_banners/2454773341/1454252689
p194
aVhttps://pbs.twimg.com/profile_banners/193926381/1426799822
p195
aVhttps://pbs.twimg.com/profile_banners/148593548/1406442848
p196
aVhttps://pbs.twimg.com/profile_banners/415887931/1442722149
p197
aVhttps://pbs.twimg.com/profile_banners/3655108695/1442273489
p198
aVhttps://pbs.twimg.com/profile_banners/3298004513/1452721034
p199
aVhttps://pbs.twimg.com/profile_banners/1481408222/1450332479
p200
aVhttps://pbs.twimg.com/profile_banners/4854415868/1454509051
p201
aVhttps://pbs.twimg.com/profile_banners/144121810/1440602462
p202
aVhttps://pbs.twimg.com/profile_banners/956864906/1454716979
p203
aVhttps://pbs.twimg.com/profile_banners/2394465319/1398308536
p204
aVhttps://pbs.twimg.com/profile_banners/261437777/1454939533
p205
aVhttps://pbs.twimg.com/profile_banners/276270636/1451855152
p206
aVhttps://pbs.twimg.com/profile_banners/4901489212/1455289648
p207
aVhttps://pbs.twimg.com/profile_banners/982895821/1449771324
p208
aVhttps://pbs.twimg.com/profile_banners/3120690954/1454869927
p209
aVhttps://pbs.twimg.com/profile_banners/341597700/1454827794
p210
aVhttps://pbs.twimg.com/profile_banners/2735912396/1445108969
p211
aVhttps://pbs.twimg.com/profile_banners/2414205756/1454761390
p212
aVhttps://pbs.twimg.com/profile_banners/34755858/1449187120
p213
aVhttps://pbs.twimg.com/profile_banners/46119600/1453557781
p214
aVhttps://pbs.twimg.com/profile_banners/2941902864/1454010500
p215
aVhttps://pbs.twimg.com/profile_banners/3307512417/1448295663
p216
aVhttps://pbs.twimg.com/profile_banners/477051468/1454888985
p217
aVhttps://pbs.twimg.com/profile_banners/117027455/1455359424
p218
aVhttps://pbs.twimg.com/profile_banners/410524700/1452185705
p219
aVhttps://pbs.twimg.com/profile_banners/305731827/1399213127
p220
aVhttps://pbs.twimg.com/profile_banners/2952260561/1433213359
p221
aVhttps://pbs.twimg.com/profile_banners/467918121/1408177012
p222
aVhttps://pbs.twimg.com/profile_banners/3289264086/1454868670
p223
aVhttps://pbs.twimg.com/profile_banners/222403487/1451927920
p224
aVhttps://pbs.twimg.com/profile_banners/3103735179/1455340622
p225
aVhttps://pbs.twimg.com/profile_banners/275088445/1452001096
p226
aVhttps://pbs.twimg.com/profile_banners/1083703922/1447111198
p227
aVhttps://pbs.twimg.com/profile_banners/432586059/1455291658
p228
aVhttps://pbs.twimg.com/profile_banners/3076092003/1451181258
p229
aVhttps://pbs.twimg.com/profile_banners/1130054568/1443600529
p230
aVhttps://pbs.twimg.com/profile_banners/449670024/1440363066
p231
aVhttps://pbs.twimg.com/profile_banners/98851936/1361852137
p232
aVhttps://pbs.twimg.com/profile_banners/3133541276/1453796955
p233
aVhttps://pbs.twimg.com/profile_banners/1864480776/1451347352
p234
aVhttps://pbs.twimg.com/profile_banners/22658051/1415984968
p235
aVhttps://pbs.twimg.com/profile_banners/301570476/1451656107
p236
aVhttps://pbs.twimg.com/profile_banners/415908036/1455078695
p237
aVhttps://pbs.twimg.com/profile_banners/4363883847/1455351642
p238
aVhttps://pbs.twimg.com/profile_banners/2376972936/1454671035
p239
aVhttps://pbs.twimg.com/profile_banners/3068760457/1454711016
p240
aVhttps://pbs.twimg.com/profile_banners/4539679819/1450233964
p241
aVhttps://pbs.twimg.com/profile_banners/447946529/1449333331
p242
aVhttps://pbs.twimg.com/profile_banners/340305638/1393948603
p243
aVhttps://pbs.twimg.com/profile_banners/16713534/1416697476
p244
aVhttps://pbs.twimg.com/profile_banners/4904709971/1455369932
p245
aVhttps://pbs.twimg.com/profile_banners/2908575031/1448311274
p246
aVhttps://pbs.twimg.com/profile_banners/2899054958/1455191186
p247
aVhttps://pbs.twimg.com/profile_banners/1681988340/1455051005
p248
aVhttps://pbs.twimg.com/profile_banners/4901669146/1455376769
p249
aVhttps://pbs.twimg.com/profile_banners/262363083/1416286207
p250
aVhttps://pbs.twimg.com/profile_banners/454345851/1447979266
p251
aVhttps://pbs.twimg.com/profile_banners/719190618/1452835066
p252
aVhttps://pbs.twimg.com/profile_banners/474996431/1443016108
p253
aVhttps://pbs.twimg.com/profile_banners/150777828/1448387599
p254
aVhttps://pbs.twimg.com/profile_banners/1593855565/1454990516
p255
aVhttps://pbs.twimg.com/profile_banners/51099073/1455377401
p256
aVhttps://pbs.twimg.com/profile_banners/412321859/1454535835
p257
aVhttps://pbs.twimg.com/profile_banners/3043996928/1447038936
p258
aVhttps://pbs.twimg.com/profile_banners/17219137/1448854937
p259
aVhttps://pbs.twimg.com/profile_banners/459822742/1453654470
p260
aVhttps://pbs.twimg.com/profile_banners/1359036667/1440329560
p261
aVhttps://pbs.twimg.com/profile_banners/1126828518/1450815891
p262
aVhttps://pbs.twimg.com/profile_banners/1378148294/1455261118
p263
aVhttps://pbs.twimg.com/profile_banners/241870283/1455244355
p264
aVhttps://pbs.twimg.com/profile_banners/1143558932/1434196992
p265
aVhttps://pbs.twimg.com/profile_banners/3374715652/1454501109
p266
aVhttps://pbs.twimg.com/profile_banners/1056802772/1453738169
p267
aVhttps://pbs.twimg.com/profile_banners/747194077/1446988541
p268
aVhttps://pbs.twimg.com/profile_banners/4735517833/1455153149
p269
aVhttps://pbs.twimg.com/profile_banners/19013544/1455076762
p270
aVhttps://pbs.twimg.com/profile_banners/85460978/1453977447
p271
aVhttps://pbs.twimg.com/profile_banners/581332296/1405343725
p272
aVhttps://pbs.twimg.com/profile_banners/3073111475/1430359258
p273
aVhttps://pbs.twimg.com/profile_banners/2665630587/1455201182
p274
aVhttps://pbs.twimg.com/profile_banners/2534533100/1454856052
p275
aVhttps://pbs.twimg.com/profile_banners/480363860/1454297208
p276
aVhttps://pbs.twimg.com/profile_banners/262909742/1454817478
p277
aVhttps://pbs.twimg.com/profile_banners/578082787/1454639991
p278
aVhttps://pbs.twimg.com/profile_banners/234302825/1453127897
p279
aVhttps://pbs.twimg.com/profile_banners/1086631046/1455313497
p280
aVhttps://pbs.twimg.com/profile_banners/2318940578/1426870021
p281
aVhttps://pbs.twimg.com/profile_banners/1456463041/1453522871
p282
aVhttps://pbs.twimg.com/profile_banners/696172712276926464/1454815663
p283
aVhttps://pbs.twimg.com/profile_banners/3246607427/1454245277
p284
aVhttps://pbs.twimg.com/profile_banners/3019682508/1454481867
p285
aVhttps://pbs.twimg.com/profile_banners/3873879553/1455313070
p286
aVhttps://pbs.twimg.com/profile_banners/37403212/1366762471
p287
aVhttps://pbs.twimg.com/profile_banners/3777146237/1445384325
p288
aVhttps://pbs.twimg.com/profile_banners/2444855846/1426235502
p289
aVhttps://pbs.twimg.com/profile_banners/2511669115/1455120240
p290
aVhttps://pbs.twimg.com/profile_banners/280053148/1451351703
p291
aVhttps://pbs.twimg.com/profile_banners/3832199305/1444434653
p292
aVhttps://pbs.twimg.com/profile_banners/509857984/1434558557
p293
aVhttps://pbs.twimg.com/profile_banners/380698317/1437966386
p294
aVhttps://pbs.twimg.com/profile_banners/2187350616/1452866725
p295
aVhttps://pbs.twimg.com/profile_banners/19954865/1411179591
p296
aVhttps://pbs.twimg.com/profile_banners/225827123/1384042465
p297
aVhttps://pbs.twimg.com/profile_banners/1062304022/1453908604
p298
aVhttps://pbs.twimg.com/profile_banners/4788248335/1455034086
p299
aVhttps://pbs.twimg.com/profile_banners/41190561/1376779033
p300
aVhttps://pbs.twimg.com/profile_banners/514865448/1452281237
p301
aVhttps://pbs.twimg.com/profile_banners/832241515/1451400598
p302
aVhttps://pbs.twimg.com/profile_banners/4855185791/1453934336
p303
aVhttps://pbs.twimg.com/profile_banners/2843639066/1454948995
p304
aVhttps://pbs.twimg.com/profile_banners/716508023/1430785024
p305
aVhttps://pbs.twimg.com/profile_banners/2177167768/1452587122
p306
aVhttps://pbs.twimg.com/profile_banners/2743212063/1454973361
p307
aVhttps://pbs.twimg.com/profile_banners/2191515894/1450755098
p308
aVhttps://pbs.twimg.com/profile_banners/2895273245/1454774992
p309
aVhttps://pbs.twimg.com/profile_banners/36155879/1416695553
p310
aVhttps://pbs.twimg.com/profile_banners/488959409/1451772181
p311
aVhttps://pbs.twimg.com/profile_banners/2359822528/1454871454
p312
aVhttps://pbs.twimg.com/profile_banners/2205008839/1399096225
p313
aVhttps://pbs.twimg.com/profile_banners/3006221026/1453659252
p314
aVhttps://pbs.twimg.com/profile_banners/531486752/1359388909
p315
aVhttps://pbs.twimg.com/profile_banners/240444110/1455373068
p316
aVhttps://pbs.twimg.com/profile_banners/1389327788/1437683356
p317
aVhttps://pbs.twimg.com/profile_banners/38189544/1364936517
p318
aVhttps://pbs.twimg.com/profile_banners/24322188/1449492595
p319
aVhttps://pbs.twimg.com/profile_banners/2211294174/1446379058
p320
aVhttps://pbs.twimg.com/profile_banners/4854393071/1453919792
p321
aVhttps://pbs.twimg.com/profile_banners/2270950860/1414141437
p322
aVhttps://pbs.twimg.com/profile_banners/209562234/1454862330
p323
aVhttps://pbs.twimg.com/profile_banners/318666007/1440784213
p324
aVhttps://pbs.twimg.com/profile_banners/3269763410/1453715374
p325
aVhttps://pbs.twimg.com/profile_banners/4749039207/1454794212
p326
aVhttps://pbs.twimg.com/profile_banners/2685839598/1406838664
p327
aVhttps://pbs.twimg.com/profile_banners/72416522/1423447220
p328
aVhttps://pbs.twimg.com/profile_banners/1683549866/1454915064
p329
aVhttps://pbs.twimg.com/profile_banners/204184586/1442554661
p330
aVhttps://pbs.twimg.com/profile_banners/4793119246/1452680141
p331
aVhttps://pbs.twimg.com/profile_banners/27735933/1398978051
p332
aVhttps://pbs.twimg.com/profile_banners/311858208/1410654201
p333
aVhttps://pbs.twimg.com/profile_banners/3067310987/1455378087
p334
aVhttps://pbs.twimg.com/profile_banners/2771779931/1452567800
p335
aVhttps://pbs.twimg.com/profile_banners/147764922/1454956346
p336
aVhttps://pbs.twimg.com/profile_banners/256601599/1450031522
p337
aVhttps://pbs.twimg.com/profile_banners/637367159/1362518153
p338
aVhttps://pbs.twimg.com/profile_banners/292972414/1437414621
p339
aVhttps://pbs.twimg.com/profile_banners/73829585/1452834405
p340
aVhttps://pbs.twimg.com/profile_banners/2861372701/1451858029
p341
aVhttps://pbs.twimg.com/profile_banners/2993931578/1454640428
p342
aVhttps://pbs.twimg.com/profile_banners/3430299022/1445630330
p343
aVhttps://pbs.twimg.com/profile_banners/1120364095/1455373816
p344
aVhttps://pbs.twimg.com/profile_banners/26682613/1394815256
p345
aVhttps://pbs.twimg.com/profile_banners/2398646509/1395338828
p346
aVhttps://pbs.twimg.com/profile_banners/262374300/1453501287
p347
aVhttps://pbs.twimg.com/profile_banners/4903092502/1455326002
p348
aVhttps://pbs.twimg.com/profile_banners/570925164/1364300887
p349
aVhttps://pbs.twimg.com/profile_banners/4656244627/1453534457
p350
aVhttps://pbs.twimg.com/profile_banners/4691113440/1454420231
p351
aVhttps://pbs.twimg.com/profile_banners/70657034/1443458526
p352
aVhttps://pbs.twimg.com/profile_banners/3309598247/1455077306
p353
aVhttps://pbs.twimg.com/profile_banners/3438704213/1452141605
p354
aVhttps://pbs.twimg.com/profile_banners/4830817106/1454326456
p355
aVhttps://pbs.twimg.com/profile_banners/3372648138/1455342058
p356
aVhttps://pbs.twimg.com/profile_banners/470562377/1454213297
p357
aVhttps://pbs.twimg.com/profile_banners/278947634/1437389981
p358
aVhttps://pbs.twimg.com/profile_banners/1609418221/1437977682
p359
aVhttps://pbs.twimg.com/profile_banners/146479023/1453040784
p360
aVhttps://pbs.twimg.com/profile_banners/542182800/1455251273
p361
aVhttps://pbs.twimg.com/profile_banners/1454426312/1419569466
p362
aVhttps://pbs.twimg.com/profile_banners/1254690240/1453856759
p363
aVhttps://pbs.twimg.com/profile_banners/104001467/1398268052
p364
aVhttps://pbs.twimg.com/profile_banners/39351188/1453912486
p365
aVhttps://pbs.twimg.com/profile_banners/334370933/1455047763
p366
aVhttps://pbs.twimg.com/profile_banners/104853446/1453695295
p367
aVhttps://pbs.twimg.com/profile_banners/275602174/1453883093
p368
aVhttps://pbs.twimg.com/profile_banners/1660855645/1433717626
p369
aVhttps://pbs.twimg.com/profile_banners/285838943/1437671107
p370
aVhttps://pbs.twimg.com/profile_banners/3119839787/1454974045
p371
aVhttps://pbs.twimg.com/profile_banners/3003473849/1445191111
p372
aVhttps://pbs.twimg.com/profile_banners/144872208/1453058439
p373
aVhttps://pbs.twimg.com/profile_banners/279167748/1383613350
p374
aVhttps://pbs.twimg.com/profile_banners/181201903/1367572622
p375
aVhttps://pbs.twimg.com/profile_banners/160044558/1454446447
p376
aVhttps://pbs.twimg.com/profile_banners/1093961948/1455368575
p377
aVhttps://pbs.twimg.com/profile_banners/228942627/1454658464
p378
aVhttps://pbs.twimg.com/profile_banners/3160053681/1428853992
p379
aVhttps://pbs.twimg.com/profile_banners/489921134/1452955216
p380
aVhttps://pbs.twimg.com/profile_banners/3265368229/1435786335
p381
aVhttps://pbs.twimg.com/profile_banners/1102441076/1427162977
p382
aVhttps://pbs.twimg.com/profile_banners/1156583192/1397082049
p383
aVhttps://pbs.twimg.com/profile_banners/97304978/1449298394
p384
aVhttps://pbs.twimg.com/profile_banners/908652973/1417338264
p385
aVhttps://pbs.twimg.com/profile_banners/3318829452/1450772810
p386
aVhttps://pbs.twimg.com/profile_banners/425356074/1390606784
p387
aVhttps://pbs.twimg.com/profile_banners/2725601545/1435692542
p388
aVhttps://pbs.twimg.com/profile_banners/834439788/1433156781
p389
aVhttps://pbs.twimg.com/profile_banners/38273113/1421644264
p390
aVhttps://pbs.twimg.com/profile_banners/227344783/1420495248
p391
aVhttps://pbs.twimg.com/profile_banners/180202528/1450153226
p392
aVhttps://pbs.twimg.com/profile_banners/4875417141/1454556092
p393
aVhttps://pbs.twimg.com/profile_banners/1500584797/1451497953
p394
aVhttps://pbs.twimg.com/profile_banners/3400322060/1454366538
p395
aVhttps://pbs.twimg.com/profile_banners/1289541806/1426627541
p396
aVhttps://pbs.twimg.com/profile_banners/364484513/1450727880
p397
aVhttps://pbs.twimg.com/profile_banners/2341419104/1442434698
p398
aVhttps://pbs.twimg.com/profile_banners/3088156537/1454327624
p399
aVhttps://pbs.twimg.com/profile_banners/941344069/1453268742
p400
aVhttps://pbs.twimg.com/profile_banners/2860763663/1438612092
p401
aVhttps://pbs.twimg.com/profile_banners/291789016/1431292315
p402
aVhttps://pbs.twimg.com/profile_banners/2933265046/1454851713
p403
aVhttps://pbs.twimg.com/profile_banners/767870042/1451313550
p404
aVhttps://pbs.twimg.com/profile_banners/331849190/1452406485
p405
aVhttps://pbs.twimg.com/profile_banners/1525509380/1454622004
p406
aVhttps://pbs.twimg.com/profile_banners/51386911/1454445236
p407
aVhttps://pbs.twimg.com/profile_banners/2197230179/1454153809
p408
aVhttps://pbs.twimg.com/profile_banners/293061922/1444246905
p409
aVhttps://pbs.twimg.com/profile_banners/85513528/1453344452
p410
aVhttps://pbs.twimg.com/profile_banners/585092072/1454282978
p411
aVhttps://pbs.twimg.com/profile_banners/484655277/1453754124
p412
aVhttps://pbs.twimg.com/profile_banners/444535002/1451140245
p413
aVhttps://pbs.twimg.com/profile_banners/464486219/1452312745
p414
aVhttps://pbs.twimg.com/profile_banners/1464567031/1454984623
p415
aVhttps://pbs.twimg.com/profile_banners/3727410800/1455367715
p416
aVhttps://pbs.twimg.com/profile_banners/342192475/1453682893
p417
aVhttps://pbs.twimg.com/profile_banners/1276149506/1454531933
p418
aVhttps://pbs.twimg.com/profile_banners/81195781/1448736888
p419
aVhttps://pbs.twimg.com/profile_banners/1408964252/1368175902
p420
aVhttps://pbs.twimg.com/profile_banners/4737205634/1452411935
p421
aVhttps://pbs.twimg.com/profile_banners/405263215/1454768526
p422
aVhttps://pbs.twimg.com/profile_banners/3232083558/1455018634
p423
aVhttps://pbs.twimg.com/profile_banners/320536646/1453583404
p424
aVhttps://pbs.twimg.com/profile_banners/2913735996/1455375628
p425
aVhttps://pbs.twimg.com/profile_banners/434117980/1423917903
p426
aVhttps://pbs.twimg.com/profile_banners/380323211/1454826099
p427
aVhttps://pbs.twimg.com/profile_banners/1472880373/1431991268
p428
aVhttps://pbs.twimg.com/profile_banners/282543493/1442605898
p429
aVhttps://pbs.twimg.com/profile_banners/121381209/1423140264
p430
aVhttps://pbs.twimg.com/profile_banners/90257329/1416130355
p431
aVhttps://pbs.twimg.com/profile_banners/297088125/1453855817
p432
aVhttps://pbs.twimg.com/profile_banners/441928169/1380894125
p433
aVhttps://pbs.twimg.com/profile_banners/2583734113/1454977690
p434
aVhttps://pbs.twimg.com/profile_banners/3028626035/1438301447
p435
aVhttps://pbs.twimg.com/profile_banners/2896747219/1420989383
p436
aVhttps://pbs.twimg.com/profile_banners/3424489361/1448551313
p437
aVhttps://pbs.twimg.com/profile_banners/18942418/1454340913
p438
aVhttps://pbs.twimg.com/profile_banners/748331690/1447587315
p439
aVhttps://pbs.twimg.com/profile_banners/769507248/1454872728
p440
aVhttps://pbs.twimg.com/profile_banners/838381952/1398455690
p441
aVhttps://pbs.twimg.com/profile_banners/171720976/1452024702
p442
aVhttps://pbs.twimg.com/profile_banners/199385846/1435267159
p443
aVhttps://pbs.twimg.com/profile_banners/410891772/1455057356
p444
aVhttps://pbs.twimg.com/profile_banners/2334440671/1399649553
p445
aVhttps://pbs.twimg.com/profile_banners/2780180496/1414122715
p446
aVhttps://pbs.twimg.com/profile_banners/1321356906/1455192947
p447
aVhttps://pbs.twimg.com/profile_banners/2376175908/1455379558
p448
aVhttps://pbs.twimg.com/profile_banners/114290430/1448679833
p449
aVhttps://pbs.twimg.com/profile_banners/252838864/1450595502
p450
aVhttps://pbs.twimg.com/profile_banners/66364033/1449613997
p451
aVhttps://pbs.twimg.com/profile_banners/3171869853/1431957108
p452
aVhttps://pbs.twimg.com/profile_banners/2431615968/1424062734
p453
aVhttps://pbs.twimg.com/profile_banners/31630011/1435954999
p454
aVhttps://pbs.twimg.com/profile_banners/2380313363/1450382699
p455
aVhttps://pbs.twimg.com/profile_banners/30701556/1444167519
p456
aVhttps://pbs.twimg.com/profile_banners/1666434109/1455087580
p457
aVhttps://pbs.twimg.com/profile_banners/2720728044/1453996037
p458
aVhttps://pbs.twimg.com/profile_banners/3447715096/1452091707
p459
aVhttps://pbs.twimg.com/profile_banners/4609242753/1455379115
p460
aVhttps://pbs.twimg.com/profile_banners/2939434639/1454667824
p461
aVhttps://pbs.twimg.com/profile_banners/807180301/1409672909
p462
aVhttps://pbs.twimg.com/profile_banners/54658999/1439232752
p463
aVhttps://pbs.twimg.com/profile_banners/628779135/1455165500
p464
aVhttps://pbs.twimg.com/profile_banners/4486364113/1449495010
p465
aVhttps://pbs.twimg.com/profile_banners/2473605498/1455331827
p466
aVhttps://pbs.twimg.com/profile_banners/3467915293/1453243723
p467
aVhttps://pbs.twimg.com/profile_banners/970078134/1437408180
p468
aVhttps://pbs.twimg.com/profile_banners/75160328/1351162312
p469
aVhttps://pbs.twimg.com/profile_banners/3384624783/1454779667
p470
aVhttps://pbs.twimg.com/profile_banners/235857269/1362898582
p471
aVhttps://pbs.twimg.com/profile_banners/486384508/1450593591
p472
aVhttps://pbs.twimg.com/profile_banners/2746182845/1446956634
p473
aVhttps://pbs.twimg.com/profile_banners/717364182/1443797875
p474
aVhttps://pbs.twimg.com/profile_banners/3538203263/1453955811
p475
aVhttps://pbs.twimg.com/profile_banners/384557677/1449680555
p476
aVhttps://pbs.twimg.com/profile_banners/218171847/1440884461
p477
aVhttps://pbs.twimg.com/profile_banners/615550199/1454357051
p478
aVhttps://pbs.twimg.com/profile_banners/3254712010/1455131098
p479
aVhttps://pbs.twimg.com/profile_banners/261296077/1406427220
p480
aVhttps://pbs.twimg.com/profile_banners/2281493066/1454905488
p481
aVhttps://pbs.twimg.com/profile_banners/2257330568/1454988623
p482
aVhttps://pbs.twimg.com/profile_banners/2673931871/1455321330
p483
aVhttps://pbs.twimg.com/profile_banners/150746802/1443463726
p484
aVhttps://pbs.twimg.com/profile_banners/462337131/1443771762
p485
aVhttps://pbs.twimg.com/profile_banners/1338074395/1455151323
p486
aVhttps://pbs.twimg.com/profile_banners/98123684/1450124419
p487
aVhttps://pbs.twimg.com/profile_banners/3882512369/1454595905
p488
aVhttps://pbs.twimg.com/profile_banners/3193560156/1455300265
p489
aVhttps://pbs.twimg.com/profile_banners/2650266225/1449362744
p490
aVhttps://pbs.twimg.com/profile_banners/3658892058/1450705061
p491
aVhttps://pbs.twimg.com/profile_banners/3005347153/1451320013
p492
aVhttps://pbs.twimg.com/profile_banners/395992697/1453393478
p493
aVhttps://pbs.twimg.com/profile_banners/2729704754/1450443145
p494
aVhttps://pbs.twimg.com/profile_banners/1327709264/1454734707
p495
aVhttps://pbs.twimg.com/profile_banners/3665071332/1445679978
p496
aVhttps://pbs.twimg.com/profile_banners/3383759430/1450171103
p497
aVhttps://pbs.twimg.com/profile_banners/4485960854/1449492141
p498
aVhttps://pbs.twimg.com/profile_banners/3622669754/1454507874
p499
aVhttps://pbs.twimg.com/profile_banners/3688704682/1454507681
p500
aVhttps://pbs.twimg.com/profile_banners/3024008684/1424265907
p501
aVhttps://pbs.twimg.com/profile_banners/2922434935/1437367339
p502
aVhttps://pbs.twimg.com/profile_banners/379457359/1454931275
p503
aVhttps://pbs.twimg.com/profile_banners/4843057323/1453668283
p504
aVhttps://pbs.twimg.com/profile_banners/975463586/1454819152
p505
aVhttps://pbs.twimg.com/profile_banners/2990808460/1455377864
p506
aVhttps://pbs.twimg.com/profile_banners/2415931480/1455228574
p507
aVhttps://pbs.twimg.com/profile_banners/707642515/1454976867
p508
aVhttps://pbs.twimg.com/profile_banners/205777694/1422627594
p509
aVhttps://pbs.twimg.com/profile_banners/355438626/1439113651
p510
aVhttps://pbs.twimg.com/profile_banners/11866582/1443576060
p511
aVhttps://pbs.twimg.com/profile_banners/2330424144/1449688555
p512
aVhttps://pbs.twimg.com/profile_banners/2866149777/1417042722
p513
aVhttps://pbs.twimg.com/profile_banners/471461076/1441584746
p514
aVhttps://pbs.twimg.com/profile_banners/988733420/1455065909
p515
aVhttps://pbs.twimg.com/profile_banners/794738724/1435488933
p516
aVhttps://pbs.twimg.com/profile_banners/724535232/1455305145
p517
aVhttps://pbs.twimg.com/profile_banners/2332461659/1442460339
p518
aVhttps://pbs.twimg.com/profile_banners/1570716943/1420385372
p519
aVhttps://pbs.twimg.com/profile_banners/368694847/1453006682
p520
aVhttps://pbs.twimg.com/profile_banners/2860725119/1453129488
p521
aVhttps://pbs.twimg.com/profile_banners/369352648/1435811754
p522
aVhttps://pbs.twimg.com/profile_banners/120723836/1455144728
p523
aVhttps://pbs.twimg.com/profile_banners/2191481728/1455234519
p524
aVhttps://pbs.twimg.com/profile_banners/2246579034/1452955059
p525
aVhttps://pbs.twimg.com/profile_banners/32225866/1454947819
p526
aVhttps://pbs.twimg.com/profile_banners/3182287454/1450408265
p527
aVhttps://pbs.twimg.com/profile_banners/4717381763/1455209586
p528
aVhttps://pbs.twimg.com/profile_banners/78097110/1444091941
p529
aVhttps://pbs.twimg.com/profile_banners/238239514/1391214262
p530
aVhttps://pbs.twimg.com/profile_banners/3884980757/1455377886
p531
aVhttps://pbs.twimg.com/profile_banners/2193121530/1454118970
p532
aVhttps://pbs.twimg.com/profile_banners/377104601/1442026145
p533
aVhttps://pbs.twimg.com/profile_banners/383875403/1453169129
p534
aVhttps://pbs.twimg.com/profile_banners/26182870/1445875347
p535
aVhttps://pbs.twimg.com/profile_banners/2397527380/1455330693
p536
aVhttps://pbs.twimg.com/profile_banners/410783972/1438832354
p537
aVhttps://pbs.twimg.com/profile_banners/2411415679/1453854328
p538
aVhttps://pbs.twimg.com/profile_banners/4569553636/1451574867
p539
aVhttps://pbs.twimg.com/profile_banners/620152231/1455256774
p540
aVhttps://pbs.twimg.com/profile_banners/1716350450/1377971776
p541
aVhttps://pbs.twimg.com/profile_banners/4111880217/1452404583
p542
aVhttps://pbs.twimg.com/profile_banners/4857906478/1455209217
p543
aVhttps://pbs.twimg.com/profile_banners/90474982/1447384612
p544
aVhttps://pbs.twimg.com/profile_banners/16106421/1398548359
p545
aVhttps://pbs.twimg.com/profile_banners/772699550/1453106130
p546
aVhttps://pbs.twimg.com/profile_banners/32785482/1453050055
p547
aVhttps://pbs.twimg.com/profile_banners/170200207/1454425925
p548
aVhttps://pbs.twimg.com/profile_banners/2229294699/1430515860
p549
aVhttps://pbs.twimg.com/profile_banners/3033919718/1454179273
p550
aVhttps://pbs.twimg.com/profile_banners/2436140299/1455319083
p551
aVhttps://pbs.twimg.com/profile_banners/2250252981/1433120134
p552
aVhttps://pbs.twimg.com/profile_banners/1480330988/1451858171
p553
aVhttps://pbs.twimg.com/profile_banners/40473740/1447951990
p554
aVhttps://pbs.twimg.com/profile_banners/358170843/1455118517
p555
aVhttps://pbs.twimg.com/profile_banners/1381292954/1445106882
p556
aVhttps://pbs.twimg.com/profile_banners/214201069/1446582174
p557
aVhttps://pbs.twimg.com/profile_banners/2873315838/1427452281
p558
aVhttps://pbs.twimg.com/profile_banners/2932634388/1418892978
p559
aVhttps://pbs.twimg.com/profile_banners/2429066648/1443719821
p560
aVhttps://pbs.twimg.com/profile_banners/3011097479/1442875115
p561
aVhttps://pbs.twimg.com/profile_banners/558934328/1454628283
p562
aVhttps://pbs.twimg.com/profile_banners/912854852/1453897927
p563
aVhttps://pbs.twimg.com/profile_banners/836765376/1438187906
p564
aVhttps://pbs.twimg.com/profile_banners/801821413/1454645710
p565
aVhttps://pbs.twimg.com/profile_banners/723048355/1451325008
p566
aVhttps://pbs.twimg.com/profile_banners/1249622395/1447690346
p567
aVhttps://pbs.twimg.com/profile_banners/3281397475/1453147496
p568
aVhttps://pbs.twimg.com/profile_banners/841979346/1454213793
p569
aVhttps://pbs.twimg.com/profile_banners/3034032404/1424874470
p570
aVhttps://pbs.twimg.com/profile_banners/2663259305/1450693399
p571
aVhttps://pbs.twimg.com/profile_banners/59423692/1403067259
p572
aVhttps://pbs.twimg.com/profile_banners/379699456/1424570193
p573
aVhttps://pbs.twimg.com/profile_banners/276775790/1452607390
p574
aVhttps://pbs.twimg.com/profile_banners/1412451661/1450338601
p575
aVhttps://pbs.twimg.com/profile_banners/56558064/1452042453
p576
aVhttps://pbs.twimg.com/profile_banners/634621532/1455375051
p577
aVhttps://pbs.twimg.com/profile_banners/3160134368/1451179218
p578
aVhttps://pbs.twimg.com/profile_banners/3530851459/1454297340
p579
aVhttps://pbs.twimg.com/profile_banners/3141533897/1455009432
p580
aVhttps://pbs.twimg.com/profile_banners/3167861804/1429913873
p581
aVhttps://pbs.twimg.com/profile_banners/741194701/1436477452
p582
aVhttps://pbs.twimg.com/profile_banners/420875454/1439504248
p583
aVhttps://pbs.twimg.com/profile_banners/1693447446/1432030586
p584
aVhttps://pbs.twimg.com/profile_banners/1103350118/1455252209
p585
aVhttps://pbs.twimg.com/profile_banners/1693481012/1426008540
p586
aVhttps://pbs.twimg.com/profile_banners/2852557346/1455343648
p587
aVhttps://pbs.twimg.com/profile_banners/766267501/1390146373
p588
aVhttps://pbs.twimg.com/profile_banners/3362504652/1455301287
p589
aVhttps://pbs.twimg.com/profile_banners/234038171/1455130089
p590
aVhttps://pbs.twimg.com/profile_banners/702801474/1435741206
p591
aVhttps://pbs.twimg.com/profile_banners/737597228/1455372585
p592
aVhttps://pbs.twimg.com/profile_banners/2888045852/1454945771
p593
aVhttps://pbs.twimg.com/profile_banners/1226082595/1455179087
p594
aVhttps://pbs.twimg.com/profile_banners/2226422101/1454838639
p595
aVhttps://pbs.twimg.com/profile_banners/2354181655/1454780272
p596
aVhttps://pbs.twimg.com/profile_banners/4804245501/1454589964
p597
aVhttps://pbs.twimg.com/profile_banners/4732688064/1455072647
p598
aVhttps://pbs.twimg.com/profile_banners/3139575376/1453224171
p599
aVhttps://pbs.twimg.com/profile_banners/155798952/1437356262
p600
aVhttps://pbs.twimg.com/profile_banners/172695191/1453599996
p601
aVhttps://pbs.twimg.com/profile_banners/2761440745/1455023775
p602
aVhttps://pbs.twimg.com/profile_banners/2603362841/1451499073
p603
aVhttps://pbs.twimg.com/profile_banners/2187741925/1454898361
p604
aVhttps://pbs.twimg.com/profile_banners/924598987/1454042748
p605
aVhttps://pbs.twimg.com/profile_banners/88073296/1385472643
p606
aVhttps://pbs.twimg.com/profile_banners/2415286128/1438147419
p607
aVhttps://pbs.twimg.com/profile_banners/1104764918/1455378310
p608
aVhttps://pbs.twimg.com/profile_banners/2153298823/1382633432
p609
aVhttps://pbs.twimg.com/profile_banners/711499790/1443881482
p610
aVhttps://pbs.twimg.com/profile_banners/790324339/1447291871
p611
aVhttps://pbs.twimg.com/profile_banners/93723064/1447507698
p612
aVhttps://pbs.twimg.com/profile_banners/3384541335/1437403865
p613
aVhttps://pbs.twimg.com/profile_banners/1604731358/1422404385
p614
aVhttps://pbs.twimg.com/profile_banners/2840411763/1451256249
p615
aVhttps://pbs.twimg.com/profile_banners/26328034/1454801141
p616
aVhttps://pbs.twimg.com/profile_banners/2772778696/1455074121
p617
aVhttps://pbs.twimg.com/profile_banners/3874152853/1455334180
p618
aVhttps://pbs.twimg.com/profile_banners/126132718/1448056231
p619
aVhttps://pbs.twimg.com/profile_banners/92851804/1455167855
p620
aVhttps://pbs.twimg.com/profile_banners/4899852761/1455242413
p621
aVhttps://pbs.twimg.com/profile_banners/4753266680/1452691294
p622
aVhttps://pbs.twimg.com/profile_banners/3155406606/1454157647
p623
aVhttps://pbs.twimg.com/profile_banners/2782541478/1431963612
p624
aVhttps://pbs.twimg.com/profile_banners/248374494/1438133022
p625
aVhttps://pbs.twimg.com/profile_banners/609238418/1445630306
p626
aVhttps://pbs.twimg.com/profile_banners/3317551603/1455378282
p627
aVhttps://pbs.twimg.com/profile_banners/3257044100/1455378240
p628
aVhttps://pbs.twimg.com/profile_banners/326750295/1455250719
p629
aVhttps://pbs.twimg.com/profile_banners/286693426/1454385062
p630
aVhttps://pbs.twimg.com/profile_banners/3560804299/1442765045
p631
aVhttps://pbs.twimg.com/profile_banners/457060012/1410648770
p632
aVhttps://pbs.twimg.com/profile_banners/4544335296/1451611078
p633
aVhttps://pbs.twimg.com/profile_banners/2354092968/1454898123
p634
aVhttps://pbs.twimg.com/profile_banners/15962686/1452719412
p635
aVhttps://pbs.twimg.com/profile_banners/342902308/1451280696
p636
aVhttps://pbs.twimg.com/profile_banners/59267975/1404483219
p637
aVhttps://pbs.twimg.com/profile_banners/3944084292/1450887788
p638
aVhttps://pbs.twimg.com/profile_banners/32497478/1393573942
p639
aVhttps://pbs.twimg.com/profile_banners/253021743/1400931407
p640
aVhttps://pbs.twimg.com/profile_banners/2256488685/1418174791
p641
aVhttps://pbs.twimg.com/profile_banners/4786147692/1453250748
p642
aVhttps://pbs.twimg.com/profile_banners/2726979555/1453763729
p643
aVhttps://pbs.twimg.com/profile_banners/509646663/1447584511
p644
aVhttps://pbs.twimg.com/profile_banners/563521814/1453410474
p645
aVhttps://pbs.twimg.com/profile_banners/2993785734/1455333098
p646
aVhttps://pbs.twimg.com/profile_banners/538360655/1431892990
p647
aVhttps://pbs.twimg.com/profile_banners/363224816/1454974255
p648
aVhttps://pbs.twimg.com/profile_banners/4352115261/1450265804
p649
aVhttps://pbs.twimg.com/profile_banners/344053036/1453239437
p650
aVhttps://pbs.twimg.com/profile_banners/3181546891/1445067942
p651
aVhttps://pbs.twimg.com/profile_banners/3181522598/1445068958
p652
aVhttps://pbs.twimg.com/profile_banners/3226079494/1445068334
p653
aVhttps://pbs.twimg.com/profile_banners/3225996801/1451605436
p654
aVhttps://pbs.twimg.com/profile_banners/3226089586/1445069326
p655
aVhttps://pbs.twimg.com/profile_banners/3225995607/1445069046
p656
aVhttps://pbs.twimg.com/profile_banners/3181468140/1445068754
p657
aVhttps://pbs.twimg.com/profile_banners/3225986061/1445068053
p658
aVhttps://pbs.twimg.com/profile_banners/3226027091/1445068100
p659
aVhttps://pbs.twimg.com/profile_banners/3181520390/1445068713
p660
aVhttps://pbs.twimg.com/profile_banners/3181549357/1451605702
p661
aVhttps://pbs.twimg.com/profile_banners/3118821128/1455331950
p662
aVhttps://pbs.twimg.com/profile_banners/3181463118/1445068222
p663
aVhttps://pbs.twimg.com/profile_banners/3225993279/1445068878
p664
aVhttps://pbs.twimg.com/profile_banners/38262092/1454813128
p665
aVhttps://pbs.twimg.com/profile_banners/410930402/1430528589
p666
aVhttps://pbs.twimg.com/profile_banners/596101720/1381971244
p667
aVhttps://pbs.twimg.com/profile_banners/3330139138/1455027575
p668
aVhttps://pbs.twimg.com/profile_banners/533701096/1454014552
p669
aVhttps://pbs.twimg.com/profile_banners/1970911224/1447265072
p670
aVhttps://pbs.twimg.com/profile_banners/2378135339/1455289687
p671
aVhttps://pbs.twimg.com/profile_banners/72266685/1453037740
p672
aVhttps://pbs.twimg.com/profile_banners/252056781/1449904119
p673
aVhttps://pbs.twimg.com/profile_banners/481505926/1449014568
p674
aVhttps://pbs.twimg.com/profile_banners/915813500/1454034992
p675
aVhttps://pbs.twimg.com/profile_banners/3108624516/1454786855
p676
aVhttps://pbs.twimg.com/profile_banners/233100491/1447303745
p677
aVhttps://pbs.twimg.com/profile_banners/2331324199/1454969576
p678
aVhttps://pbs.twimg.com/profile_banners/295040251/1452859944
p679
aVhttps://pbs.twimg.com/profile_banners/254877421/1454042725
p680
aVhttps://pbs.twimg.com/profile_banners/439892288/1442956841
p681
aVhttps://pbs.twimg.com/profile_banners/1633559906/1375209874
p682
aVhttps://pbs.twimg.com/profile_banners/64946058/1429237592
p683
aVhttps://pbs.twimg.com/profile_banners/483532946/1379622310
p684
aVhttps://pbs.twimg.com/profile_banners/970684776/1433415043
p685
aVhttps://pbs.twimg.com/profile_banners/52802302/1454208773
p686
aVhttps://pbs.twimg.com/profile_banners/3035634431/1423869442
p687
aVhttps://pbs.twimg.com/profile_banners/562207202/1451925580
p688
aVhttps://pbs.twimg.com/profile_banners/26289655/1429893660
p689
aVhttps://pbs.twimg.com/profile_banners/1278834830/1399059649
p690
aVhttps://pbs.twimg.com/profile_banners/1613930563/1453218484
p691
aVhttps://pbs.twimg.com/profile_banners/619029820/1405401658
p692
aVhttps://pbs.twimg.com/profile_banners/3321944442/1455378742
p693
aVhttps://pbs.twimg.com/profile_banners/2482960406/1453428721
p694
aVhttps://pbs.twimg.com/profile_banners/1589702737/1395535019
p695
aVhttps://pbs.twimg.com/profile_banners/2809000009/1449470904
p696
aVhttps://pbs.twimg.com/profile_banners/228020990/1391227780
p697
aVhttps://pbs.twimg.com/profile_banners/276817112/1451863458
p698
aVhttps://pbs.twimg.com/profile_banners/546135411/1410069637
p699
aVhttps://pbs.twimg.com/profile_banners/2927245646/1430626511
p700
aVhttps://pbs.twimg.com/profile_banners/22627669/1356816854
p701
aVhttps://pbs.twimg.com/profile_banners/3228473765/1454373648
p702
aVhttps://pbs.twimg.com/profile_banners/92538068/1402128240
p703
aVhttps://pbs.twimg.com/profile_banners/15502270/1453076512
p704
aVhttps://pbs.twimg.com/profile_banners/2596673712/1430524142
p705
aVhttps://pbs.twimg.com/profile_banners/1917300402/1453991856
p706
aVhttps://pbs.twimg.com/profile_banners/93341405/1455338422
p707
aVhttps://pbs.twimg.com/profile_banners/4808619450/1453988919
p708
aVhttps://pbs.twimg.com/profile_banners/239440645/1448844516
p709
aVhttps://pbs.twimg.com/profile_banners/3152407786/1428604758
p710
aVhttps://pbs.twimg.com/profile_banners/1261608162/1409552611
p711
aVhttps://pbs.twimg.com/profile_banners/42117316/1436950148
p712
aVhttps://pbs.twimg.com/profile_banners/950466060/1455331333
p713
aVhttps://pbs.twimg.com/profile_banners/266800302/1439480377
p714
aVhttps://pbs.twimg.com/profile_banners/1891070677/1454722000
p715
aVhttps://pbs.twimg.com/profile_banners/2778043482/1409301334
p716
aVhttps://pbs.twimg.com/profile_banners/122245539/1454428917
p717
aVhttps://pbs.twimg.com/profile_banners/184045996/1452830407
p718
aVhttps://pbs.twimg.com/profile_banners/709450016/1452004461
p719
aVhttps://pbs.twimg.com/profile_banners/1021720820/1454950421
p720
aVhttps://pbs.twimg.com/profile_banners/325265546/1453868167
p721
aVhttps://pbs.twimg.com/profile_banners/2952708126/1454885656
p722
aVhttps://pbs.twimg.com/profile_banners/1900955797/1454556092
p723
aVhttps://pbs.twimg.com/profile_banners/2501812752/1453171109
p724
aVhttps://pbs.twimg.com/profile_banners/1272979380/1363476451
p725
aVhttps://pbs.twimg.com/profile_banners/281587030/1374190936
p726
aVhttps://pbs.twimg.com/profile_banners/2451985273/1454357747
p727
aVhttps://pbs.twimg.com/profile_banners/3393765374/1453250483
p728
aVhttps://pbs.twimg.com/profile_banners/44495926/1417996772
p729
aVhttps://pbs.twimg.com/profile_banners/227893053/1455155408
p730
aVhttps://pbs.twimg.com/profile_banners/1275228253/1450703097
p731
aVhttps://pbs.twimg.com/profile_banners/3237401232/1454473444
p732
aVhttps://pbs.twimg.com/profile_banners/1058768474/1455121940
p733
aVhttps://pbs.twimg.com/profile_banners/2398803655/1450691841
p734
aVhttps://pbs.twimg.com/profile_banners/583816802/1449249822
p735
aVhttps://pbs.twimg.com/profile_banners/1951786886/1451109438
p736
aVhttps://pbs.twimg.com/profile_banners/175262772/1455121065
p737
aVhttps://pbs.twimg.com/profile_banners/47360358/1412730071
p738
aVhttps://pbs.twimg.com/profile_banners/325423526/1453061585
p739
aVhttps://pbs.twimg.com/profile_banners/2475139904/1449287613
p740
aVhttps://pbs.twimg.com/profile_banners/58658238/1450001485
p741
aVhttps://pbs.twimg.com/profile_banners/102742536/1454089593
p742
aVhttps://pbs.twimg.com/profile_banners/294260447/1454816523
p743
aVhttps://pbs.twimg.com/profile_banners/2728492621/1452809478
p744
aVhttps://pbs.twimg.com/profile_banners/2288625106/1431909548
p745
aVhttps://pbs.twimg.com/profile_banners/116502459/1452639205
p746
aVhttps://pbs.twimg.com/profile_banners/2700452249/1455375078
p747
aVhttps://pbs.twimg.com/profile_banners/323761529/1442769030
p748
aVhttps://pbs.twimg.com/profile_banners/947969479/1441787593
p749
aVhttps://pbs.twimg.com/profile_banners/528718571/1446139481
p750
aVhttps://pbs.twimg.com/profile_banners/2365650854/1453535863
p751
aVhttps://pbs.twimg.com/profile_banners/534816166/1430111329
p752
aVhttps://pbs.twimg.com/profile_banners/372253748/1453926020
p753
aVhttps://pbs.twimg.com/profile_banners/743650392/1446941654
p754
aVhttps://pbs.twimg.com/profile_banners/1532445512/1452152031
p755
aVhttps://pbs.twimg.com/profile_banners/596815797/1444762247
p756
aVhttps://pbs.twimg.com/profile_banners/237761113/1454092039
p757
aVhttps://pbs.twimg.com/profile_banners/237583991/1442800034
p758
aVhttps://pbs.twimg.com/profile_banners/58371299/1454873606
p759
aVhttps://pbs.twimg.com/profile_banners/178451002/1437152387
p760
aVhttps://pbs.twimg.com/profile_banners/1431569186/1455226842
p761
aVhttps://pbs.twimg.com/profile_banners/313005140/1454224155
p762
aVhttps://pbs.twimg.com/profile_banners/414387993/1449199058
p763
aVhttps://pbs.twimg.com/profile_banners/774072534/1450779875
p764
aVhttps://pbs.twimg.com/profile_banners/1030077144/1426910707
p765
aVhttps://pbs.twimg.com/profile_banners/2433935083/1453227808
p766
aVhttps://pbs.twimg.com/profile_banners/615496495/1455255049
p767
aVhttps://pbs.twimg.com/profile_banners/529000468/1412653873
p768
aVhttps://pbs.twimg.com/profile_banners/228161695/1380012561
p769
aVhttps://pbs.twimg.com/profile_banners/284729726/1449910202
p770
aVhttps://pbs.twimg.com/profile_banners/231998027/1452804763
p771
aVhttps://pbs.twimg.com/profile_banners/456441018/1454917333
p772
aVhttps://pbs.twimg.com/profile_banners/1163748396/1447896361
p773
aVhttps://pbs.twimg.com/profile_banners/519188392/1411857348
p774
aVhttps://pbs.twimg.com/profile_banners/2738490069/1455106586
p775
aVhttps://pbs.twimg.com/profile_banners/1258835191/1362988430
p776
aVhttps://pbs.twimg.com/profile_banners/2746476375/1443934761
p777
aVhttps://pbs.twimg.com/profile_banners/81188400/1433892241
p778
aVhttps://pbs.twimg.com/profile_banners/4182688875/1454257960
p779
aVhttps://pbs.twimg.com/profile_banners/2474822725/1450998783
p780
aVhttps://pbs.twimg.com/profile_banners/3186245743/1430831404
p781
aVhttps://pbs.twimg.com/profile_banners/899552364/1452359271
p782
aVhttps://pbs.twimg.com/profile_banners/2534527457/1399508723
p783
aVhttps://pbs.twimg.com/profile_banners/456213749/1454555442
p784
aVhttps://pbs.twimg.com/profile_banners/2266257393/1449784220
p785
aVhttps://pbs.twimg.com/profile_banners/1457168522/1445969814
p786
aVhttps://pbs.twimg.com/profile_banners/223676872/1436932433
p787
aVhttps://pbs.twimg.com/profile_banners/28937217/1441323546
p788
aVhttps://pbs.twimg.com/profile_banners/3377269882/1446633723
p789
aVhttps://pbs.twimg.com/profile_banners/2783212476/1454353429
p790
aVhttps://pbs.twimg.com/profile_banners/391373106/1454968758
p791
aVhttps://pbs.twimg.com/profile_banners/59924581/1449693698
p792
aVhttps://pbs.twimg.com/profile_banners/70737083/1454801187
p793
aVhttps://pbs.twimg.com/profile_banners/1639562412/1454765580
p794
aVhttps://pbs.twimg.com/profile_banners/4387411397/1455329118
p795
aVhttps://pbs.twimg.com/profile_banners/110171292/1435875519
p796
aVhttps://pbs.twimg.com/profile_banners/5864232/1441210696
p797
aVhttps://pbs.twimg.com/profile_banners/4184142071/1449311687
p798
aVhttps://pbs.twimg.com/profile_banners/1066226400/1454264667
p799
aVhttps://pbs.twimg.com/profile_banners/386937883/1385146135
p800
aVhttps://pbs.twimg.com/profile_banners/1493188736/1453146106
p801
aVhttps://pbs.twimg.com/profile_banners/842133128/1454560274
p802
aVhttps://pbs.twimg.com/profile_banners/84876654/1373468463
p803
aVhttps://pbs.twimg.com/profile_banners/4766766137/1452736718
p804
aVhttps://pbs.twimg.com/profile_banners/4115673755/1452042061
p805
aVhttps://pbs.twimg.com/profile_banners/185137017/1453476043
p806
aVhttps://pbs.twimg.com/profile_banners/3657820164/1449215849
p807
aVhttps://pbs.twimg.com/profile_banners/384425804/1449536368
p808
aVhttps://pbs.twimg.com/profile_banners/4652992454/1451253044
p809
aVhttps://pbs.twimg.com/profile_banners/552182799/1454862606
p810
aVhttps://pbs.twimg.com/profile_banners/2273702610/1454812943
p811
aVhttps://pbs.twimg.com/profile_banners/2920664727/1455037011
p812
aVhttps://pbs.twimg.com/profile_banners/4874292677/1455276703
p813
aVhttps://pbs.twimg.com/profile_banners/535495039/1441221397
p814
aVhttps://pbs.twimg.com/profile_banners/1686802520/1395171816
p815
aVhttps://pbs.twimg.com/profile_banners/203942956/1447609643
p816
aVhttps://pbs.twimg.com/profile_banners/299770189/1443464772
p817
aVhttps://pbs.twimg.com/profile_banners/2386579455/1455232337
p818
aVhttps://pbs.twimg.com/profile_banners/125878942/1449717370
p819
aVhttps://pbs.twimg.com/profile_banners/39996707/1451607611
p820
aVhttps://pbs.twimg.com/profile_banners/1454521056/1424238746
p821
aVhttps://pbs.twimg.com/profile_banners/543087723/1454975604
p822
aVhttps://pbs.twimg.com/profile_banners/795488576/1453035137
p823
aVhttps://pbs.twimg.com/profile_banners/1918827673/1380515642
p824
aVhttps://pbs.twimg.com/profile_banners/96336631/1454980133
p825
aVhttps://pbs.twimg.com/profile_banners/2983084240/1452898806
p826
aVhttps://pbs.twimg.com/profile_banners/593739845/1417308417
p827
aVhttps://pbs.twimg.com/profile_banners/111632245/1410190634
p828
aVhttps://pbs.twimg.com/profile_banners/405627015/1454695047
p829
aVhttps://pbs.twimg.com/profile_banners/184500953/1414569165
p830
aVhttps://pbs.twimg.com/profile_banners/3272284375/1436390287
p831
aVhttps://pbs.twimg.com/profile_banners/286345198/1452658444
p832
aVhttps://pbs.twimg.com/profile_banners/862804314/1414986247
p833
aVhttps://pbs.twimg.com/profile_banners/3038135702/1455176882
p834
aVhttps://pbs.twimg.com/profile_banners/3424452753/1455287016
p835
aVhttps://pbs.twimg.com/profile_banners/62254020/1361724844
p836
aVhttps://pbs.twimg.com/profile_banners/243366976/1442904969
p837
aVhttps://pbs.twimg.com/profile_banners/4858101978/1454581058
p838
aVhttps://pbs.twimg.com/profile_banners/3168258530/1433536165
p839
aVhttps://pbs.twimg.com/profile_banners/311631372/1416745919
p840
aVhttps://pbs.twimg.com/profile_banners/1407452384/1408974810
p841
aVhttps://pbs.twimg.com/profile_banners/862214718/1455340171
p842
aVhttps://pbs.twimg.com/profile_banners/2987905946/1444755032
p843
aVhttps://pbs.twimg.com/profile_banners/1894958731/1451760965
p844
aVhttps://pbs.twimg.com/profile_banners/113807719/1395558083
p845
aVhttps://pbs.twimg.com/profile_banners/2470186933/1454814984
p846
aVhttps://pbs.twimg.com/profile_banners/245817524/1356101601
p847
aVhttps://pbs.twimg.com/profile_banners/1445701933/1431126704
p848
aVhttps://pbs.twimg.com/profile_banners/149981362/1439076132
p849
aVhttps://pbs.twimg.com/profile_banners/2439532910/1437326670
p850
aVhttps://pbs.twimg.com/profile_banners/47234233/1452418877
p851
aVhttps://pbs.twimg.com/profile_banners/721743756/1368572469
p852
aVhttps://pbs.twimg.com/profile_banners/381856257/1449812772
p853
aVhttps://pbs.twimg.com/profile_banners/488842911/1426581357
p854
aVhttps://pbs.twimg.com/profile_banners/4134899025/1455374061
p855
aVhttps://pbs.twimg.com/profile_banners/1289704663/1437874659
p856
aVhttps://pbs.twimg.com/profile_banners/473882256/1454454089
p857
aVhttps://pbs.twimg.com/profile_banners/1938995756/1446940371
p858
aVhttps://pbs.twimg.com/profile_banners/2341026272/1449295104
p859
aVhttps://pbs.twimg.com/profile_banners/2351103054/1426377153
p860
aVhttps://pbs.twimg.com/profile_banners/773730930/1447475129
p861
aVhttps://pbs.twimg.com/profile_banners/378349646/1454834168
p862
aVhttps://pbs.twimg.com/profile_banners/1061701452/1453806497
p863
aVhttps://pbs.twimg.com/profile_banners/21428264/1373817140
p864
aVhttps://pbs.twimg.com/profile_banners/2669570028/1445093849
p865
aVhttps://pbs.twimg.com/profile_banners/58637506/1449435519
p866
aVhttps://pbs.twimg.com/profile_banners/4064224402/1454117225
p867
aVhttps://pbs.twimg.com/profile_banners/1614479018/1374558614
p868
aVhttps://pbs.twimg.com/profile_banners/4769300982/1455343288
p869
aVhttps://pbs.twimg.com/profile_banners/1300943809/1451268312
p870
aVhttps://pbs.twimg.com/profile_banners/292079164/1410893039
p871
aVhttps://pbs.twimg.com/profile_banners/2270804744/1433637187
p872
aVhttps://pbs.twimg.com/profile_banners/24474984/1449169320
p873
aVhttps://pbs.twimg.com/profile_banners/4006907113/1455264064
p874
aVhttps://pbs.twimg.com/profile_banners/3100233807/1426885505
p875
aVhttps://pbs.twimg.com/profile_banners/25555223/1395297447
p876
aVhttps://pbs.twimg.com/profile_banners/1222875848/1427683048
p877
aVhttps://pbs.twimg.com/profile_banners/143801949/1414551411
p878
aVhttps://pbs.twimg.com/profile_banners/211778012/1349760157
p879
aVhttps://pbs.twimg.com/profile_banners/428979873/1453356683
p880
aVhttps://pbs.twimg.com/profile_banners/569532175/1455247899
p881
aVhttps://pbs.twimg.com/profile_banners/4095051496/1450077827
p882
aVhttps://pbs.twimg.com/profile_banners/2752263809/1415735820
p883
aVhttps://pbs.twimg.com/profile_banners/281667638/1452321909
p884
aVhttps://pbs.twimg.com/profile_banners/474230482/1430942131
p885
aVhttps://pbs.twimg.com/profile_banners/2595885932/1412542334
p886
aVhttps://pbs.twimg.com/profile_banners/2884927311/1454631423
p887
aVhttps://pbs.twimg.com/profile_banners/722011406/1398451217
p888
aVhttps://pbs.twimg.com/profile_banners/2641974779/1423981608
p889
aVhttps://pbs.twimg.com/profile_banners/2753124690/1410104099
p890
aVhttps://pbs.twimg.com/profile_banners/533474275/1381223494
p891
aVhttps://pbs.twimg.com/profile_banners/595921203/1368147827
p892
aVhttps://pbs.twimg.com/profile_banners/4122846140/1453612445
p893
aVhttps://pbs.twimg.com/profile_banners/375448148/1393368711
p894
aVhttps://pbs.twimg.com/profile_banners/1574168924/1455318637
p895
aVhttps://pbs.twimg.com/profile_banners/402577103/1393368856
p896
aVhttps://pbs.twimg.com/profile_banners/245413159/1393369028
p897
aVhttps://pbs.twimg.com/profile_banners/371733970/1392659845
p898
aVhttps://pbs.twimg.com/profile_banners/352045104/1427838887
p899
aVhttps://pbs.twimg.com/profile_banners/166338771/1455070628
p900
aVhttps://pbs.twimg.com/profile_banners/28687359/1397548318
p901
aVhttps://pbs.twimg.com/profile_banners/360559943/1393369251
p902
aVhttps://pbs.twimg.com/profile_banners/869427390/1448644172
p903
aVhttps://pbs.twimg.com/profile_banners/365788506/1393369603
p904
aVhttps://pbs.twimg.com/profile_banners/243008042/1409909715
p905
aVhttps://pbs.twimg.com/profile_banners/3864467255/1455126675
p906
aVhttps://pbs.twimg.com/profile_banners/357435412/1393369813
p907
aVhttps://pbs.twimg.com/profile_banners/248480995/1454342818
p908
aVhttps://pbs.twimg.com/profile_banners/502276426/1450810140
p909
aVhttps://pbs.twimg.com/profile_banners/3277735424/1455024629
p910
aVhttps://pbs.twimg.com/profile_banners/2845190129/1450116239
p911
aVhttps://pbs.twimg.com/profile_banners/2307253314/1451666636
p912
aVhttps://pbs.twimg.com/profile_banners/299774695/1395864769
p913
aVhttps://pbs.twimg.com/profile_banners/4827833284/1454495354
p914
aVhttps://pbs.twimg.com/profile_banners/4827754887/1453671997
p915
aVhttps://pbs.twimg.com/profile_banners/3709458381/1454076532
p916
aVhttps://pbs.twimg.com/profile_banners/4819535901/1452990265
p917
aVhttps://pbs.twimg.com/profile_banners/442890607/1452781485
p918
aVhttps://pbs.twimg.com/profile_banners/3915348280/1444456113
p919
aVhttps://pbs.twimg.com/profile_banners/4827764349/1453247495
p920
aVhttps://pbs.twimg.com/profile_banners/4827737043/1453672683
p921
aVhttps://pbs.twimg.com/profile_banners/4827892642/1454495694
p922
aVhttps://pbs.twimg.com/profile_banners/1643374520/1390410267
p923
aVhttps://pbs.twimg.com/profile_banners/4827858617/1453671838
p924
aVhttps://pbs.twimg.com/profile_banners/4387168468/1455380574
p925
aVhttps://pbs.twimg.com/profile_banners/3077421879/1447210829
p926
aVhttps://pbs.twimg.com/profile_banners/71347695/1454019902
p927
aVhttps://pbs.twimg.com/profile_banners/1264182547/1452402210
p928
aVhttps://pbs.twimg.com/profile_banners/3122241242/1440949105
p929
aVhttps://pbs.twimg.com/profile_banners/2375796385/1444853901
p930
aVhttps://pbs.twimg.com/profile_banners/1431490843/1445742196
p931
aVhttps://pbs.twimg.com/profile_banners/24192872/1398170979
p932
aVhttps://pbs.twimg.com/profile_banners/2461637144/1398347491
p933
aVhttps://pbs.twimg.com/profile_banners/2550335894/1455074786
p934
aVhttps://pbs.twimg.com/profile_banners/1324690597/1442209660
p935
aVhttps://pbs.twimg.com/profile_banners/2342764929/1411584077
p936
aVhttps://pbs.twimg.com/profile_banners/2739651683/1454454721
p937
aVhttps://pbs.twimg.com/profile_banners/2941268409/1425172445
p938
aVhttps://pbs.twimg.com/profile_banners/2301736410/1454963943
p939
aVhttps://pbs.twimg.com/profile_banners/192027389/1407640439
p940
aVhttps://pbs.twimg.com/profile_banners/2891438374/1455147532
p941
aVhttps://pbs.twimg.com/profile_banners/726411842/1450771505
p942
aVhttps://pbs.twimg.com/profile_banners/252351846/1406345185
p943
aVhttps://pbs.twimg.com/profile_banners/2522973892/1454767454
p944
aVhttps://pbs.twimg.com/profile_banners/58058483/1413605803
p945
aVhttps://pbs.twimg.com/profile_banners/327628462/1455379160
p946
aVhttps://pbs.twimg.com/profile_banners/1101996180/1416593735
p947
aVhttps://pbs.twimg.com/profile_banners/358582090/1454734834
p948
aVhttps://pbs.twimg.com/profile_banners/312268825/1446067498
p949
aVhttps://pbs.twimg.com/profile_banners/1667042298/1439319168
p950
aVhttps://pbs.twimg.com/profile_banners/75214646/1384188513
p951
aVhttps://pbs.twimg.com/profile_banners/2610225337/1454723300
p952
aVhttps://pbs.twimg.com/profile_banners/2914005945/1418662735
p953
aVhttps://pbs.twimg.com/profile_banners/4882045703/1454785721
p954
aVhttps://pbs.twimg.com/profile_banners/109564022/1448870034
p955
aVhttps://pbs.twimg.com/profile_banners/2418979002/1396191210
p956
aVhttps://pbs.twimg.com/profile_banners/90816533/1453459488
p957
aVhttps://pbs.twimg.com/profile_banners/1552641673/1440761458
p958
aVhttps://pbs.twimg.com/profile_banners/4899872209/1455330839
p959
aVhttps://pbs.twimg.com/profile_banners/4600796363/1451053716
p960
aVhttps://pbs.twimg.com/profile_banners/4714833896/1452075478
p961
aVhttps://pbs.twimg.com/profile_banners/462701082/1453111252
p962
aVhttps://pbs.twimg.com/profile_banners/212492760/1450921555
p963
aVhttps://pbs.twimg.com/profile_banners/315496559/1395252939
p964
aVhttps://pbs.twimg.com/profile_banners/2885294074/1452157349
p965
aVhttps://pbs.twimg.com/profile_banners/2513861556/1420427254
p966
aVhttps://pbs.twimg.com/profile_banners/1687062295/1377048323
p967
aVhttps://pbs.twimg.com/profile_banners/430296919/1455248475
p968
aVhttps://pbs.twimg.com/profile_banners/3602902047/1454980100
p969
aVhttps://pbs.twimg.com/profile_banners/2899300279/1443609472
p970
aVhttps://pbs.twimg.com/profile_banners/576770147/1455214433
p971
aVhttps://pbs.twimg.com/profile_banners/51858758/1455327707
p972
aVhttps://pbs.twimg.com/profile_banners/3713644340/1443435720
p973
aVhttps://pbs.twimg.com/profile_banners/805735332/1452533356
p974
aVhttps://pbs.twimg.com/profile_banners/441214858/1417981556
p975
aVhttps://pbs.twimg.com/profile_banners/864584708/1421993463
p976
aVhttps://pbs.twimg.com/profile_banners/260710193/1449856947
p977
aVhttps://pbs.twimg.com/profile_banners/1641446305/1448796115
p978
aVhttps://pbs.twimg.com/profile_banners/3436876572/1441284901
p979
aVhttps://pbs.twimg.com/profile_banners/860819376/1439007893
p980
aVhttps://pbs.twimg.com/profile_banners/1667074632/1435850964
p981
aVhttps://pbs.twimg.com/profile_banners/2814630924/1432213633
p982
aVhttps://pbs.twimg.com/profile_banners/417315339/1452570703
p983
aVhttps://pbs.twimg.com/profile_banners/229415190/1455294666
p984
aVhttps://pbs.twimg.com/profile_banners/4901770286/1455365855
p985
aVhttps://pbs.twimg.com/profile_banners/3760687289/1450015020
p986
aVhttps://pbs.twimg.com/profile_banners/3273789206/1454911109
p987
aVhttps://pbs.twimg.com/profile_banners/332635156/1453175466
p988
aVhttps://pbs.twimg.com/profile_banners/232072413/1453803431
p989
aVhttps://pbs.twimg.com/profile_banners/402304894/1454199229
p990
aVhttps://pbs.twimg.com/profile_banners/3435698121/1454362548
p991
aVhttps://pbs.twimg.com/profile_banners/543065017/1452230025
p992
aVhttps://pbs.twimg.com/profile_banners/1259840887/1455298988
p993
aVhttps://pbs.twimg.com/profile_banners/3319349824/1454803760
p994
aVhttps://pbs.twimg.com/profile_banners/553473858/1453042397
p995
aVhttps://pbs.twimg.com/profile_banners/4904924129/1455374660
p996
aVhttps://pbs.twimg.com/profile_banners/2150428504/1455327582
p997
aVhttps://pbs.twimg.com/profile_banners/3418190669/1442346059
p998
aVhttps://pbs.twimg.com/profile_banners/152197567/1445684136
p999
aVhttps://pbs.twimg.com/profile_banners/2920259580/1454309901
p1000
aVhttps://pbs.twimg.com/profile_banners/34842246/1454552545
p1001
aVhttps://pbs.twimg.com/profile_banners/53177469/1428724434
p1002
aVhttps://pbs.twimg.com/profile_banners/607150831/1443382381
p1003
aVhttps://pbs.twimg.com/profile_banners/2879954334/1455232927
p1004
aVhttps://pbs.twimg.com/profile_banners/4308502513/1448101123
p1005
aVhttps://pbs.twimg.com/profile_banners/2553944569/1438716794
p1006
aVhttps://pbs.twimg.com/profile_banners/185402608/1408398847
p1007
aVhttps://pbs.twimg.com/profile_banners/1095261168/1455376859
p1008
aVhttps://pbs.twimg.com/profile_banners/4359134653/1451655835
p1009
aVhttps://pbs.twimg.com/profile_banners/707761544/1454953776
p1010
aVhttps://pbs.twimg.com/profile_banners/2534935896/1455377978
p1011
aVhttps://pbs.twimg.com/profile_banners/138536728/1428501525
p1012
aVhttps://pbs.twimg.com/profile_banners/4312012639/1448145679
p1013
aVhttps://pbs.twimg.com/profile_banners/988044888/1452468136
p1014
aVhttps://pbs.twimg.com/profile_banners/356730188/1448982691
p1015
aVhttps://pbs.twimg.com/profile_banners/304206153/1455379007
p1016
aVhttps://pbs.twimg.com/profile_banners/823389432/1421255856
p1017
aVhttps://pbs.twimg.com/profile_banners/331690621/1444140777
p1018
aVhttps://pbs.twimg.com/profile_banners/264946583/1432592021
p1019
aVhttps://pbs.twimg.com/profile_banners/4317237133/1448150229
p1020
aVhttps://pbs.twimg.com/profile_banners/414434319/1407503415
p1021
aVhttps://pbs.twimg.com/profile_banners/4746189727/1455155436
p1022
aVhttps://pbs.twimg.com/profile_banners/284874746/1454590156
p1023
aVhttps://pbs.twimg.com/profile_banners/1351760390/1455204421
p1024
aVhttps://pbs.twimg.com/profile_banners/2874609322/1453168957
p1025
aVhttps://pbs.twimg.com/profile_banners/22970986/1369240038
p1026
aVhttps://pbs.twimg.com/profile_banners/69632079/1403716943
p1027
aVhttps://pbs.twimg.com/profile_banners/232120463/1453154144
p1028
aVhttps://pbs.twimg.com/profile_banners/1958049475/1436212830
p1029
aVhttps://pbs.twimg.com/profile_banners/2494634653/1453058090
p1030
aVhttps://pbs.twimg.com/profile_banners/326229321/1450841758
p1031
aVhttps://pbs.twimg.com/profile_banners/1248713599/1453612182
p1032
aVhttps://pbs.twimg.com/profile_banners/2388709394/1454850487
p1033
aVhttps://pbs.twimg.com/profile_banners/3121576063/1433281933
p1034
aVhttps://pbs.twimg.com/profile_banners/1638945278/1448675511
p1035
aVhttps://pbs.twimg.com/profile_banners/813654746/1453496363
p1036
aVhttps://pbs.twimg.com/profile_banners/152133436/1376987228
p1037
aVhttps://pbs.twimg.com/profile_banners/724773546/1453011624
p1038
aVhttps://pbs.twimg.com/profile_banners/2998446600/1422371424
p1039
aVhttps://pbs.twimg.com/profile_banners/386329939/1401202324
p1040
aVhttps://pbs.twimg.com/profile_banners/2349056336/1453921228
p1041
aVhttps://pbs.twimg.com/profile_banners/1485290863/1411739129
p1042
aVhttps://pbs.twimg.com/profile_banners/2557761708/1454735154
p1043
aVhttps://pbs.twimg.com/profile_banners/1319908298/1440202647
p1044
aVhttps://pbs.twimg.com/profile_banners/30696051/1403451170
p1045
aVhttps://pbs.twimg.com/profile_banners/3309169728/1455373936
p1046
aVhttps://pbs.twimg.com/profile_banners/2772337830/1454793928
p1047
aVhttps://pbs.twimg.com/profile_banners/2376282929/1444353561
p1048
aVhttps://pbs.twimg.com/profile_banners/144964221/1455344092
p1049
aVhttps://pbs.twimg.com/profile_banners/473394087/1429192821
p1050
aVhttps://pbs.twimg.com/profile_banners/706569569/1452299122
p1051
aVhttps://pbs.twimg.com/profile_banners/357603016/1449611014
p1052
aVhttps://pbs.twimg.com/profile_banners/141604521/1454880169
p1053
aVhttps://pbs.twimg.com/profile_banners/2375226320/1455334482
p1054
aVhttps://pbs.twimg.com/profile_banners/1719558422/1387588948
p1055
aVhttps://pbs.twimg.com/profile_banners/1071953580/1434932028
p1056
aVhttps://pbs.twimg.com/profile_banners/304116460/1382327516
p1057
aVhttps://pbs.twimg.com/profile_banners/759825523/1433897097
p1058
aVhttps://pbs.twimg.com/profile_banners/1205909065/1453902478
p1059
aVhttps://pbs.twimg.com/profile_banners/20464905/1453023210
p1060
aVhttps://pbs.twimg.com/profile_banners/2959981113/1420368056
p1061
aVhttps://pbs.twimg.com/profile_banners/128641320/1436130814
p1062
aVhttps://pbs.twimg.com/profile_banners/1067084502/1453784472
p1063
aVhttps://pbs.twimg.com/profile_banners/3321959737/1454970816
p1064
aVhttps://pbs.twimg.com/profile_banners/1388804208/1453606388
p1065
aVhttps://pbs.twimg.com/profile_banners/2335705214/1452529516
p1066
aVhttps://pbs.twimg.com/profile_banners/4316924958/1448149930
p1067
aVhttps://pbs.twimg.com/profile_banners/91755022/1443293284
p1068
aVhttps://pbs.twimg.com/profile_banners/637069461/1439206444
p1069
aVhttps://pbs.twimg.com/profile_banners/369113573/1433707112
p1070
aVhttps://pbs.twimg.com/profile_banners/2205433820/1433953541
p1071
aVhttps://pbs.twimg.com/profile_banners/2553701810/1453772981
p1072
aVhttps://pbs.twimg.com/profile_banners/401307247/1453598884
p1073
aVhttps://pbs.twimg.com/profile_banners/20602057/1445058077
p1074
aVhttps://pbs.twimg.com/profile_banners/428328096/1441467053
p1075
aVhttps://pbs.twimg.com/profile_banners/4330915632/1450172166
p1076
aVhttps://pbs.twimg.com/profile_banners/148886933/1414339462
p1077
aVhttps://pbs.twimg.com/profile_banners/276513793/1453034903
p1078
aVhttps://pbs.twimg.com/profile_banners/3008406956/1454298124
p1079
aVhttps://pbs.twimg.com/profile_banners/4900806331/1455350559
p1080
aVhttps://pbs.twimg.com/profile_banners/35020612/1423972720
p1081
aVhttps://pbs.twimg.com/profile_banners/1929850027/1452081391
p1082
aVhttps://pbs.twimg.com/profile_banners/27257780/1430775221
p1083
aVhttps://pbs.twimg.com/profile_banners/242112847/1447818791
p1084
aVhttps://pbs.twimg.com/profile_banners/4843960348/1453684533
p1085
aVhttps://pbs.twimg.com/profile_banners/1099290475/1446498538
p1086
aVhttps://pbs.twimg.com/profile_banners/3180029540/1446130828
p1087
aVhttps://pbs.twimg.com/profile_banners/166156539/1362254875
p1088
aVhttps://pbs.twimg.com/profile_banners/474552123/1453858518
p1089
aVhttps://pbs.twimg.com/profile_banners/245651582/1452957794
p1090
aVhttps://pbs.twimg.com/profile_banners/578214222/1454834512
p1091
aVhttps://pbs.twimg.com/profile_banners/3309997664/1455109003
p1092
aVhttps://pbs.twimg.com/profile_banners/755481163/1448516312
p1093
aVhttps://pbs.twimg.com/profile_banners/414230175/1434258136
p1094
aVhttps://pbs.twimg.com/profile_banners/77068784/1431286158
p1095
aVhttps://pbs.twimg.com/profile_banners/2905557385/1455237311
p1096
aVhttps://pbs.twimg.com/profile_banners/1246020942/1454329072
p1097
aVhttps://pbs.twimg.com/profile_banners/3229673215/1455375426
p1098
aVhttps://pbs.twimg.com/profile_banners/2844509350/1454032420
p1099
aVhttps://pbs.twimg.com/profile_banners/2768814384/1454726913
p1100
aVhttps://pbs.twimg.com/profile_banners/3383993669/1437368629
p1101
aVhttps://pbs.twimg.com/profile_banners/3286956613/1455144920
p1102
aVhttps://pbs.twimg.com/profile_banners/326872717/1449255972
p1103
aVhttps://pbs.twimg.com/profile_banners/613107581/1455379303
p1104
aVhttps://pbs.twimg.com/profile_banners/1248897325/1454762455
p1105
aVhttps://pbs.twimg.com/profile_banners/809735383/1438171982
p1106
aVhttps://pbs.twimg.com/profile_banners/2837315586/1453087555
p1107
aVhttps://pbs.twimg.com/profile_banners/17920055/1434598188
p1108
aVhttps://pbs.twimg.com/profile_banners/49431169/1453078552
p1109
aVhttps://pbs.twimg.com/profile_banners/493448796/1454939314
p1110
aVhttps://pbs.twimg.com/profile_banners/536153560/1385893113
p1111
aVhttps://pbs.twimg.com/profile_banners/2794713094/1452788178
p1112
aVhttps://pbs.twimg.com/profile_banners/4226259793/1454087140
p1113
aVhttps://pbs.twimg.com/profile_banners/245693197/1454935980
p1114
aVhttps://pbs.twimg.com/profile_banners/4866309929/1454286960
p1115
aVhttps://pbs.twimg.com/profile_banners/2767616165/1451108763
p1116
aVhttps://pbs.twimg.com/profile_banners/900661734/1439321672
p1117
aVhttps://pbs.twimg.com/profile_banners/911044968/1377823041
p1118
aVhttps://pbs.twimg.com/profile_banners/453176496/1389262525
p1119
aVhttps://pbs.twimg.com/profile_banners/372951272/1445654425
p1120
aVhttps://pbs.twimg.com/profile_banners/25511532/1447944816
p1121
aVhttps://pbs.twimg.com/profile_banners/2666762066/1452964464
p1122
aVhttps://pbs.twimg.com/profile_banners/1151823614/1452386619
p1123
aVhttps://pbs.twimg.com/profile_banners/1506401004/1405979740
p1124
aVhttps://pbs.twimg.com/profile_banners/1250306246/1401557562
p1125
aVhttps://pbs.twimg.com/profile_banners/2477262012/1455069340
p1126
aVhttps://pbs.twimg.com/profile_banners/617442479/1453418036
p1127
aVhttps://pbs.twimg.com/profile_banners/3980737280/1454760751
p1128
aVhttps://pbs.twimg.com/profile_banners/4343970315/1454803445
p1129
aVhttps://pbs.twimg.com/profile_banners/331373731/1455288296
p1130
aVhttps://pbs.twimg.com/profile_banners/2559901489/1453430375
p1131
aVhttps://pbs.twimg.com/profile_banners/390784341/1404263570
p1132
aVhttps://pbs.twimg.com/profile_banners/295995539/1453267023
p1133
aVhttps://pbs.twimg.com/profile_banners/1408947446/1439179017
p1134
aVhttps://pbs.twimg.com/profile_banners/482798005/1445337711
p1135
aVhttps://pbs.twimg.com/profile_banners/235944992/1455202468
p1136
aVhttps://pbs.twimg.com/profile_banners/2888235213/1450703122
p1137
aVhttps://pbs.twimg.com/profile_banners/223016496/1443491053
p1138
aVhttps://pbs.twimg.com/profile_banners/25907073/1404842911
p1139
aVhttps://pbs.twimg.com/profile_banners/13748562/1454552725
p1140
aVhttps://pbs.twimg.com/profile_banners/31054198/1397358908
p1141
aVhttps://pbs.twimg.com/profile_banners/1340863165/1455163420
p1142
aVhttps://pbs.twimg.com/profile_banners/4468392340/1449996183
p1143
aVhttps://pbs.twimg.com/profile_banners/492242224/1452784522
p1144
aVhttps://pbs.twimg.com/profile_banners/254829302/1453211522
p1145
aVhttps://pbs.twimg.com/profile_banners/293807083/1454701114
p1146
aVhttps://pbs.twimg.com/profile_banners/77783391/1414295977
p1147
aVhttps://pbs.twimg.com/profile_banners/381908139/1454374442
p1148
aVhttps://pbs.twimg.com/profile_banners/3314062490/1453861741
p1149
aVhttps://pbs.twimg.com/profile_banners/161010031/1446427823
p1150
aVhttps://pbs.twimg.com/profile_banners/282885125/1454796918
p1151
aVhttps://pbs.twimg.com/profile_banners/506463742/1448764055
p1152
aVhttps://pbs.twimg.com/profile_banners/1216502281/1455152874
p1153
aVhttps://pbs.twimg.com/profile_banners/2859850785/1454865162
p1154
aVhttps://pbs.twimg.com/profile_banners/487948412/1444680783
p1155
aVhttps://pbs.twimg.com/profile_banners/213447099/1444785495
p1156
aVhttps://pbs.twimg.com/profile_banners/382287231/1432215180
p1157
aVhttps://pbs.twimg.com/profile_banners/4847031430/1454360730
p1158
aVhttps://pbs.twimg.com/profile_banners/2796177769/1454298075
p1159
aVhttps://pbs.twimg.com/profile_banners/1265458308/1455321765
p1160
aVhttps://pbs.twimg.com/profile_banners/270273054/1453263425
p1161
aVhttps://pbs.twimg.com/profile_banners/1120696100/1453230860
p1162
aVhttps://pbs.twimg.com/profile_banners/34722591/1367033741
p1163
aVhttps://pbs.twimg.com/profile_banners/30662762/1442954105
p1164
aVhttps://pbs.twimg.com/profile_banners/4516725142/1452999317
p1165
aVhttps://pbs.twimg.com/profile_banners/332739521/1450812630
p1166
aVhttps://pbs.twimg.com/profile_banners/720132902/1452451296
p1167
aVhttps://pbs.twimg.com/profile_banners/2910668551/1452320170
p1168
aVhttps://pbs.twimg.com/profile_banners/408101514/1453062158
p1169
aVhttps://pbs.twimg.com/profile_banners/259021769/1454212373
p1170
aVhttps://pbs.twimg.com/profile_banners/754354884/1455373523
p1171
aVhttps://pbs.twimg.com/profile_banners/2370349647/1451149082
p1172
aVhttps://pbs.twimg.com/profile_banners/2253277127/1455159065
p1173
aVhttps://pbs.twimg.com/profile_banners/1935904284/1455322807
p1174
aVhttps://pbs.twimg.com/profile_banners/2967679887/1455253184
p1175
aVhttps://pbs.twimg.com/profile_banners/3138999332/1448288123
p1176
aVhttps://pbs.twimg.com/profile_banners/537500812/1455294553
p1177
aVhttps://pbs.twimg.com/profile_banners/64105339/1412451839
p1178
aVhttps://pbs.twimg.com/profile_banners/58177344/1359393416
p1179
aVhttps://pbs.twimg.com/profile_banners/45016924/1407850391
p1180
aVhttps://pbs.twimg.com/profile_banners/4746869266/1454388483
p1181
aVhttps://pbs.twimg.com/profile_banners/3345544516/1454982548
p1182
aVhttps://pbs.twimg.com/profile_banners/1849064881/1453653963
p1183
aVhttps://pbs.twimg.com/profile_banners/1014997884/1451113677
p1184
aVhttps://pbs.twimg.com/profile_banners/47524146/1369935321
p1185
aVhttps://pbs.twimg.com/profile_banners/210825597/1455309343
p1186
aVhttps://pbs.twimg.com/profile_banners/2940302601/1455249643
p1187
aVhttps://pbs.twimg.com/profile_banners/803927472/1451589711
p1188
aVhttps://pbs.twimg.com/profile_banners/195254854/1455349024
p1189
aVhttps://pbs.twimg.com/profile_banners/2467849340/1454776589
p1190
aVhttps://pbs.twimg.com/profile_banners/4471090347/1454669781
p1191
aVhttps://pbs.twimg.com/profile_banners/4862352821/1455162332
p1192
aVhttps://pbs.twimg.com/profile_banners/4687336200/1451634752
p1193
aVhttps://pbs.twimg.com/profile_banners/139890168/1454021145
p1194
aVhttps://pbs.twimg.com/profile_banners/54381400/1407249889
p1195
aVhttps://pbs.twimg.com/profile_banners/33591359/1453148206
p1196
aVhttps://pbs.twimg.com/profile_banners/578561908/1455286144
p1197
aVhttps://pbs.twimg.com/profile_banners/349075477/1423858135
p1198
aVhttps://pbs.twimg.com/profile_banners/2960827492/1447961474
p1199
aVhttps://pbs.twimg.com/profile_banners/322547556/1455263146
p1200
aVhttps://pbs.twimg.com/profile_banners/143211122/1454342294
p1201
aVhttps://pbs.twimg.com/profile_banners/38196631/1357063955
p1202
aVhttps://pbs.twimg.com/profile_banners/397524563/1455377390
p1203
aVhttps://pbs.twimg.com/profile_banners/28663631/1421268135
p1204
aVhttps://pbs.twimg.com/profile_banners/450727691/1453957435
p1205
aVhttps://pbs.twimg.com/profile_banners/212840505/1348981038
p1206
aVhttps://pbs.twimg.com/profile_banners/2892988824/1449972095
p1207
aVhttps://pbs.twimg.com/profile_banners/3306226241/1451326242
p1208
aVhttps://pbs.twimg.com/profile_banners/367465170/1445357567
p1209
aVhttps://pbs.twimg.com/profile_banners/240941917/1368260875
p1210
aVhttps://pbs.twimg.com/profile_banners/554506595/1394916008
p1211
aVhttps://pbs.twimg.com/profile_banners/489756299/1434058260
p1212
aVhttps://pbs.twimg.com/profile_banners/628974330/1453494421
p1213
aVhttps://pbs.twimg.com/profile_banners/4188908780/1448956374
p1214
aVhttps://pbs.twimg.com/profile_banners/3041409234/1453903205
p1215
aVhttps://pbs.twimg.com/profile_banners/66546898/1398473051
p1216
aVhttps://pbs.twimg.com/profile_banners/3111867615/1454089547
p1217
aVhttps://pbs.twimg.com/profile_banners/830194314/1447190570
p1218
aVhttps://pbs.twimg.com/profile_banners/186822322/1452097129
p1219
aVhttps://pbs.twimg.com/profile_banners/237284687/1453948217
p1220
aVhttps://pbs.twimg.com/profile_banners/1146734599/1455158587
p1221
aVhttps://pbs.twimg.com/profile_banners/2937555354/1451755941
p1222
aVhttps://pbs.twimg.com/profile_banners/2919673498/1454820034
p1223
aVhttps://pbs.twimg.com/profile_banners/2979432862/1452915364
p1224
aVhttps://pbs.twimg.com/profile_banners/4477267467/1455353084
p1225
aVhttps://pbs.twimg.com/profile_banners/1506872682/1455206510
p1226
aVhttps://pbs.twimg.com/profile_banners/218310054/1412645041
p1227
aVhttps://pbs.twimg.com/profile_banners/236599592/1455306433
p1228
aVhttps://pbs.twimg.com/profile_banners/3273461641/1453830358
p1229
aVhttps://pbs.twimg.com/profile_banners/351536170/1407870752
p1230
aVhttps://pbs.twimg.com/profile_banners/2385300655/1398770349
p1231
aVhttps://pbs.twimg.com/profile_banners/2757161080/1452708772
p1232
aVhttps://pbs.twimg.com/profile_banners/395575785/1455122494
p1233
aVhttps://pbs.twimg.com/profile_banners/1279086366/1453837731
p1234
aVhttps://pbs.twimg.com/profile_banners/2871841594/1448882608
p1235
aVhttps://pbs.twimg.com/profile_banners/831245922/1357945146
p1236
aVhttps://pbs.twimg.com/profile_banners/2997283178/1451895641
p1237
aVhttps://pbs.twimg.com/profile_banners/80187373/1451189395
p1238
aVhttps://pbs.twimg.com/profile_banners/548279589/1454125673
p1239
aVhttps://pbs.twimg.com/profile_banners/2510347272/1443050770
p1240
aVhttps://pbs.twimg.com/profile_banners/25539533/1452005998
p1241
aVhttps://pbs.twimg.com/profile_banners/30505194/1405645532
p1242
aVhttps://pbs.twimg.com/profile_banners/2456272552/1455144940
p1243
aVhttps://pbs.twimg.com/profile_banners/77418559/1442220087
p1244
aVhttps://pbs.twimg.com/profile_banners/285994024/1455362871
p1245
aVhttps://pbs.twimg.com/profile_banners/236073652/1454820542
p1246
aVhttps://pbs.twimg.com/profile_banners/2370961256/1453657694
p1247
aVhttps://pbs.twimg.com/profile_banners/14358172/1447438734
p1248
aVhttps://pbs.twimg.com/profile_banners/327041632/1446164827
p1249
aVhttps://pbs.twimg.com/profile_banners/399228983/1446027885
p1250
aVhttps://pbs.twimg.com/profile_banners/2231098612/1433121351
p1251
aVhttps://pbs.twimg.com/profile_banners/702154624/1452775210
p1252
aVhttps://pbs.twimg.com/profile_banners/286036893/1454621126
p1253
aVhttps://pbs.twimg.com/profile_banners/3311242025/1455301349
p1254
aVhttps://pbs.twimg.com/profile_banners/2425208690/1443799475
p1255
aVhttps://pbs.twimg.com/profile_banners/1632250902/1451622047
p1256
aVhttps://pbs.twimg.com/profile_banners/296289865/1447965873
p1257
aVhttps://pbs.twimg.com/profile_banners/2178508201/1451688029
p1258
aVhttps://pbs.twimg.com/profile_banners/172574065/1444536994
p1259
aVhttps://pbs.twimg.com/profile_banners/2744866343/1453916855
p1260
aVhttps://pbs.twimg.com/profile_banners/18102428/1407620886
p1261
aVhttps://pbs.twimg.com/profile_banners/215816839/1440513758
p1262
aVhttps://pbs.twimg.com/profile_banners/3372635255/1436724677
p1263
aVhttps://pbs.twimg.com/profile_banners/3131099998/1454605371
p1264
aVhttps://pbs.twimg.com/profile_banners/3018627057/1431355995
p1265
aVhttps://pbs.twimg.com/profile_banners/135702229/1455201770
p1266
aVhttps://pbs.twimg.com/profile_banners/222911872/1454792690
p1267
aVhttps://pbs.twimg.com/profile_banners/447348308/1451826249
p1268
aVhttps://pbs.twimg.com/profile_banners/612693122/1454978490
p1269
aVhttps://pbs.twimg.com/profile_banners/1092230527/1439611477
p1270
aVhttps://pbs.twimg.com/profile_banners/636282390/1454928621
p1271
aVhttps://pbs.twimg.com/profile_banners/160694233/1406152421
p1272
aVhttps://pbs.twimg.com/profile_banners/274511071/1454120621
p1273
aVhttps://pbs.twimg.com/profile_banners/1648060849/1450730970
p1274
aVhttps://pbs.twimg.com/profile_banners/4483002743/1453067344
p1275
aVhttps://pbs.twimg.com/profile_banners/258488744/1447460216
p1276
aVhttps://pbs.twimg.com/profile_banners/135302957/1454513339
p1277
aVhttps://pbs.twimg.com/profile_banners/3191215190/1453890956
p1278
aVhttps://pbs.twimg.com/profile_banners/2346010378/1421087194
p1279
aVhttps://pbs.twimg.com/profile_banners/2194471282/1455208839
p1280
aVhttps://pbs.twimg.com/profile_banners/1096465837/1454865402
p1281
aVhttps://pbs.twimg.com/profile_banners/499704187/1454782442
p1282
aVhttps://pbs.twimg.com/profile_banners/3116648371/1449190494
p1283
aVhttps://pbs.twimg.com/profile_banners/909824910/1355935521
p1284
aVhttps://pbs.twimg.com/profile_banners/141045345/1402244005
p1285
aVhttps://pbs.twimg.com/profile_banners/211576591/1454911707
p1286
aVhttps://pbs.twimg.com/profile_banners/4537659080/1455161745
p1287
aVhttps://pbs.twimg.com/profile_banners/2391843452/1444426464
p1288
aVhttps://pbs.twimg.com/profile_banners/396296995/1396679620
p1289
aVhttps://pbs.twimg.com/profile_banners/22110909/1380218407
p1290
aVhttps://pbs.twimg.com/profile_banners/567448773/1451143500
p1291
aVhttps://pbs.twimg.com/profile_banners/319796232/1450560434
p1292
aVhttps://pbs.twimg.com/profile_banners/201223437/1411914937
p1293
aVhttps://pbs.twimg.com/profile_banners/344670307/1406832774
p1294
aVhttps://pbs.twimg.com/profile_banners/500937059/1455169010
p1295
aVhttps://pbs.twimg.com/profile_banners/3981084927/1454291278
p1296
aVhttps://pbs.twimg.com/profile_banners/109338661/1437243434
p1297
aVhttps://pbs.twimg.com/profile_banners/34976025/1453843364
p1298
aVhttps://pbs.twimg.com/profile_banners/239167433/1397755262
p1299
aVhttps://pbs.twimg.com/profile_banners/625660406/1441574920
p1300
aVhttps://pbs.twimg.com/profile_banners/3464845401/1454425111
p1301
aVhttps://pbs.twimg.com/profile_banners/3297538088/1454426421
p1302
aVhttps://pbs.twimg.com/profile_banners/320480908/1454373834
p1303
aVhttps://pbs.twimg.com/profile_banners/466132594/1455309772
p1304
aVhttps://pbs.twimg.com/profile_banners/134978456/1455222349
p1305
aVhttps://pbs.twimg.com/profile_banners/2733834070/1452909876
p1306
aVhttps://pbs.twimg.com/profile_banners/124602789/1455084037
p1307
aVhttps://pbs.twimg.com/profile_banners/460326327/1396877353
p1308
aVhttps://pbs.twimg.com/profile_banners/1358357180/1443060605
p1309
aVhttps://pbs.twimg.com/profile_banners/958906368/1455062491
p1310
aVhttps://pbs.twimg.com/profile_banners/1057280406/1455157976
p1311
aVhttps://pbs.twimg.com/profile_banners/15985292/1451172037
p1312
aVhttps://pbs.twimg.com/profile_banners/1022808266/1445730004
p1313
aVhttps://pbs.twimg.com/profile_banners/44439674/1415328515
p1314
aVhttps://pbs.twimg.com/profile_banners/585807974/1434340095
p1315
aVhttps://pbs.twimg.com/profile_banners/1630217444/1453890707
p1316
aVhttps://pbs.twimg.com/profile_banners/427967334/1424640267
p1317
aVhttps://pbs.twimg.com/profile_banners/1192581806/1361179441
p1318
aVhttps://pbs.twimg.com/profile_banners/2541020404/1455202492
p1319
aVhttps://pbs.twimg.com/profile_banners/238485696/1448554234
p1320
aVhttps://pbs.twimg.com/profile_banners/1169980310/1454798440
p1321
aVhttps://pbs.twimg.com/profile_banners/221925294/1453778159
p1322
aVhttps://pbs.twimg.com/profile_banners/2895126156/1447875070
p1323
aVhttps://pbs.twimg.com/profile_banners/4808969518/1452820083
p1324
aVhttps://pbs.twimg.com/profile_banners/358052264/1453397514
p1325
aVhttps://pbs.twimg.com/profile_banners/353294341/1452292435
p1326
aVhttps://pbs.twimg.com/profile_banners/268513190/1431776083
p1327
aVhttps://pbs.twimg.com/profile_banners/37534585/1439972139
p1328
aVhttps://pbs.twimg.com/profile_banners/448421228/1454910067
p1329
aVhttps://pbs.twimg.com/profile_banners/1096873560/1453379905
p1330
aVhttps://pbs.twimg.com/profile_banners/799653806/1420821035
p1331
aVhttps://pbs.twimg.com/profile_banners/2984939656/1448605396
p1332
aVhttps://pbs.twimg.com/profile_banners/1661903731/1396551216
p1333
aVhttps://pbs.twimg.com/profile_banners/1578095880/1373410920
p1334
aVhttps://pbs.twimg.com/profile_banners/3064162966/1424992917
p1335
aVhttps://pbs.twimg.com/profile_banners/3580905196/1454806606
p1336
aVhttps://pbs.twimg.com/profile_banners/455999421/1453729554
p1337
aVhttps://pbs.twimg.com/profile_banners/3091032342/1426541155
p1338
aVhttps://pbs.twimg.com/profile_banners/425664433/1448864891
p1339
aVhttps://pbs.twimg.com/profile_banners/37632713/1371160370
p1340
aVhttps://pbs.twimg.com/profile_banners/3108868250/1452486418
p1341
aVhttps://pbs.twimg.com/profile_banners/1529390766/1455058609
p1342
aVhttps://pbs.twimg.com/profile_banners/431171274/1454827564
p1343
aVhttps://pbs.twimg.com/profile_banners/2426053751/1455369578
p1344
aVhttps://pbs.twimg.com/profile_banners/1331981646/1429749753
p1345
aVhttps://pbs.twimg.com/profile_banners/566250499/1452380511
p1346
aVhttps://pbs.twimg.com/profile_banners/2257315392/1427151587
p1347
aVhttps://pbs.twimg.com/profile_banners/514795403/1451137706
p1348
aVhttps://pbs.twimg.com/profile_banners/2889385550/1438377810
p1349
aVhttps://pbs.twimg.com/profile_banners/26678641/1420773318
p1350
aVhttps://pbs.twimg.com/profile_banners/85153957/1454519122
p1351
aVhttps://pbs.twimg.com/profile_banners/711783890/1454494282
p1352
aVhttps://pbs.twimg.com/profile_banners/2694203209/1455142988
p1353
aVhttps://pbs.twimg.com/profile_banners/138920068/1454883000
p1354
aVhttps://pbs.twimg.com/profile_banners/3421114973/1445861463
p1355
aVhttps://pbs.twimg.com/profile_banners/2458090176/1398171295
p1356
aVhttps://pbs.twimg.com/profile_banners/1175094656/1455243067
p1357
aVhttps://pbs.twimg.com/profile_banners/2455483540/1396459458
p1358
aVhttps://pbs.twimg.com/profile_banners/525559791/1454560362
p1359
aVhttps://pbs.twimg.com/profile_banners/1649099090/1455318614
p1360
aVhttps://pbs.twimg.com/profile_banners/711806439/1454982403
p1361
aVhttps://pbs.twimg.com/profile_banners/2914417369/1443278089
p1362
aVhttps://pbs.twimg.com/profile_banners/281670695/1378369004
p1363
aVhttps://pbs.twimg.com/profile_banners/1085067990/1455333676
p1364
aVhttps://pbs.twimg.com/profile_banners/3339516072/1453052538
p1365
aVhttps://pbs.twimg.com/profile_banners/58029429/1420244833
p1366
aVhttps://pbs.twimg.com/profile_banners/48052087/1449420922
p1367
aVhttps://pbs.twimg.com/profile_banners/286345886/1455357806
p1368
aVhttps://pbs.twimg.com/profile_banners/2840620112/1454442360
p1369
aVhttps://pbs.twimg.com/profile_banners/1930876176/1455200006
p1370
aVhttps://pbs.twimg.com/profile_banners/298930425/1454957112
p1371
aVhttps://pbs.twimg.com/profile_banners/2170073553/1454794522
p1372
aVhttps://pbs.twimg.com/profile_banners/598465680/1455237715
p1373
aVhttps://pbs.twimg.com/profile_banners/320560587/1387142169
p1374
aVhttps://pbs.twimg.com/profile_banners/4561929681/1453140711
p1375
aVhttps://pbs.twimg.com/profile_banners/293537640/1450346153
p1376
aVhttps://pbs.twimg.com/profile_banners/1343089184/1454835621
p1377
aVhttps://pbs.twimg.com/profile_banners/490875138/1443305350
p1378
aVhttps://pbs.twimg.com/profile_banners/62661807/1434988978
p1379
aVhttps://pbs.twimg.com/profile_banners/2391908075/1455217172
p1380
aVhttps://pbs.twimg.com/profile_banners/1723636500/1451227400
p1381
aVhttps://pbs.twimg.com/profile_banners/1537868971/1407468322
p1382
aVhttps://pbs.twimg.com/profile_banners/500244892/1440609151
p1383
aVhttps://pbs.twimg.com/profile_banners/554445914/1446391771
p1384
aVhttps://pbs.twimg.com/profile_banners/837982129/1374816621
p1385
aVhttps://pbs.twimg.com/profile_banners/615420539/1454527649
p1386
aVhttps://pbs.twimg.com/profile_banners/899133913/1455147043
p1387
aVhttps://pbs.twimg.com/profile_banners/3120499234/1454860354
p1388
aVhttps://pbs.twimg.com/profile_banners/3068121244/1455150300
p1389
aVhttps://pbs.twimg.com/profile_banners/551518875/1455158908
p1390
aVhttps://pbs.twimg.com/profile_banners/2533438986/1455058664
p1391
aVhttps://pbs.twimg.com/profile_banners/3377752203/1444949251
p1392
aVhttps://pbs.twimg.com/profile_banners/511385402/1455236075
p1393
aVhttps://pbs.twimg.com/profile_banners/73648561/1432167585
p1394
aVhttps://pbs.twimg.com/profile_banners/263560602/1442681151
p1395
aVhttps://pbs.twimg.com/profile_banners/1189954093/1454449864
p1396
aVhttps://pbs.twimg.com/profile_banners/3261908050/1445206714
p1397
aVhttps://pbs.twimg.com/profile_banners/2322617058/1451236197
p1398
aVhttps://pbs.twimg.com/profile_banners/1356897008/1383523208
p1399
aVhttps://pbs.twimg.com/profile_banners/797317140/1454042027
p1400
aVhttps://pbs.twimg.com/profile_banners/423081247/1451448024
p1401
aVhttps://pbs.twimg.com/profile_banners/2993541950/1451861555
p1402
aVhttps://pbs.twimg.com/profile_banners/3287144792/1449642579
p1403
aVhttps://pbs.twimg.com/profile_banners/4205325323/1454258454
p1404
aVhttps://pbs.twimg.com/profile_banners/518199729/1451190753
p1405
aVhttps://pbs.twimg.com/profile_banners/277867302/1454181994
p1406
aVhttps://pbs.twimg.com/profile_banners/2640704420/1454951778
p1407
aVhttps://pbs.twimg.com/profile_banners/2950838622/1453770747
p1408
aVhttps://pbs.twimg.com/profile_banners/1629641948/1454031979
p1409
aVhttps://pbs.twimg.com/profile_banners/2240123774/1450844319
p1410
aVhttps://pbs.twimg.com/profile_banners/2817893347/1447089435
p1411
aVhttps://pbs.twimg.com/profile_banners/29028707/1427779047
p1412
aVhttps://pbs.twimg.com/profile_banners/554374382/1455198639
p1413
aVhttps://pbs.twimg.com/profile_banners/2806423901/1451890335
p1414
aVhttps://pbs.twimg.com/profile_banners/697801459908374528/1455210468
p1415
aVhttps://pbs.twimg.com/profile_banners/981022194/1439178843
p1416
aVhttps://pbs.twimg.com/profile_banners/2762503472/1454295202
p1417
aVhttps://pbs.twimg.com/profile_banners/125833800/1350165597
p1418
aVhttps://pbs.twimg.com/profile_banners/616688643/1358241902
p1419
aVhttps://pbs.twimg.com/profile_banners/3987103529/1445176279
p1420
aVhttps://pbs.twimg.com/profile_banners/2858529098/1455232757
p1421
aVhttps://pbs.twimg.com/profile_banners/2241929634/1445854910
p1422
aVhttps://pbs.twimg.com/profile_banners/2810218408/1412599778
p1423
aVhttps://pbs.twimg.com/profile_banners/439709759/1376107265
p1424
aVhttps://pbs.twimg.com/profile_banners/4019148239/1453080169
p1425
aVhttps://pbs.twimg.com/profile_banners/1849950084/1455158370
p1426
aVhttps://pbs.twimg.com/profile_banners/3363219014/1440709805
p1427
aVhttps://pbs.twimg.com/profile_banners/1407989340/1452477225
p1428
aVhttps://pbs.twimg.com/profile_banners/3932531374/1444615578
p1429
aVhttps://pbs.twimg.com/profile_banners/2958397370/1455304641
p1430
aVhttps://pbs.twimg.com/profile_banners/2617304378/1447305134
p1431
aVhttps://pbs.twimg.com/profile_banners/4284734959/1447897132
p1432
aVhttps://pbs.twimg.com/profile_banners/79544557/1425422212
p1433
aVhttps://pbs.twimg.com/profile_banners/577566490/1451867381
p1434
aVhttps://pbs.twimg.com/profile_banners/2415289734/1439332424
p1435
aVhttps://pbs.twimg.com/profile_banners/275297722/1445302964
p1436
aVhttps://pbs.twimg.com/profile_banners/582095111/1453945592
p1437
aVhttps://pbs.twimg.com/profile_banners/166613160/1440643326
p1438
aVhttps://pbs.twimg.com/profile_banners/938773158/1455137855
p1439
aVhttps://pbs.twimg.com/profile_banners/3195092850/1455190807
p1440
aVhttps://pbs.twimg.com/profile_banners/3038515614/1442120196
p1441
aVhttps://pbs.twimg.com/profile_banners/1331543107/1455307285
p1442
aVhttps://pbs.twimg.com/profile_banners/2247934765/1454008976
p1443
aVhttps://pbs.twimg.com/profile_banners/3345820181/1445702357
p1444
aVhttps://pbs.twimg.com/profile_banners/281703011/1357153063
p1445
aVhttps://pbs.twimg.com/profile_banners/2333213314/1455226180
p1446
aVhttps://pbs.twimg.com/profile_banners/2463938515/1398477900
p1447
aVhttps://pbs.twimg.com/profile_banners/3437292947/1455293372
p1448
aVhttps://pbs.twimg.com/profile_banners/933753781/1352354943
p1449
aVhttps://pbs.twimg.com/profile_banners/2842483768/1414136653
p1450
aVhttps://pbs.twimg.com/profile_banners/1030766046/1454332859
p1451
aVhttps://pbs.twimg.com/profile_banners/260998038/1451223117
p1452
aVhttps://pbs.twimg.com/profile_banners/1357303224/1450950320
p1453
aVhttps://pbs.twimg.com/profile_banners/2493954906/1400061395
p1454
aVhttps://pbs.twimg.com/profile_banners/1914434568/1398205615
p1455
aVhttps://pbs.twimg.com/profile_banners/88483180/1453783053
p1456
aVhttps://pbs.twimg.com/profile_banners/228855606/1447348158
p1457
aVhttps://pbs.twimg.com/profile_banners/2945471237/1455046049
p1458
aVhttps://pbs.twimg.com/profile_banners/2193364118/1405653541
p1459
aVhttps://pbs.twimg.com/profile_banners/3329854318/1438816004
p1460
aVhttps://pbs.twimg.com/profile_banners/2303011905/1443773226
p1461
aVhttps://pbs.twimg.com/profile_banners/4905077735/1455377681
p1462
aVhttps://pbs.twimg.com/profile_banners/903202500/1392390896
p1463
aVhttps://pbs.twimg.com/profile_banners/4905030219/1455377814
p1464
aVhttps://pbs.twimg.com/profile_banners/4905091547/1455377951
p1465
aVhttps://pbs.twimg.com/profile_banners/4905015657/1455377507
p1466
aVhttps://pbs.twimg.com/profile_banners/3435583672/1448148462
p1467
aVhttps://pbs.twimg.com/profile_banners/223803755/1454855189
p1468
aVhttps://pbs.twimg.com/profile_banners/602424269/1452581491
p1469
aVhttps://pbs.twimg.com/profile_banners/4520991681/1453394135
p1470
aVhttps://pbs.twimg.com/profile_banners/1445066659/1454659578
p1471
aVhttps://pbs.twimg.com/profile_banners/50003953/1451673164
p1472
aVhttps://pbs.twimg.com/profile_banners/1347759900/1454175355
p1473
aVhttps://pbs.twimg.com/profile_banners/3155908489/1429014161
p1474
aVhttps://pbs.twimg.com/profile_banners/2832344793/1453100002
p1475
aVhttps://pbs.twimg.com/profile_banners/3253492645/1440648937
p1476
aVhttps://pbs.twimg.com/profile_banners/265586930/1402873236
p1477
aVhttps://pbs.twimg.com/profile_banners/281089871/1420281392
p1478
aVhttps://pbs.twimg.com/profile_banners/4889472490/1454973080
p1479
aVhttps://pbs.twimg.com/profile_banners/304682454/1451523619
p1480
aVhttps://pbs.twimg.com/profile_banners/1959751765/1451433996
p1481
aVhttps://pbs.twimg.com/profile_banners/2418375067/1452998645
p1482
aVhttps://pbs.twimg.com/profile_banners/3066719291/1454947159
p1483
aVhttps://pbs.twimg.com/profile_banners/753973998/1455296471
p1484
aVhttps://pbs.twimg.com/profile_banners/1394942084/1452258631
p1485
aVhttps://pbs.twimg.com/profile_banners/901268702/1455099659
p1486
aVhttps://pbs.twimg.com/profile_banners/1109703859/1402517825
p1487
aVhttps://pbs.twimg.com/profile_banners/556877665/1406074069
p1488
aVhttps://pbs.twimg.com/profile_banners/2826567269/1433090534
p1489
aVhttps://pbs.twimg.com/profile_banners/3006032087/1455061308
p1490
aVhttps://pbs.twimg.com/profile_banners/1227985814/1454712443
p1491
aVhttps://pbs.twimg.com/profile_banners/350715468/1442972614
p1492
aVhttps://pbs.twimg.com/profile_banners/1442527848/1452303246
p1493
aVhttps://pbs.twimg.com/profile_banners/4691317280/1454159014
p1494
aVhttps://pbs.twimg.com/profile_banners/2942257382/1454861739
p1495
aVhttps://pbs.twimg.com/profile_banners/7881742/1447349916
p1496
aVhttps://pbs.twimg.com/profile_banners/4076302701/1452494079
p1497
aVhttps://pbs.twimg.com/profile_banners/159085947/1454959886
p1498
aVhttps://pbs.twimg.com/profile_banners/47739725/1453779707
p1499
aVhttps://pbs.twimg.com/profile_banners/2955516527/1448691755
p1500
aVhttps://pbs.twimg.com/profile_banners/4635604454/1455378336
p1501
aVhttps://pbs.twimg.com/profile_banners/364341657/1440268599
p1502
aVhttps://pbs.twimg.com/profile_banners/3393884493/1455341026
p1503
aVhttps://pbs.twimg.com/profile_banners/2307269408/1448838639
p1504
aVhttps://pbs.twimg.com/profile_banners/430407555/1454050280
p1505
aVhttps://pbs.twimg.com/profile_banners/49080826/1408576337
p1506
aVhttps://pbs.twimg.com/profile_banners/1492226718/1452964658
p1507
aVhttps://pbs.twimg.com/profile_banners/2886673816/1454374682
p1508
aVhttps://pbs.twimg.com/profile_banners/3005144183/1429117940
p1509
aVhttps://pbs.twimg.com/profile_banners/121296694/1443535259
p1510
aVhttps://pbs.twimg.com/profile_banners/2465414899/1442636350
p1511
aVhttps://pbs.twimg.com/profile_banners/3360631013/1455210371
p1512
aVhttps://pbs.twimg.com/profile_banners/2913948921/1451438526
p1513
aVhttps://pbs.twimg.com/profile_banners/3099934634/1452742270
p1514
aVhttps://pbs.twimg.com/profile_banners/1593670470/1455251192
p1515
aVhttps://pbs.twimg.com/profile_banners/4175184613/1449028747
p1516
aVhttps://pbs.twimg.com/profile_banners/3266237215/1455336319
p1517
aVhttps://pbs.twimg.com/profile_banners/165188993/1455127183
p1518
aVhttps://pbs.twimg.com/profile_banners/554771557/1455331865
p1519
aVhttps://pbs.twimg.com/profile_banners/427390380/1452657509
p1520
aVhttps://pbs.twimg.com/profile_banners/560434062/1416938365
p1521
aVhttps://pbs.twimg.com/profile_banners/241869859/1455277827
p1522
aVhttps://pbs.twimg.com/profile_banners/2230368257/1415345537
p1523
aVhttps://pbs.twimg.com/profile_banners/531529662/1422601316
p1524
aVhttps://pbs.twimg.com/profile_banners/4114534107/1455375763
p1525
aVhttps://pbs.twimg.com/profile_banners/1242041455/1453263570
p1526
aVhttps://pbs.twimg.com/profile_banners/906717319/1364095501
p1527
aVhttps://pbs.twimg.com/profile_banners/2572363195/1454877420
p1528
aVhttps://pbs.twimg.com/profile_banners/1948756620/1441858342
p1529
aVhttps://pbs.twimg.com/profile_banners/348051355/1452662253
p1530
aVhttps://pbs.twimg.com/profile_banners/2960274987/1455368764
p1531
aVhttps://pbs.twimg.com/profile_banners/2941457714/1454761563
p1532
aVhttps://pbs.twimg.com/profile_banners/4447781352/1453986313
p1533
aVhttps://pbs.twimg.com/profile_banners/3303793737/1455375352
p1534
aVhttps://pbs.twimg.com/profile_banners/966907124/1455334257
p1535
aVhttps://pbs.twimg.com/profile_banners/61302215/1439712332
p1536
aVhttps://pbs.twimg.com/profile_banners/3725399538/1455323210
p1537
aVhttps://pbs.twimg.com/profile_banners/2231718740/1455305455
p1538
aVhttps://pbs.twimg.com/profile_banners/1686654690/1452799738
p1539
aVhttps://pbs.twimg.com/profile_banners/4586854872/1450627599
p1540
aVhttps://pbs.twimg.com/profile_banners/355256699/1453222431
p1541
aVhttps://pbs.twimg.com/profile_banners/598920374/1453613037
p1542
aVhttps://pbs.twimg.com/profile_banners/240353764/1399430692
p1543
aVhttps://pbs.twimg.com/profile_banners/2710923111/1453757348
p1544
aVhttps://pbs.twimg.com/profile_banners/14066810/1454977742
p1545
aVhttps://pbs.twimg.com/profile_banners/1014291199/1442553790
p1546
aVhttps://pbs.twimg.com/profile_banners/2171310953/1454438395
p1547
aVhttps://pbs.twimg.com/profile_banners/2231570275/1443878584
p1548
aVhttps://pbs.twimg.com/profile_banners/3226619587/1448400936
p1549
aVhttps://pbs.twimg.com/profile_banners/2507033456/1400614942
p1550
aVhttps://pbs.twimg.com/profile_banners/30374756/1453569496
p1551
aVhttps://pbs.twimg.com/profile_banners/494351844/1453850428
p1552
aVhttps://pbs.twimg.com/profile_banners/1039545426/1454937764
p1553
aVhttps://pbs.twimg.com/profile_banners/4187927951/1452359493
p1554
aVhttps://pbs.twimg.com/profile_banners/624413/1398380735
p1555
aVhttps://pbs.twimg.com/profile_banners/452507637/1454080957
p1556
aVhttps://pbs.twimg.com/profile_banners/103576819/1403607468
p1557
aVhttps://pbs.twimg.com/profile_banners/298019123/1454432369
p1558
aVhttps://pbs.twimg.com/profile_banners/849874681/1416497051
p1559
aVhttps://pbs.twimg.com/profile_banners/408620360/1401126830
p1560
aVhttps://pbs.twimg.com/profile_banners/2885260643/1450080143
p1561
aVhttps://pbs.twimg.com/profile_banners/2182190230/1451249330
p1562
aVhttps://pbs.twimg.com/profile_banners/1737694231/1454713056
p1563
aVhttps://pbs.twimg.com/profile_banners/2189344982/1411594408
p1564
aVhttps://pbs.twimg.com/profile_banners/343822565/1411935002
p1565
aVhttps://pbs.twimg.com/profile_banners/4106921482/1450611830
p1566
aVhttps://pbs.twimg.com/profile_banners/1682965309/1446779746
p1567
aVhttps://pbs.twimg.com/profile_banners/3001694240/1453912104
p1568
aVhttps://pbs.twimg.com/profile_banners/3142100026/1438379832
p1569
aVhttps://pbs.twimg.com/profile_banners/1339392408/1453486088
p1570
aVhttps://pbs.twimg.com/profile_banners/1286019073/1440950363
p1571
aVhttps://pbs.twimg.com/profile_banners/289852652/1446434547
p1572
aVhttps://pbs.twimg.com/profile_banners/4466343312/1454487869
p1573
aVhttps://pbs.twimg.com/profile_banners/3262755498/1435722141
p1574
aVhttps://pbs.twimg.com/profile_banners/3104148148/1455034602
p1575
aVhttps://pbs.twimg.com/profile_banners/33885129/1448428480
p1576
aVhttps://pbs.twimg.com/profile_banners/2395632412/1451675798
p1577
aVhttps://pbs.twimg.com/profile_banners/2384652884/1454898890
p1578
aVhttps://pbs.twimg.com/profile_banners/420887870/1412895219
p1579
aVhttps://pbs.twimg.com/profile_banners/33799339/1439697623
p1580
aVhttps://pbs.twimg.com/profile_banners/43576113/1454004998
p1581
aVhttps://pbs.twimg.com/profile_banners/1009627466/1433242336
p1582
aVhttps://pbs.twimg.com/profile_banners/34905250/1454956750
p1583
aVhttps://pbs.twimg.com/profile_banners/529172870/1454803586
p1584
aVhttps://pbs.twimg.com/profile_banners/222544850/1452757687
p1585
aVhttps://pbs.twimg.com/profile_banners/123448540/1427016967
p1586
aVhttps://pbs.twimg.com/profile_banners/845763842/1449853352
p1587
aVhttps://pbs.twimg.com/profile_banners/1537304478/1386016872
p1588
aVhttps://pbs.twimg.com/profile_banners/2952975264/1420051187
p1589
aVhttps://pbs.twimg.com/profile_banners/352044416/1451813244
p1590
aVhttps://pbs.twimg.com/profile_banners/986041237/1354515375
p1591
aVhttps://pbs.twimg.com/profile_banners/2786734326/1444802187
p1592
aVhttps://pbs.twimg.com/profile_banners/580243105/1453701164
p1593
aVhttps://pbs.twimg.com/profile_banners/2250894983/1435229913
p1594
aVhttps://pbs.twimg.com/profile_banners/1320741450/1453594094
p1595
aVhttps://pbs.twimg.com/profile_banners/2649943694/1455112595
p1596
aVhttps://pbs.twimg.com/profile_banners/1554577669/1454876670
p1597
aVhttps://pbs.twimg.com/profile_banners/698528562026934272/1455377581
p1598
aVhttps://pbs.twimg.com/profile_banners/1459348334/1455316168
p1599
aVhttps://pbs.twimg.com/profile_banners/261549132/1455324294
p1600
aVhttps://pbs.twimg.com/profile_banners/2236626601/1454897152
p1601
aVhttps://pbs.twimg.com/profile_banners/66225299/1454826787
p1602
aVhttps://pbs.twimg.com/profile_banners/4828264133/1453925180
p1603
aVhttps://pbs.twimg.com/profile_banners/2892651927/1455362124
p1604
aVhttps://pbs.twimg.com/profile_banners/2438635356/1454727842
p1605
aVhttps://pbs.twimg.com/profile_banners/399770251/1352321186
p1606
aVhttps://pbs.twimg.com/profile_banners/226187363/1455198483
p1607
aVhttps://pbs.twimg.com/profile_banners/276483228/1455376373
p1608
aVhttps://pbs.twimg.com/profile_banners/152242914/1449532208
p1609
aVhttps://pbs.twimg.com/profile_banners/962013768/1453960608
p1610
aVhttps://pbs.twimg.com/profile_banners/4186496956/1451843445
p1611
aVhttps://pbs.twimg.com/profile_banners/863981882/1454292108
p1612
aVhttps://pbs.twimg.com/profile_banners/4572328337/1454777645
p1613
aVhttps://pbs.twimg.com/profile_banners/254231747/1450387585
p1614
aVhttps://pbs.twimg.com/profile_banners/529669380/1453757060
p1615
aVhttps://pbs.twimg.com/profile_banners/1565803956/1455379158
p1616
aVhttps://pbs.twimg.com/profile_banners/3246284714/1434399426
p1617
aVhttps://pbs.twimg.com/profile_banners/34202604/1455054240
p1618
aVhttps://pbs.twimg.com/profile_banners/1905708296/1452809691
p1619
aVhttps://pbs.twimg.com/profile_banners/2392156133/1453557826
p1620
aVhttps://pbs.twimg.com/profile_banners/801480043/1451796310
p1621
aVhttps://pbs.twimg.com/profile_banners/2283256081/1455273679
p1622
aVhttps://pbs.twimg.com/profile_banners/2916812457/1418358129
p1623
aVhttps://pbs.twimg.com/profile_banners/3231935334/1434740786
p1624
aVhttps://pbs.twimg.com/profile_banners/88030347/1455308675
p1625
aVhttps://pbs.twimg.com/profile_banners/1540048362/1422868822
p1626
aVhttps://pbs.twimg.com/profile_banners/428242240/1438350505
p1627
aVhttps://pbs.twimg.com/profile_banners/436639545/1454537375
p1628
aVhttps://pbs.twimg.com/profile_banners/751736994/1454513676
p1629
aVhttps://pbs.twimg.com/profile_banners/4771210038/1452997277
p1630
aVhttps://pbs.twimg.com/profile_banners/37837726/1454643889
p1631
aVhttps://pbs.twimg.com/profile_banners/2700106200/1453260752
p1632
aVhttps://pbs.twimg.com/profile_banners/363587693/1451934544
p1633
aVhttps://pbs.twimg.com/profile_banners/216431663/1440433524
p1634
aVhttps://pbs.twimg.com/profile_banners/2498957365/1455020654
p1635
aVhttps://pbs.twimg.com/profile_banners/183904377/1451314366
p1636
aVhttps://pbs.twimg.com/profile_banners/629754091/1454760153
p1637
aVhttps://pbs.twimg.com/profile_banners/221275017/1455055286
p1638
aVhttps://pbs.twimg.com/profile_banners/2432395615/1398449906
p1639
aVhttps://pbs.twimg.com/profile_banners/165678961/1354810244
p1640
aVhttps://pbs.twimg.com/profile_banners/2277776975/1452741298
p1641
aVhttps://pbs.twimg.com/profile_banners/4427720915/1449673970
p1642
aVhttps://pbs.twimg.com/profile_banners/3068881136/1454796348
p1643
aVhttps://pbs.twimg.com/profile_banners/2574481215/1454195731
p1644
aVhttps://pbs.twimg.com/profile_banners/3923762177/1448819046
p1645
aVhttps://pbs.twimg.com/profile_banners/1578805548/1454011413
p1646
aVhttps://pbs.twimg.com/profile_banners/82244712/1454267472
p1647
aVhttps://pbs.twimg.com/profile_banners/4696969705/1454090965
p1648
aVhttps://pbs.twimg.com/profile_banners/517292690/1451757088
p1649
aVhttps://pbs.twimg.com/profile_banners/2792944437/1455030503
p1650
aVhttps://pbs.twimg.com/profile_banners/501283902/1404255153
p1651
aVhttps://pbs.twimg.com/profile_banners/37590122/1375804463
p1652
aVhttps://pbs.twimg.com/profile_banners/452603964/1454289448
p1653
aVhttps://pbs.twimg.com/profile_banners/2507996790/1401816163
p1654
aVhttps://pbs.twimg.com/profile_banners/450983603/1452222551
p1655
aVhttps://pbs.twimg.com/profile_banners/933492762/1455323724
p1656
aVhttps://pbs.twimg.com/profile_banners/383601154/1359922997
p1657
aVhttps://pbs.twimg.com/profile_banners/2456369607/1454819559
p1658
aVhttps://pbs.twimg.com/profile_banners/1016012761/1454774017
p1659
aVhttps://pbs.twimg.com/profile_banners/21688482/1439776103
p1660
aVhttps://pbs.twimg.com/profile_banners/2302147170/1455379761
p1661
aVhttps://pbs.twimg.com/profile_banners/2910039872/1455351638
p1662
aVhttps://pbs.twimg.com/profile_banners/2865159195/1434052449
p1663
aVhttps://pbs.twimg.com/profile_banners/70157424/1449431476
p1664
aVhttps://pbs.twimg.com/profile_banners/1917970819/1455316644
p1665
aVhttps://pbs.twimg.com/profile_banners/3399302362/1454014199
p1666
aVhttps://pbs.twimg.com/profile_banners/1965251923/1428626012
p1667
aVhttps://pbs.twimg.com/profile_banners/4904960591/1455376256
p1668
aVhttps://pbs.twimg.com/profile_banners/593998339/1450208419
p1669
aVhttps://pbs.twimg.com/profile_banners/68317359/1400357887
p1670
aVhttps://pbs.twimg.com/profile_banners/2216682810/1443031294
p1671
aVhttps://pbs.twimg.com/profile_banners/403249359/1444159203
p1672
aVhttps://pbs.twimg.com/profile_banners/1473802218/1453762201
p1673
aVhttps://pbs.twimg.com/profile_banners/2407602191/1434236147
p1674
aVhttps://pbs.twimg.com/profile_banners/3354294677/1454141607
p1675
aVhttps://pbs.twimg.com/profile_banners/212410404/1451144260
p1676
aVhttps://pbs.twimg.com/profile_banners/3080678675/1443518331
p1677
aVhttps://pbs.twimg.com/profile_banners/213050385/1430652028
p1678
aVhttps://pbs.twimg.com/profile_banners/316021776/1419888259
p1679
aVhttps://pbs.twimg.com/profile_banners/254813068/1448318067
p1680
aVhttps://pbs.twimg.com/profile_banners/22190373/1449709185
p1681
aVhttps://pbs.twimg.com/profile_banners/2537992468/1446089477
p1682
aVhttps://pbs.twimg.com/profile_banners/3413197239/1454939666
p1683
aVhttps://pbs.twimg.com/profile_banners/15082786/1441114100
p1684
aVhttps://pbs.twimg.com/profile_banners/3126388144/1448642263
p1685
aVhttps://pbs.twimg.com/profile_banners/2609994422/1455378860
p1686
aVhttps://pbs.twimg.com/profile_banners/30461487/1398527156
p1687
aVhttps://pbs.twimg.com/profile_banners/23469258/1416772009
p1688
aVhttps://pbs.twimg.com/profile_banners/41017813/1453214395
p1689
aVhttps://pbs.twimg.com/profile_banners/1978582100/1454616773
p1690
aVhttps://pbs.twimg.com/profile_banners/1117802755/1359063852
p1691
aVhttps://pbs.twimg.com/profile_banners/115539406/1455209045
p1692
aVhttps://pbs.twimg.com/profile_banners/2941263076/1438505298
p1693
aVhttps://pbs.twimg.com/profile_banners/406660555/1385070317
p1694
aVhttps://pbs.twimg.com/profile_banners/32309254/1451448684
p1695
aVhttps://pbs.twimg.com/profile_banners/2366371560/1454637318
p1696
aVhttps://pbs.twimg.com/profile_banners/157184279/1455360566
p1697
aVhttps://pbs.twimg.com/profile_banners/2813231534/1410964896
p1698
aVhttps://pbs.twimg.com/profile_banners/4060847054/1454967585
p1699
aVhttps://pbs.twimg.com/profile_banners/2204037320/1453653243
p1700
aVhttps://pbs.twimg.com/profile_banners/448835401/1455264523
p1701
aVhttps://pbs.twimg.com/profile_banners/634295521/1452232734
p1702
aVhttps://pbs.twimg.com/profile_banners/2583727037/1423768812
p1703
aVhttps://pbs.twimg.com/profile_banners/581400632/1455115543
p1704
aVhttps://pbs.twimg.com/profile_banners/4106563232/1454358010
p1705
aVhttps://pbs.twimg.com/profile_banners/716562519/1446990943
p1706
aVhttps://pbs.twimg.com/profile_banners/1059384846/1454956078
p1707
aVhttps://pbs.twimg.com/profile_banners/2552826637/1441982807
p1708
aVhttps://pbs.twimg.com/profile_banners/4672157186/1452851192
p1709
aVhttps://pbs.twimg.com/profile_banners/274297366/1435079396
p1710
aVhttps://pbs.twimg.com/profile_banners/115719555/1455377656
p1711
aVhttps://pbs.twimg.com/profile_banners/257409029/1442781596
p1712
aVhttps://pbs.twimg.com/profile_banners/2932732053/1455065070
p1713
aVhttps://pbs.twimg.com/profile_banners/481011527/1455211968
p1714
aVhttps://pbs.twimg.com/profile_banners/126933260/1431788010
p1715
aVhttps://pbs.twimg.com/profile_banners/886210303/1450247267
p1716
aVhttps://pbs.twimg.com/profile_banners/546373230/1443569592
p1717
aVhttps://pbs.twimg.com/profile_banners/391124858/1449421531
p1718
aVhttps://pbs.twimg.com/profile_banners/4845718366/1455377936
p1719
aVhttps://pbs.twimg.com/profile_banners/737509273/1450139236
p1720
aVhttps://pbs.twimg.com/profile_banners/2666932615/1455312841
p1721
aVhttps://pbs.twimg.com/profile_banners/73532488/1428386975
p1722
aVhttps://pbs.twimg.com/profile_banners/82196315/1436388403
p1723
aVhttps://pbs.twimg.com/profile_banners/2177459475/1455057300
p1724
aVhttps://pbs.twimg.com/profile_banners/1014057842/1454817551
p1725
aVhttps://pbs.twimg.com/profile_banners/3711113836/1454991686
p1726
aVhttps://pbs.twimg.com/profile_banners/4650287177/1455167195
p1727
aVhttps://pbs.twimg.com/profile_banners/3225989013/1445068616
p1728
aVhttps://pbs.twimg.com/profile_banners/3225185917/1455377514
p1729
aVhttps://pbs.twimg.com/profile_banners/4495879877/1455311835
p1730
aVhttps://pbs.twimg.com/profile_banners/516828871/1454088307
p1731
aVhttps://pbs.twimg.com/profile_banners/1034372318/1455346772
p1732
aVhttps://pbs.twimg.com/profile_banners/2482541651/1454289645
p1733
aVhttps://pbs.twimg.com/profile_banners/446823707/1453867528
p1734
aVhttps://pbs.twimg.com/profile_banners/1288632624/1436700223
p1735
aVhttps://pbs.twimg.com/profile_banners/37218119/1396966026
p1736
aVhttps://pbs.twimg.com/profile_banners/361572946/1450600979
p1737
aVhttps://pbs.twimg.com/profile_banners/36825067/1431960319
p1738
aVhttps://pbs.twimg.com/profile_banners/341634576/1455293029
p1739
aVhttps://pbs.twimg.com/profile_banners/255959226/1454838394
p1740
aVhttps://pbs.twimg.com/profile_banners/428677141/1440336153
p1741
aVhttps://pbs.twimg.com/profile_banners/312684498/1426054569
p1742
aVhttps://pbs.twimg.com/profile_banners/4243096274/1454863222
p1743
aVhttps://pbs.twimg.com/profile_banners/341991276/1380964824
p1744
aVhttps://pbs.twimg.com/profile_banners/1317901645/1455360479
p1745
aVhttps://pbs.twimg.com/profile_banners/4671611532/1454056832
p1746
aVhttps://pbs.twimg.com/profile_banners/257905898/1439858846
p1747
aVhttps://pbs.twimg.com/profile_banners/713970650/1454412280
p1748
aVhttps://pbs.twimg.com/profile_banners/86396895/1451996874
p1749
aVhttps://pbs.twimg.com/profile_banners/382432257/1444343278
p1750
aVhttps://pbs.twimg.com/profile_banners/211738645/1419029703
p1751
aVhttps://pbs.twimg.com/profile_banners/21311075/1445522681
p1752
aVhttps://pbs.twimg.com/profile_banners/231654400/1454480837
p1753
aVhttps://pbs.twimg.com/profile_banners/18085871/1455226897
p1754
aVhttps://pbs.twimg.com/profile_banners/558148378/1454021562
p1755
aVhttps://pbs.twimg.com/profile_banners/442802604/1452266027
p1756
aVhttps://pbs.twimg.com/profile_banners/4887270320/1455180684
p1757
aVhttps://pbs.twimg.com/profile_banners/2696523326/1450419734
p1758
aVhttps://pbs.twimg.com/profile_banners/2366766451/1453009753
p1759
aVhttps://pbs.twimg.com/profile_banners/568501726/1453699632
p1760
aVhttps://pbs.twimg.com/profile_banners/441763590/1429807029
p1761
aVhttps://pbs.twimg.com/profile_banners/304305896/1451998620
p1762
aVhttps://pbs.twimg.com/profile_banners/336202787/1441662780
p1763
aVhttps://pbs.twimg.com/profile_banners/320002392/1455377385
p1764
aVhttps://pbs.twimg.com/profile_banners/1415899512/1368121991
p1765
aVhttps://pbs.twimg.com/profile_banners/253020292/1400943951
p1766
aVhttps://pbs.twimg.com/profile_banners/475879091/1353425861
p1767
aVhttps://pbs.twimg.com/profile_banners/71873268/1455231005
p1768
aVhttps://pbs.twimg.com/profile_banners/1336760616/1446614592
p1769
aVhttps://pbs.twimg.com/profile_banners/4883302467/1454802279
p1770
aVhttps://pbs.twimg.com/profile_banners/232809367/1455317207
p1771
aVhttps://pbs.twimg.com/profile_banners/768414900/1413906212
p1772
aVhttps://pbs.twimg.com/profile_banners/55291787/1454990573
p1773
aVhttps://pbs.twimg.com/profile_banners/3005832380/1455379235
p1774
aVhttps://pbs.twimg.com/profile_banners/3314836736/1451110184
p1775
aVhttps://pbs.twimg.com/profile_banners/1472981430/1436973476
p1776
aVhttps://pbs.twimg.com/profile_banners/413304315/1429791709
p1777
aVhttps://pbs.twimg.com/profile_banners/207399408/1394588506
p1778
aVhttps://pbs.twimg.com/profile_banners/1171077210/1451654254
p1779
aVhttps://pbs.twimg.com/profile_banners/3316821157/1453770093
p1780
aVhttps://pbs.twimg.com/profile_banners/523971757/1454783380
p1781
aVhttps://pbs.twimg.com/profile_banners/110388734/1455214070
p1782
aVhttps://pbs.twimg.com/profile_banners/96839536/1413100951
p1783
aVhttps://pbs.twimg.com/profile_banners/324489474/1447032037
p1784
aVhttps://pbs.twimg.com/profile_banners/72236928/1370116530
p1785
aVhttps://pbs.twimg.com/profile_banners/350429318/1364242264
p1786
aVhttps://pbs.twimg.com/profile_banners/4672207070/1451383451
p1787
aVhttps://pbs.twimg.com/profile_banners/147868704/1453772612
p1788
aVhttps://pbs.twimg.com/profile_banners/25589776/1436456505
p1789
aVhttps://pbs.twimg.com/profile_banners/3386074625/1440692360
p1790
aVhttps://pbs.twimg.com/profile_banners/737294036/1437924145
p1791
aVhttps://pbs.twimg.com/profile_banners/2152714309/1449150877
p1792
aVhttps://pbs.twimg.com/profile_banners/347907103/1444182381
p1793
aVhttps://pbs.twimg.com/profile_banners/124322573/1400117030
p1794
aVhttps://pbs.twimg.com/profile_banners/44804643/1359137155
p1795
aVhttps://pbs.twimg.com/profile_banners/133166510/1455215420
p1796
aVhttps://pbs.twimg.com/profile_banners/715286588/1454920983
p1797
aVhttps://pbs.twimg.com/profile_banners/974483612/1443181309
p1798
aVhttps://pbs.twimg.com/profile_banners/444812395/1429807393
p1799
aVhttps://pbs.twimg.com/profile_banners/1305583596/1453477595
p1800
aVhttps://pbs.twimg.com/profile_banners/2994815599/1455163422
p1801
aVhttps://pbs.twimg.com/profile_banners/2269309171/1453679188
p1802
aVhttps://pbs.twimg.com/profile_banners/3431042812/1440058617
p1803
aVhttps://pbs.twimg.com/profile_banners/2528824467/1454786227
p1804
aVhttps://pbs.twimg.com/profile_banners/2261263652/1454859746
p1805
aVhttps://pbs.twimg.com/profile_banners/1943721697/1423130979
p1806
aVhttps://pbs.twimg.com/profile_banners/2327058902/1451647932
p1807
aVhttps://pbs.twimg.com/profile_banners/3226122997/1439292555
p1808
aVhttps://pbs.twimg.com/profile_banners/165380907/1448766452
p1809
aVhttps://pbs.twimg.com/profile_banners/420692743/1454908799
p1810
aVhttps://pbs.twimg.com/profile_banners/386222764/1433696656
p1811
aVhttps://pbs.twimg.com/profile_banners/3237157603/1455377964
p1812
aVhttps://pbs.twimg.com/profile_banners/1554152959/1451806559
p1813
aVhttps://pbs.twimg.com/profile_banners/4854341281/1454853644
p1814
aVhttps://pbs.twimg.com/profile_banners/92304777/1451145776
p1815
aVhttps://pbs.twimg.com/profile_banners/315908052/1455380159
p1816
aVhttps://pbs.twimg.com/profile_banners/2682921682/1453929530
p1817
aVhttps://pbs.twimg.com/profile_banners/1327508600/1437659774
p1818
aVhttps://pbs.twimg.com/profile_banners/424955076/1454799014
p1819
aVhttps://pbs.twimg.com/profile_banners/2651879201/1450053302
p1820
aVhttps://pbs.twimg.com/profile_banners/1883797237/1453664407
p1821
aVhttps://pbs.twimg.com/profile_banners/278337185/1431726180
p1822
aVhttps://pbs.twimg.com/profile_banners/3305030080/1454268372
p1823
aVhttps://pbs.twimg.com/profile_banners/3245546828/1453257476
p1824
aVhttps://pbs.twimg.com/profile_banners/4818055045/1454220526
p1825
aVhttps://pbs.twimg.com/profile_banners/49857410/1447384229
p1826
aVhttps://pbs.twimg.com/profile_banners/1524169723/1455379531
p1827
aVhttps://pbs.twimg.com/profile_banners/382645201/1455050547
p1828
aVhttps://pbs.twimg.com/profile_banners/1588804886/1455342846
p1829
aVhttps://pbs.twimg.com/profile_banners/946806366/1434521055
p1830
aVhttps://pbs.twimg.com/profile_banners/1675189908/1448033043
p1831
aVhttps://pbs.twimg.com/profile_banners/1259510983/1371215234
p1832
aVhttps://pbs.twimg.com/profile_banners/42135458/1398829247
p1833
aVhttps://pbs.twimg.com/profile_banners/939845994/1455380091
p1834
aVhttps://pbs.twimg.com/profile_banners/3081769138/1455122605
p1835
aVhttps://pbs.twimg.com/profile_banners/2594401434/1454797104
p1836
aVhttps://pbs.twimg.com/profile_banners/2300531407/1455295154
p1837
aVhttps://pbs.twimg.com/profile_banners/2505586742/1454336066
p1838
aVhttps://pbs.twimg.com/profile_banners/1115806027/1447739180
p1839
aVhttps://pbs.twimg.com/profile_banners/806855204/1438172425
p1840
aVhttps://pbs.twimg.com/profile_banners/231258242/1454101741
p1841
aVhttps://pbs.twimg.com/profile_banners/2366578622/1453315715
p1842
aVhttps://pbs.twimg.com/profile_banners/32746529/1411749500
p1843
aVhttps://pbs.twimg.com/profile_banners/173996982/1452177094
p1844
aVhttps://pbs.twimg.com/profile_banners/1921699411/1442952793
p1845
aVhttps://pbs.twimg.com/profile_banners/2930899577/1453485953
p1846
aVhttps://pbs.twimg.com/profile_banners/248920657/1454351375
p1847
aVhttps://pbs.twimg.com/profile_banners/961393436/1426628511
p1848
aVhttps://pbs.twimg.com/profile_banners/2738351231/1425001936
p1849
aVhttps://pbs.twimg.com/profile_banners/334439596/1455320794
p1850
aVhttps://pbs.twimg.com/profile_banners/244190490/1403026512
p1851
aVhttps://pbs.twimg.com/profile_banners/292238364/1430635095
p1852
aVhttps://pbs.twimg.com/profile_banners/3325359879/1454624483
p1853
aVhttps://pbs.twimg.com/profile_banners/2768511743/1454993389
p1854
aVhttps://pbs.twimg.com/profile_banners/3245803383/1455282110
p1855
aVhttps://pbs.twimg.com/profile_banners/3129765151/1427968087
p1856
aVhttps://pbs.twimg.com/profile_banners/576628920/1401222350
p1857
aVhttps://pbs.twimg.com/profile_banners/2919951511/1455378962
p1858
aVhttps://pbs.twimg.com/profile_banners/2835792879/1415064742
p1859
aVhttps://pbs.twimg.com/profile_banners/2490457058/1452687378
p1860
aVhttps://pbs.twimg.com/profile_banners/2799225918/1430976951
p1861
aVhttps://pbs.twimg.com/profile_banners/2560876154/1416138053
p1862
aVhttps://pbs.twimg.com/profile_banners/2848650785/1431479073
p1863
aVhttps://pbs.twimg.com/profile_banners/995367092/1436971072
p1864
aVhttps://pbs.twimg.com/profile_banners/2873391143/1418486849
p1865
aVhttps://pbs.twimg.com/profile_banners/520491582/1409216482
p1866
aVhttps://pbs.twimg.com/profile_banners/704034968/1390863493
p1867
aVhttps://pbs.twimg.com/profile_banners/2975884325/1421807830
p1868
aVhttps://pbs.twimg.com/profile_banners/2873331048/1421502024
p1869
aVhttps://pbs.twimg.com/profile_banners/3008540342/1422924583
p1870
aVhttps://pbs.twimg.com/profile_banners/81333517/1444229489
p1871
aVhttps://pbs.twimg.com/profile_banners/2268114072/1431821882
p1872
aVhttps://pbs.twimg.com/profile_banners/2645038853/1417187769
p1873
aVhttps://pbs.twimg.com/profile_banners/327829879/1448932555
p1874
aVhttps://pbs.twimg.com/profile_banners/2732329846/1414700648
p1875
aVhttps://pbs.twimg.com/profile_banners/2281111478/1447869613
p1876
aVhttps://pbs.twimg.com/profile_banners/45979098/1447171867
p1877
aVhttps://pbs.twimg.com/profile_banners/3214560243/1430324045
p1878
aVhttps://pbs.twimg.com/profile_banners/2806620167/1418383091
p1879
aVhttps://pbs.twimg.com/profile_banners/3438936111/1440497249
p1880
aVhttps://pbs.twimg.com/profile_banners/2759340618/1411335329
p1881
aVhttps://pbs.twimg.com/profile_banners/2386465014/1451353027
p1882
aVhttps://pbs.twimg.com/profile_banners/844686884/1422929362
p1883
aVhttps://pbs.twimg.com/profile_banners/1216281924/1452459013
p1884
aVhttps://pbs.twimg.com/profile_banners/1137591895/1438316885
p1885
aVhttps://pbs.twimg.com/profile_banners/2365800855/1431801730
p1886
aVhttps://pbs.twimg.com/profile_banners/2534474904/1422402114
p1887
aVhttps://pbs.twimg.com/profile_banners/2909678818/1425350429
p1888
aVhttps://pbs.twimg.com/profile_banners/2627223434/1414719479
p1889
aVhttps://pbs.twimg.com/profile_banners/456231447/1396963170
p1890
aVhttps://pbs.twimg.com/profile_banners/1002171691/1426810161
p1891
aVhttps://pbs.twimg.com/profile_banners/3083479472/1432390013
p1892
aVhttps://pbs.twimg.com/profile_banners/376020193/1449579662
p1893
aVhttps://pbs.twimg.com/profile_banners/2753002205/1423788026
p1894
aVhttps://pbs.twimg.com/profile_banners/427664005/1366956760
p1895
aVhttps://pbs.twimg.com/profile_banners/547981562/1422760658
p1896
aVhttps://pbs.twimg.com/profile_banners/2749892920/1421146002
p1897
aVhttps://pbs.twimg.com/profile_banners/237968554/1442873626
p1898
aVhttps://pbs.twimg.com/profile_banners/2369497658/1454881104
p1899
aVhttps://pbs.twimg.com/profile_banners/572024575/1383986715
p1900
aVhttps://pbs.twimg.com/profile_banners/510492731/1446276470
p1901
aVhttps://pbs.twimg.com/profile_banners/1443019626/1419259781
p1902
aVhttps://pbs.twimg.com/profile_banners/2545036838/1421974207
p1903
aVhttps://pbs.twimg.com/profile_banners/2157540770/1429473232
p1904
aVhttps://pbs.twimg.com/profile_banners/3132585168/1427999833
p1905
aVhttps://pbs.twimg.com/profile_banners/892580587/1454366472
p1906
aVhttps://pbs.twimg.com/profile_banners/4847224407/1455283546
p1907
aVhttps://pbs.twimg.com/profile_banners/4848867712/1453796130
p1908
aVhttps://pbs.twimg.com/profile_banners/799153915/1455305521
p1909
aVhttps://pbs.twimg.com/profile_banners/1082446098/1454984370
p1910
aVhttps://pbs.twimg.com/profile_banners/4459725012/1455162290
p1911
aVhttps://pbs.twimg.com/profile_banners/162318960/1453504313
p1912
aVhttps://pbs.twimg.com/profile_banners/542729684/1445229015
p1913
aVhttps://pbs.twimg.com/profile_banners/635960734/1453015097
p1914
aVhttps://pbs.twimg.com/profile_banners/740939971/1450665906
p1915
aVhttps://pbs.twimg.com/profile_banners/2942816919/1444244021
p1916
aVhttps://pbs.twimg.com/profile_banners/1659749797/1454548007
p1917
aVhttps://pbs.twimg.com/profile_banners/221981978/1443207864
p1918
aVhttps://pbs.twimg.com/profile_banners/119414385/1398207397
p1919
aVhttps://pbs.twimg.com/profile_banners/2903271378/1455325073
p1920
aVhttps://pbs.twimg.com/profile_banners/534835222/1453864523
p1921
aVhttps://pbs.twimg.com/profile_banners/2533982623/1445632973
p1922
aVhttps://pbs.twimg.com/profile_banners/779314886/1395890960
p1923
aVhttps://pbs.twimg.com/profile_banners/4428059893/1450470795
p1924
aVhttps://pbs.twimg.com/profile_banners/1209716234/1452352889
p1925
aVhttps://pbs.twimg.com/profile_banners/2886903106/1454860647
p1926
aVhttps://pbs.twimg.com/profile_banners/2456441430/1398080427
p1927
aVhttps://pbs.twimg.com/profile_banners/1855615489/1454441377
p1928
aVhttps://pbs.twimg.com/profile_banners/3343268997/1453662280
p1929
aVhttps://pbs.twimg.com/profile_banners/4827043154/1454178797
p1930
aVhttps://pbs.twimg.com/profile_banners/2965474259/1455057107
p1931
aVhttps://pbs.twimg.com/profile_banners/3213770461/1452916126
p1932
aVhttps://pbs.twimg.com/profile_banners/572160057/1437363965
p1933
aVhttps://pbs.twimg.com/profile_banners/290880254/1449191229
p1934
aVhttps://pbs.twimg.com/profile_banners/2588157680/1452406468
p1935
aVhttps://pbs.twimg.com/profile_banners/1854544826/1454281578
p1936
aVhttps://pbs.twimg.com/profile_banners/3069487535/1454161129
p1937
aVhttps://pbs.twimg.com/profile_banners/535590566/1453731863
p1938
aVhttps://pbs.twimg.com/profile_banners/127945520/1440357468
p1939
aVhttps://pbs.twimg.com/profile_banners/842399569/1443763085
p1940
aVhttps://pbs.twimg.com/profile_banners/28199524/1398287888
p1941
aVhttps://pbs.twimg.com/profile_banners/18187407/1455092809
p1942
aVhttps://pbs.twimg.com/profile_banners/326579120/1428871868
p1943
aVhttps://pbs.twimg.com/profile_banners/303366879/1419885254
p1944
aVhttps://pbs.twimg.com/profile_banners/464767920/1455352554
p1945
aVhttps://pbs.twimg.com/profile_banners/3346284850/1454528505
p1946
aVhttps://pbs.twimg.com/profile_banners/29980842/1396976239
p1947
aVhttps://pbs.twimg.com/profile_banners/3221047178/1452926283
p1948
aVhttps://pbs.twimg.com/profile_banners/523388065/1454015675
p1949
aVhttps://pbs.twimg.com/profile_banners/3601962915/1451853997
p1950
aVhttps://pbs.twimg.com/profile_banners/3399616094/1454518707
p1951
aVhttps://pbs.twimg.com/profile_banners/2604761374/1454021655
p1952
aVhttps://pbs.twimg.com/profile_banners/426160260/1454739914
p1953
aVhttps://pbs.twimg.com/profile_banners/2972195063/1451867498
p1954
aVhttps://pbs.twimg.com/profile_banners/312102360/1406657034
p1955
aVhttps://pbs.twimg.com/profile_banners/3035635263/1423871129
p1956
aVhttps://pbs.twimg.com/profile_banners/2849269327/1455380212
p1957
aVhttps://pbs.twimg.com/profile_banners/3033531574/1423777464
p1958
aVhttps://pbs.twimg.com/profile_banners/3034890100/1423840843
p1959
aVhttps://pbs.twimg.com/profile_banners/72844220/1436362504
p1960
aVhttps://pbs.twimg.com/profile_banners/2656858806/1455050160
p1961
aVhttps://pbs.twimg.com/profile_banners/160173733/1354796832
p1962
aVhttps://pbs.twimg.com/profile_banners/448469440/1370376858
p1963
aVhttps://pbs.twimg.com/profile_banners/4059672567/1452537987
p1964
aVhttps://pbs.twimg.com/profile_banners/865157880/1455082010
p1965
aVhttps://pbs.twimg.com/profile_banners/875830094/1455321517
p1966
aVhttps://pbs.twimg.com/profile_banners/167003822/1454076061
p1967
aVhttps://pbs.twimg.com/profile_banners/1455996876/1453227088
p1968
aVhttps://pbs.twimg.com/profile_banners/27844479/1454580698
p1969
aVhttps://pbs.twimg.com/profile_banners/3123306892/1446332357
p1970
aVhttps://pbs.twimg.com/profile_banners/235822567/1451557157
p1971
aVhttps://pbs.twimg.com/profile_banners/3308519643/1455120322
p1972
aVhttps://pbs.twimg.com/profile_banners/3035655406/1423868398
p1973
aVhttps://pbs.twimg.com/profile_banners/183750912/1447438608
p1974
aVhttps://pbs.twimg.com/profile_banners/4837970428/1453540216
p1975
aVhttps://pbs.twimg.com/profile_banners/29496004/1380204806
p1976
aVhttps://pbs.twimg.com/profile_banners/2272189753/1439068981
p1977
aVhttps://pbs.twimg.com/profile_banners/3029788498/1423642138
p1978
aVhttps://pbs.twimg.com/profile_banners/23722910/1353182126
p1979
aVhttps://pbs.twimg.com/profile_banners/3304693939/1441496173
p1980
aVhttps://pbs.twimg.com/profile_banners/2506769574/1400487160
p1981
aVhttps://pbs.twimg.com/profile_banners/147668700/1449172035
p1982
aVhttps://pbs.twimg.com/profile_banners/148354080/1455309103
p1983
aVhttps://pbs.twimg.com/profile_banners/2453803956/1397950064
p1984
aVhttps://pbs.twimg.com/profile_banners/1019983435/1437084660
p1985
aVhttps://pbs.twimg.com/profile_banners/11737492/1444521028
p1986
aVhttps://pbs.twimg.com/profile_banners/2873542498/1415957190
p1987
aVhttps://pbs.twimg.com/profile_banners/4542921612/1449971990
p1988
aVhttps://pbs.twimg.com/profile_banners/3646084628/1455377480
p1989
aVhttps://pbs.twimg.com/profile_banners/4542037821/1450582799
p1990
aVhttps://pbs.twimg.com/profile_banners/2172671770/1411127805
p1991
aVhttps://pbs.twimg.com/profile_banners/275302807/1395417976
p1992
aVhttps://pbs.twimg.com/profile_banners/2212854940/1447120139
p1993
aVhttps://pbs.twimg.com/profile_banners/263573086/1449808199
p1994
aVhttps://pbs.twimg.com/profile_banners/541272792/1450313533
p1995
aVhttps://pbs.twimg.com/profile_banners/79597193/1376863243
p1996
aVhttps://pbs.twimg.com/profile_banners/888867163/1447355447
p1997
aVhttps://pbs.twimg.com/profile_banners/2719452217/1415908345
p1998
aVhttps://pbs.twimg.com/profile_banners/279020231/1443538207
p1999
aVhttps://pbs.twimg.com/profile_banners/2594520746/1404034168
p2000
aVhttps://pbs.twimg.com/profile_banners/135487895/1375118399
p2001
aVhttps://pbs.twimg.com/profile_banners/3611021596/1441914525
p2002
aVhttps://pbs.twimg.com/profile_banners/51934156/1441212699
p2003
aVhttps://pbs.twimg.com/profile_banners/2926746575/1418812284
p2004
aVhttps://pbs.twimg.com/profile_banners/3119255085/1455365665
p2005
aVhttps://pbs.twimg.com/profile_banners/2757337197/1416687193
p2006
aVhttps://pbs.twimg.com/profile_banners/2810050196/1410724785
p2007
aVhttps://pbs.twimg.com/profile_banners/288944067/1429049847
p2008
aVhttps://pbs.twimg.com/profile_banners/23456786/1348519440
p2009
aVhttps://pbs.twimg.com/profile_banners/29062926/1440521419
p2010
aVhttps://pbs.twimg.com/profile_banners/2719426832/1415906185
p2011
aVhttps://pbs.twimg.com/profile_banners/268851784/1441058997
p2012
aVhttps://pbs.twimg.com/profile_banners/2781294222/1409444493
p2013
aVhttps://pbs.twimg.com/profile_banners/4127245093/1452404599
p2014
aVhttps://pbs.twimg.com/profile_banners/563514957/1441305501
p2015
aVhttps://pbs.twimg.com/profile_banners/345775326/1444920659
p2016
aVhttps://pbs.twimg.com/profile_banners/17771860/1330478018
p2017
aVhttps://pbs.twimg.com/profile_banners/620548541/1442435148
p2018
aVhttps://pbs.twimg.com/profile_banners/196996976/1439164285
p2019
aVhttps://pbs.twimg.com/profile_banners/96109816/1424118586
p2020
aVhttps://pbs.twimg.com/profile_banners/2980224197/1454962172
p2021
aVhttps://pbs.twimg.com/profile_banners/1444976264/1438045284
p2022
aVhttps://pbs.twimg.com/profile_banners/2240666822/1409788210
p2023
aVhttps://pbs.twimg.com/profile_banners/4580122702/1455003328
p2024
aVhttps://pbs.twimg.com/profile_banners/3160379410/1455303058
p2025
aVhttps://pbs.twimg.com/profile_banners/2365950848/1445779909
p2026
aVhttps://pbs.twimg.com/profile_banners/3993323199/1452494773
p2027
aVhttps://pbs.twimg.com/profile_banners/19561363/1453657877
p2028
aVhttps://pbs.twimg.com/profile_banners/3620162597/1454421719
p2029
aVhttps://pbs.twimg.com/profile_banners/873328778/1454161573
p2030
aVhttps://pbs.twimg.com/profile_banners/242210812/1402845405
p2031
aVhttps://pbs.twimg.com/profile_banners/36625295/1403912034
p2032
aVhttps://pbs.twimg.com/profile_banners/506824822/1426991014
p2033
aVhttps://pbs.twimg.com/profile_banners/25998954/1435005792
p2034
aVhttps://pbs.twimg.com/profile_banners/388495274/1373385013
p2035
aVhttps://pbs.twimg.com/profile_banners/2240035844/1455032697
p2036
aVhttps://pbs.twimg.com/profile_banners/497145453/1417900139
p2037
aVhttps://pbs.twimg.com/profile_banners/3360653385/1444550930
p2038
aVhttps://pbs.twimg.com/profile_banners/18423448/1434250113
p2039
aVhttps://pbs.twimg.com/profile_banners/2719386026/1439037925
p2040
aVhttps://pbs.twimg.com/profile_banners/3147315665/1453818857
p2041
aVhttps://pbs.twimg.com/profile_banners/137486677/1414893408
p2042
aVhttps://pbs.twimg.com/profile_banners/2480070085/1453829339
p2043
aVhttps://pbs.twimg.com/profile_banners/17579870/1435719427
p2044
aVhttps://pbs.twimg.com/profile_banners/45847989/1440899785
p2045
aVhttps://pbs.twimg.com/profile_banners/18887796/1441565685
p2046
aVhttps://pbs.twimg.com/profile_banners/4840116327/1453593408
p2047
aVhttps://pbs.twimg.com/profile_banners/1712561862/1421752434
p2048
aVhttps://pbs.twimg.com/profile_banners/2532986118/1401382243
p2049
aVhttps://pbs.twimg.com/profile_banners/347732064/1450927154
p2050
aVhttps://pbs.twimg.com/profile_banners/65106504/1359233390
p2051
aVhttps://pbs.twimg.com/profile_banners/1327639712/1414936354
p2052
aVhttps://pbs.twimg.com/profile_banners/858651145/1398892179
p2053
aVhttps://pbs.twimg.com/profile_banners/3226030373/1445068423
p2054
aVhttps://pbs.twimg.com/profile_banners/284856224/1441503725
p2055
aVhttps://pbs.twimg.com/profile_banners/2862415177/1453288125
p2056
aVhttps://pbs.twimg.com/profile_banners/160916829/1455300855
p2057
aVhttps://pbs.twimg.com/profile_banners/3301399319/1432799352
p2058
aVhttps://pbs.twimg.com/profile_banners/87287287/1450677955
p2059
aVhttps://pbs.twimg.com/profile_banners/150906686/1451740049
p2060
aVhttps://pbs.twimg.com/profile_banners/15501305/1401597465
p2061
aVhttps://pbs.twimg.com/profile_banners/2779746606/1409368032
p2062
aVhttps://pbs.twimg.com/profile_banners/2496645174/1400170292
p2063
aVhttps://pbs.twimg.com/profile_banners/4330339573/1448422391
p2064
aVhttps://pbs.twimg.com/profile_banners/28759937/1446862441
p2065
aVhttps://pbs.twimg.com/profile_banners/3033513672/1454886030
p2066
aVhttps://pbs.twimg.com/profile_banners/4207731134/1448928470
p2067
aVhttps://pbs.twimg.com/profile_banners/2545439496/1447415762
p2068
aVhttps://pbs.twimg.com/profile_banners/591773923/1454346112
p2069
aVhttps://pbs.twimg.com/profile_banners/3248946944/1436306146
p2070
aVhttps://pbs.twimg.com/profile_banners/1664939335/1453878012
p2071
aVhttps://pbs.twimg.com/profile_banners/1583656556/1455059061
p2072
aVhttps://pbs.twimg.com/profile_banners/74210140/1451511968
p2073
aVhttps://pbs.twimg.com/profile_banners/1670901216/1455219972
p2074
aVhttps://pbs.twimg.com/profile_banners/2164996165/1439918204
p2075
aVhttps://pbs.twimg.com/profile_banners/2868756227/1437353484
p2076
aVhttps://pbs.twimg.com/profile_banners/236170198/1455080381
p2077
aVhttps://pbs.twimg.com/profile_banners/2541537629/1454541889
p2078
aVhttps://pbs.twimg.com/profile_banners/2730786427/1453917611
p2079
aVhttps://pbs.twimg.com/profile_banners/1889884909/1455020566
p2080
aVhttps://pbs.twimg.com/profile_banners/137637040/1355833707
p2081
aVhttps://pbs.twimg.com/profile_banners/10207502/1371659051
p2082
aVhttps://pbs.twimg.com/profile_banners/11277292/1453148095
p2083
aVhttps://pbs.twimg.com/profile_banners/2810037368/1410724178
p2084
aVhttps://pbs.twimg.com/profile_banners/883791188/1454501923
p2085
aVhttps://pbs.twimg.com/profile_banners/19955575/1453917724
p2086
aVhttps://pbs.twimg.com/profile_banners/924170473/1427126176
p2087
aVhttps://pbs.twimg.com/profile_banners/451669149/1454959305
p2088
aVhttps://pbs.twimg.com/profile_banners/2489699181/1453230131
p2089
aVhttps://pbs.twimg.com/profile_banners/106494433/1455239489
p2090
aVhttps://pbs.twimg.com/profile_banners/2574198231/1452968391
p2091
aVhttps://pbs.twimg.com/profile_banners/510831712/1398869518
p2092
aVhttps://pbs.twimg.com/profile_banners/2978324273/1455368243
p2093
aVhttps://pbs.twimg.com/profile_banners/58894482/1446996151
p2094
aVhttps://pbs.twimg.com/profile_banners/1690187718/1448646073
p2095
aVhttps://pbs.twimg.com/profile_banners/3242448101/1455040587
p2096
aVhttps://pbs.twimg.com/profile_banners/25689075/1450483844
p2097
aVhttps://pbs.twimg.com/profile_banners/2719398480/1415905400
p2098
aVhttps://pbs.twimg.com/profile_banners/977686442/1446257703
p2099
aVhttps://pbs.twimg.com/profile_banners/387070043/1423759965
p2100
aVhttps://pbs.twimg.com/profile_banners/2265881229/1449177844
p2101
aVhttps://pbs.twimg.com/profile_banners/764048864/1440128721
p2102
aVhttps://pbs.twimg.com/profile_banners/2339958293/1454980251
p2103
aVhttps://pbs.twimg.com/profile_banners/24207115/1439498360
p2104
aVhttps://pbs.twimg.com/profile_banners/30256707/1438783763
p2105
aVhttps://pbs.twimg.com/profile_banners/297097895/1368949289
p2106
aVhttps://pbs.twimg.com/profile_banners/15285356/1455172072
p2107
aVhttps://pbs.twimg.com/profile_banners/26450390/1367815077
p2108
aVhttps://pbs.twimg.com/profile_banners/483760796/1426594415
p2109
aVhttps://pbs.twimg.com/profile_banners/2367393011/1422400314
p2110
aVhttps://pbs.twimg.com/profile_banners/74013924/1362540055
p2111
aVhttps://pbs.twimg.com/profile_banners/115617386/1447782940
p2112
aVhttps://pbs.twimg.com/profile_banners/2342634026/1393861433
p2113
aVhttps://pbs.twimg.com/profile_banners/2451343801/1445109164
p2114
aVhttps://pbs.twimg.com/profile_banners/4422984375/1453264524
p2115
aVhttps://pbs.twimg.com/profile_banners/1546918002/1405085612
p2116
aVhttps://pbs.twimg.com/profile_banners/792786013/1441245787
p2117
aVhttps://pbs.twimg.com/profile_banners/2585970941/1424154432
p2118
aVhttps://pbs.twimg.com/profile_banners/64221288/1424622187
p2119
aVhttps://pbs.twimg.com/profile_banners/2446005762/1397593372
p2120
aVhttps://pbs.twimg.com/profile_banners/2876871347/1454165503
p2121
aVhttps://pbs.twimg.com/profile_banners/3181458612/1445067835
p2122
aVhttps://pbs.twimg.com/profile_banners/3181527920/1445069368
p2123
aVhttps://pbs.twimg.com/profile_banners/557306361/1395171356
p2124
aVhttps://pbs.twimg.com/profile_banners/53600528/1435058020
p2125
aVhttps://pbs.twimg.com/profile_banners/907612748/1451648000
p2126
aVhttps://pbs.twimg.com/profile_banners/3385597754/1451930008
p2127
aVhttps://pbs.twimg.com/profile_banners/36500936/1449712210
p2128
aVhttps://pbs.twimg.com/profile_banners/48922676/1429848856
p2129
aVhttps://pbs.twimg.com/profile_banners/1124761945/1445746571
p2130
aVhttps://pbs.twimg.com/profile_banners/478949242/1450665935
p2131
aVhttps://pbs.twimg.com/profile_banners/86615470/1453578137
p2132
aVhttps://pbs.twimg.com/profile_banners/484486640/1401079701
p2133
aVhttps://pbs.twimg.com/profile_banners/775928095/1454507156
p2134
aVhttps://pbs.twimg.com/profile_banners/3899269515/1444319057
p2135
aVhttps://pbs.twimg.com/profile_banners/2494029660/1443601283
p2136
aVhttps://pbs.twimg.com/profile_banners/1191083131/1437705736
p2137
aVhttps://pbs.twimg.com/profile_banners/2278339477/1455123379
p2138
aVhttps://pbs.twimg.com/profile_banners/365161137/1454188825
p2139
aVhttps://pbs.twimg.com/profile_banners/2451830856/1455293203
p2140
aVhttps://pbs.twimg.com/profile_banners/3060777142/1437605810
p2141
aVhttps://pbs.twimg.com/profile_banners/495906070/1454678212
p2142
aVhttps://pbs.twimg.com/profile_banners/21669960/1434475770
p2143
aVhttps://pbs.twimg.com/profile_banners/28674576/1451232773
p2144
aVhttps://pbs.twimg.com/profile_banners/326849716/1452440327
p2145
aVhttps://pbs.twimg.com/profile_banners/388613953/1455233310
p2146
aVhttps://pbs.twimg.com/profile_banners/222788082/1455300306
p2147
aVhttps://pbs.twimg.com/profile_banners/123652362/1375059222
p2148
aVhttps://pbs.twimg.com/profile_banners/897395982/1453536511
p2149
aVhttps://pbs.twimg.com/profile_banners/19917333/1449509665
p2150
aVhttps://pbs.twimg.com/profile_banners/27112844/1454808465
p2151
aVhttps://pbs.twimg.com/profile_banners/504797764/1454804598
p2152
aVhttps://pbs.twimg.com/profile_banners/2780401584/1409398620
p2153
aVhttps://pbs.twimg.com/profile_banners/81814146/1435120347
p2154
aVhttps://pbs.twimg.com/profile_banners/3563190256/1444469979
p2155
aVhttps://pbs.twimg.com/profile_banners/304656280/1453830553
p2156
aVhttps://pbs.twimg.com/profile_banners/924127014/1427112081
p2157
aVhttps://pbs.twimg.com/profile_banners/130492677/1442680042
p2158
aVhttps://pbs.twimg.com/profile_banners/141086619/1442470631
p2159
aVhttps://pbs.twimg.com/profile_banners/125170970/1402060004
p2160
aVhttps://pbs.twimg.com/profile_banners/519020045/1452971846
p2161
aVhttps://pbs.twimg.com/profile_banners/30802291/1445446126
p2162
aVhttps://pbs.twimg.com/profile_banners/221334900/1448211529
p2163
aVhttps://pbs.twimg.com/profile_banners/20325951/1438863010
p2164
aVhttps://pbs.twimg.com/profile_banners/21219390/1402166439
p2165
aVhttps://pbs.twimg.com/profile_banners/385234437/1440298562
p2166
aVhttps://pbs.twimg.com/profile_banners/69730771/1454883374
p2167
aVhttps://pbs.twimg.com/profile_banners/16302644/1441826152
p2168
aVhttps://pbs.twimg.com/profile_banners/2310308742/1440144462
p2169
aVhttps://pbs.twimg.com/profile_banners/153572009/1452423416
p2170
aVhttps://pbs.twimg.com/profile_banners/402897224/1448127489
p2171
aVhttps://pbs.twimg.com/profile_banners/282635479/1454406562
p2172
aVhttps://pbs.twimg.com/profile_banners/232213430/1437438472
p2173
aVhttps://pbs.twimg.com/profile_banners/232218349/1449187098
p2174
aVhttps://pbs.twimg.com/profile_banners/17548474/1400605295
p2175
aVhttps://pbs.twimg.com/profile_banners/3165342239/1428965074
p2176
aVhttps://pbs.twimg.com/profile_banners/216495966/1449514491
p2177
aVhttps://pbs.twimg.com/profile_banners/59573526/1454882302
p2178
aVhttps://pbs.twimg.com/profile_banners/29484584/1452280315
p2179
aVhttps://pbs.twimg.com/profile_banners/253022551/1400927969
p2180
aVhttps://pbs.twimg.com/profile_banners/1690773084/1432228655
p2181
aVhttps://pbs.twimg.com/profile_banners/231318839/1453907203
p2182
aVhttps://pbs.twimg.com/profile_banners/22862917/1402091335
p2183
aVhttps://pbs.twimg.com/profile_banners/3471650189/1455377621
p2184
aVhttps://pbs.twimg.com/profile_banners/2301068396/1455334834
p2185
aVhttps://pbs.twimg.com/profile_banners/235104338/1398353647
p2186
aVhttps://pbs.twimg.com/profile_banners/42822396/1438585946
p2187
aVhttps://pbs.twimg.com/profile_banners/441551578/1454888476
p2188
aVhttps://pbs.twimg.com/profile_banners/273768180/1383643215
p2189
aVhttps://pbs.twimg.com/profile_banners/1663145450/1454760949
p2190
aVhttps://pbs.twimg.com/profile_banners/47994416/1447282494
p2191
aVhttps://pbs.twimg.com/profile_banners/17900914/1410199748
p2192
aVhttps://pbs.twimg.com/profile_banners/897040188/1442815186
p2193
aVhttps://pbs.twimg.com/profile_banners/157492744/1454492883
p2194
aVhttps://pbs.twimg.com/profile_banners/3433300791/1454835327
p2195
aVhttps://pbs.twimg.com/profile_banners/2759427358/1423919379
p2196
aVhttps://pbs.twimg.com/profile_banners/1602173694/1388619138
p2197
aVhttps://pbs.twimg.com/profile_banners/2202275459/1454756038
p2198
aVhttps://pbs.twimg.com/profile_banners/506764956/1455208037
p2199
aVhttps://pbs.twimg.com/profile_banners/3338344191/1454707546
p2200
aVhttps://pbs.twimg.com/profile_banners/2207143911/1445020988
p2201
aVhttps://pbs.twimg.com/profile_banners/318642543/1442790179
p2202
aVhttps://pbs.twimg.com/profile_banners/2270767832/1452758817
p2203
aVhttps://pbs.twimg.com/profile_banners/3035768752/1423873845
p2204
aVhttps://pbs.twimg.com/profile_banners/144277691/1454176698
p2205
aVhttps://pbs.twimg.com/profile_banners/212848444/1449286539
p2206
aVhttps://pbs.twimg.com/profile_banners/601518704/1442361886
p2207
aVhttps://pbs.twimg.com/profile_banners/27863115/1447438494
p2208
aVhttps://pbs.twimg.com/profile_banners/32745086/1451496601
p2209
aVhttps://pbs.twimg.com/profile_banners/3131615817/1448823200
p2210
aVhttps://pbs.twimg.com/profile_banners/3045173480/1453615398
p2211
aVhttps://pbs.twimg.com/profile_banners/702903210/1452036792
p2212
aVhttps://pbs.twimg.com/profile_banners/3000196264/1444428983
p2213
aVhttps://pbs.twimg.com/profile_banners/40965960/1439286226
p2214
aVhttps://pbs.twimg.com/profile_banners/2516682287/1437319725
p2215
aVhttps://pbs.twimg.com/profile_banners/941411156/1427580319
p2216
aVhttps://pbs.twimg.com/profile_banners/2801570913/1413069755
p2217
aVhttps://pbs.twimg.com/profile_banners/4469710813/1449743479
p2218
aVhttps://pbs.twimg.com/profile_banners/2465789690/1446341232
p2219
aVhttps://pbs.twimg.com/profile_banners/3980736195/1453831119
p2220
aVhttps://pbs.twimg.com/profile_banners/1641977462/1427678553
p2221
aVhttps://pbs.twimg.com/profile_banners/4489464552/1449520625
p2222
aVhttps://pbs.twimg.com/profile_banners/3404218018/1454586845
p2223
aVhttps://pbs.twimg.com/profile_banners/188033258/1449234352
p2224
aVhttps://pbs.twimg.com/profile_banners/181643351/1454867236
p2225
aVhttps://pbs.twimg.com/profile_banners/1533932473/1453865948
p2226
aVhttps://pbs.twimg.com/profile_banners/186700511/1413671085
p2227
aVhttps://pbs.twimg.com/profile_banners/583176654/1431214855
p2228
aVhttps://pbs.twimg.com/profile_banners/3068358189/1451860674
p2229
aVhttps://pbs.twimg.com/profile_banners/3188304929/1455299292
p2230
aVhttps://pbs.twimg.com/profile_banners/3315086840/1451828182
p2231
aVhttps://pbs.twimg.com/profile_banners/3085359989/1426055468
p2232
aVhttps://pbs.twimg.com/profile_banners/13215382/1426262710
p2233
aVhttps://pbs.twimg.com/profile_banners/3305706142/1454898781
p2234
aVhttps://pbs.twimg.com/profile_banners/36781011/1455261761
p2235
aVhttps://pbs.twimg.com/profile_banners/27303036/1442153909
p2236
aVhttps://pbs.twimg.com/profile_banners/392787488/1454796914
p2237
aVhttps://pbs.twimg.com/profile_banners/87349073/1401335101
p2238
aVhttps://pbs.twimg.com/profile_banners/402130163/1398788487
p2239
aVhttps://pbs.twimg.com/profile_banners/176652643/1453579510
p2240
aVhttps://pbs.twimg.com/profile_banners/22634439/1398734652
p2241
aVhttps://pbs.twimg.com/profile_banners/52540473/1431865795
p2242
aVhttps://pbs.twimg.com/profile_banners/3087895499/1426694786
p2243
aVhttps://pbs.twimg.com/profile_banners/132374084/1455227987
p2244
aVhttps://pbs.twimg.com/profile_banners/705051809/1455139765
p2245
aVhttps://pbs.twimg.com/profile_banners/3179744093/1445433950
p2246
aVhttps://pbs.twimg.com/profile_banners/2273235192/1388679774
p2247
aVhttps://pbs.twimg.com/profile_banners/2230065062/1453151460
p2248
aVhttps://pbs.twimg.com/profile_banners/22219529/1454042636
p2249
aVhttps://pbs.twimg.com/profile_banners/2296408228/1450484327
p2250
aVhttps://pbs.twimg.com/profile_banners/31571993/1454355584
p2251
aVhttps://pbs.twimg.com/profile_banners/107866416/1416930388
p2252
aVhttps://pbs.twimg.com/profile_banners/255318443/1417416196
p2253
aVhttps://pbs.twimg.com/profile_banners/2836605088/1454637583
p2254
aVhttps://pbs.twimg.com/profile_banners/2482184095/1445747793
p2255
aVhttps://pbs.twimg.com/profile_banners/524343633/1455305305
p2256
aVhttps://pbs.twimg.com/profile_banners/3172680636/1451489487
p2257
aVhttps://pbs.twimg.com/profile_banners/298411984/1439771395
p2258
aVhttps://pbs.twimg.com/profile_banners/3877363093/1452872237
p2259
aVhttps://pbs.twimg.com/profile_banners/1533128588/1451435266
p2260
aVhttps://pbs.twimg.com/profile_banners/789725119/1453664093
p2261
aVhttps://pbs.twimg.com/profile_banners/18895276/1438358792
p2262
aVhttps://pbs.twimg.com/profile_banners/2234723144/1452961663
p2263
aVhttps://pbs.twimg.com/profile_banners/550098254/1440409244
p2264
aVhttps://pbs.twimg.com/profile_banners/248434161/1447848178
p2265
aVhttps://pbs.twimg.com/profile_banners/219432943/1454886254
p2266
aVhttps://pbs.twimg.com/profile_banners/369760961/1453454662
p2267
aVhttps://pbs.twimg.com/profile_banners/1029635749/1447829033
p2268
aVhttps://pbs.twimg.com/profile_banners/56177825/1454741321
p2269
aVhttps://pbs.twimg.com/profile_banners/781539020/1455272372
p2270
aVhttps://pbs.twimg.com/profile_banners/44343323/1429963890
p2271
aVhttps://pbs.twimg.com/profile_banners/20055928/1428115616
p2272
aVhttps://pbs.twimg.com/profile_banners/170064357/1451428607
p2273
aVhttps://pbs.twimg.com/profile_banners/232275950/1452927376
p2274
aVhttps://pbs.twimg.com/profile_banners/140332848/1452926267
p2275
aVhttps://pbs.twimg.com/profile_banners/24304843/1454811341
p2276
aVhttps://pbs.twimg.com/profile_banners/383922702/1446775367
p2277
aVhttps://pbs.twimg.com/profile_banners/95525600/1455310121
p2278
aVhttps://pbs.twimg.com/profile_banners/2193230643/1451669193
p2279
aVhttps://pbs.twimg.com/profile_banners/3667472363/1450444628
p2280
aVhttps://pbs.twimg.com/profile_banners/38611008/1446519026
p2281
aVhttps://pbs.twimg.com/profile_banners/2866635077/1421610865
p2282
aVhttps://pbs.twimg.com/profile_banners/2279446268/1440172167
p2283
aVhttps://pbs.twimg.com/profile_banners/45777173/1427580994
p2284
aVhttps://pbs.twimg.com/profile_banners/1003689061/1451493841
p2285
aVhttps://pbs.twimg.com/profile_banners/1643022961/1452021048
p2286
aVhttps://pbs.twimg.com/profile_banners/25701479/1450470267
p2287
aVhttps://pbs.twimg.com/profile_banners/428413631/1425504303
p2288
aVhttps://pbs.twimg.com/profile_banners/421331304/1438656841
p2289
aVhttps://pbs.twimg.com/profile_banners/3305208478/1454964502
p2290
aVhttps://pbs.twimg.com/profile_banners/293961026/1425999877
p2291
aVhttps://pbs.twimg.com/profile_banners/154019198/1452652688
p2292
aVhttps://pbs.twimg.com/profile_banners/439647015/1438728845
p2293
aVhttps://pbs.twimg.com/profile_banners/42846380/1418304672
p2294
aVhttps://pbs.twimg.com/profile_banners/572643083/1439650126
p2295
aVhttps://pbs.twimg.com/profile_banners/2210801551/1450591870
p2296
aVhttps://pbs.twimg.com/profile_banners/100912769/1455062104
p2297
aVhttps://pbs.twimg.com/profile_banners/1000983404/1447888806
p2298
aVhttps://pbs.twimg.com/profile_banners/401575737/1437091425
p2299
aVhttps://pbs.twimg.com/profile_banners/473558858/1445254207
p2300
aVhttps://pbs.twimg.com/profile_banners/2453816150/1451530403
p2301
aVhttps://pbs.twimg.com/profile_banners/380521918/1446006566
p2302
aVhttps://pbs.twimg.com/profile_banners/2916641339/1451760876
p2303
aVhttps://pbs.twimg.com/profile_banners/565689538/1455152322
p2304
aVhttps://pbs.twimg.com/profile_banners/352751056/1455041467
p2305
aVhttps://pbs.twimg.com/profile_banners/303529681/1454261553
p2306
aVhttps://pbs.twimg.com/profile_banners/166215640/1446057131
p2307
aVhttps://pbs.twimg.com/profile_banners/2432042315/1454195813
p2308
aVhttps://pbs.twimg.com/profile_banners/760358353/1454747021
p2309
aVhttps://pbs.twimg.com/profile_banners/2950503663/1451893780
p2310
aVhttps://pbs.twimg.com/profile_banners/723336061/1439355453
p2311
aVhttps://pbs.twimg.com/profile_banners/519245159/1444282463
p2312
aVhttps://pbs.twimg.com/profile_banners/17895969/1454914459
p2313
aVhttps://pbs.twimg.com/profile_banners/2980964188/1453124417
p2314
aVhttps://pbs.twimg.com/profile_banners/255191915/1455199950
p2315
aVhttps://pbs.twimg.com/profile_banners/348057786/1449679685
p2316
aVhttps://pbs.twimg.com/profile_banners/2275768760/1453576700
p2317
aVhttps://pbs.twimg.com/profile_banners/338127376/1448156050
p2318
aVhttps://pbs.twimg.com/profile_banners/326856188/1454453450
p2319
aVhttps://pbs.twimg.com/profile_banners/241581654/1454297568
p2320
aVhttps://pbs.twimg.com/profile_banners/463817644/1437831704
p2321
aVhttps://pbs.twimg.com/profile_banners/1527009541/1440750129
p2322
aVhttps://pbs.twimg.com/profile_banners/757345172/1441070855
p2323
aVhttps://pbs.twimg.com/profile_banners/1265517577/1453941267
p2324
aVhttps://pbs.twimg.com/profile_banners/2359991779/1452969844
p2325
aVhttps://pbs.twimg.com/profile_banners/2728744872/1455339032
p2326
aVhttps://pbs.twimg.com/profile_banners/290773394/1441844920
p2327
aVhttps://pbs.twimg.com/profile_banners/2833437625/1455350423
p2328
aVhttps://pbs.twimg.com/profile_banners/1714330934/1455360460
p2329
aVhttps://pbs.twimg.com/profile_banners/3282856921/1442064145
p2330
aVhttps://pbs.twimg.com/profile_banners/2474247952/1455290020
p2331
aVhttps://pbs.twimg.com/profile_banners/2223961561/1427505616
p2332
aVhttps://pbs.twimg.com/profile_banners/813774284/1434309696
p2333
aVhttps://pbs.twimg.com/profile_banners/797864048/1447287387
p2334
aVhttps://pbs.twimg.com/profile_banners/110706764/1455352764
p2335
aVhttps://pbs.twimg.com/profile_banners/276075488/1455335390
p2336
aVhttps://pbs.twimg.com/profile_banners/722902112/1451680848
p2337
aVhttps://pbs.twimg.com/profile_banners/2874567659/1455308710
p2338
aVhttps://pbs.twimg.com/profile_banners/2441996595/1451164575
p2339
aVhttps://pbs.twimg.com/profile_banners/22364936/1440082063
p2340
aVhttps://pbs.twimg.com/profile_banners/318380403/1452231105
p2341
aVhttps://pbs.twimg.com/profile_banners/1547275952/1454371263
p2342
aVhttps://pbs.twimg.com/profile_banners/25574865/1454824962
p2343
aVhttps://pbs.twimg.com/profile_banners/367937272/1455112964
p2344
aVhttps://pbs.twimg.com/profile_banners/2311645196/1455370314
p2345
aVhttps://pbs.twimg.com/profile_banners/222136040/1454704330
p2346
aVhttps://pbs.twimg.com/profile_banners/2742357191/1455189899
p2347
aVhttps://pbs.twimg.com/profile_banners/1489074847/1453423510
p2348
aVhttps://pbs.twimg.com/profile_banners/3160021997/1455135776
p2349
aVhttps://pbs.twimg.com/profile_banners/434106267/1454657107
p2350
aVhttps://pbs.twimg.com/profile_banners/1357818576/1454424085
p2351
aVhttps://pbs.twimg.com/profile_banners/386169821/1442933823
p2352
aVhttps://pbs.twimg.com/profile_banners/901754803/1441415712
p2353
aVhttps://pbs.twimg.com/profile_banners/2200355887/1453705338
p2354
aVhttps://pbs.twimg.com/profile_banners/3086861367/1455152570
p2355
aVhttps://pbs.twimg.com/profile_banners/2800971595/1455067738
p2356
aVhttps://pbs.twimg.com/profile_banners/248974350/1452573930
p2357
aVhttps://pbs.twimg.com/profile_banners/1935479719/1421240605
p2358
aVhttps://pbs.twimg.com/profile_banners/125364868/1451613355
p2359
aVhttps://pbs.twimg.com/profile_banners/34212150/1443002839
p2360
aVhttps://pbs.twimg.com/profile_banners/3008790390/1454561832
p2361
aVhttps://pbs.twimg.com/profile_banners/2772256993/1452437758
p2362
aVhttps://pbs.twimg.com/profile_banners/2796173040/1452144610
p2363
aVhttps://pbs.twimg.com/profile_banners/59726061/1451744581
p2364
aVhttps://pbs.twimg.com/profile_banners/1335349897/1455222583
p2365
aVhttps://pbs.twimg.com/profile_banners/1574266831/1454861501
p2366
aVhttps://pbs.twimg.com/profile_banners/466188168/1452987638
p2367
aVhttps://pbs.twimg.com/profile_banners/70713962/1402689761
p2368
aVhttps://pbs.twimg.com/profile_banners/1685670930/1453272114
p2369
aVhttps://pbs.twimg.com/profile_banners/432008600/1449121660
p2370
aVhttps://pbs.twimg.com/profile_banners/139671114/1449843185
p2371
aVhttps://pbs.twimg.com/profile_banners/926158154/1446639113
p2372
aVhttps://pbs.twimg.com/profile_banners/3100548100/1454764432
p2373
aVhttps://pbs.twimg.com/profile_banners/52575863/1452053708
p2374
aVhttps://pbs.twimg.com/profile_banners/3249115650/1450213774
p2375
aVhttps://pbs.twimg.com/profile_banners/104429680/1451632972
p2376
aVhttps://pbs.twimg.com/profile_banners/2877254195/1448145406
p2377
aVhttps://pbs.twimg.com/profile_banners/716752352/1446152405
p2378
aVhttps://pbs.twimg.com/profile_banners/853548272/1454512569
p2379
aVhttps://pbs.twimg.com/profile_banners/1553546840/1453754822
p2380
aVhttps://pbs.twimg.com/profile_banners/45819332/1454804934
p2381
aVhttps://pbs.twimg.com/profile_banners/1678275312/1450715983
p2382
aVhttps://pbs.twimg.com/profile_banners/134230472/1454524745
p2383
aVhttps://pbs.twimg.com/profile_banners/1677719143/1455296242
p2384
aVhttps://pbs.twimg.com/profile_banners/2887692461/1455213035
p2385
aVhttps://pbs.twimg.com/profile_banners/1457286554/1402282605
p2386
aVhttps://pbs.twimg.com/profile_banners/335881672/1421481099
p2387
aVhttps://pbs.twimg.com/profile_banners/551828757/1445247899
p2388
aVhttps://pbs.twimg.com/profile_banners/1631334157/1451839792
p2389
aVhttps://pbs.twimg.com/profile_banners/34016672/1455144205
p2390
aVhttps://pbs.twimg.com/profile_banners/2218651862/1455379009
p2391
aVhttps://pbs.twimg.com/profile_banners/2316412310/1455074319
p2392
aVhttps://pbs.twimg.com/profile_banners/3331589534/1455313072
p2393
aVhttps://pbs.twimg.com/profile_banners/2936011659/1455371162
p2394
aVhttps://pbs.twimg.com/profile_banners/169594889/1455134101
p2395
aVhttps://pbs.twimg.com/profile_banners/164971244/1451634068
p2396
aVhttps://pbs.twimg.com/profile_banners/2553594422/1452642594
p2397
aVhttps://pbs.twimg.com/profile_banners/1046853872/1449384213
p2398
aVhttps://pbs.twimg.com/profile_banners/1574106372/1454465601
p2399
aVhttps://pbs.twimg.com/profile_banners/342122744/1455203030
p2400
aVhttps://pbs.twimg.com/profile_banners/205702654/1398959556
p2401
aVhttps://pbs.twimg.com/profile_banners/557312906/1410318968
p2402
aVhttps://pbs.twimg.com/profile_banners/2954674027/1452262439
p2403
aVhttps://pbs.twimg.com/profile_banners/307664041/1377827677
p2404
aVhttps://pbs.twimg.com/profile_banners/466699622/1453125446
p2405
aVhttps://pbs.twimg.com/profile_banners/352568665/1386726202
p2406
aVhttps://pbs.twimg.com/profile_banners/2801718090/1445309418
p2407
aVhttps://pbs.twimg.com/profile_banners/326555516/1453259623
p2408
aVhttps://pbs.twimg.com/profile_banners/3293209278/1454378935
p2409
aVhttps://pbs.twimg.com/profile_banners/2266533847/1451243390
p2410
aVhttps://pbs.twimg.com/profile_banners/2153660133/1455036162
p2411
aVhttps://pbs.twimg.com/profile_banners/1224235764/1431316294
p2412
aVhttps://pbs.twimg.com/profile_banners/4235620155/1452570939
p2413
aVhttps://pbs.twimg.com/profile_banners/64529096/1455241437
p2414
aVhttps://pbs.twimg.com/profile_banners/2173098006/1453054087
p2415
aVhttps://pbs.twimg.com/profile_banners/23272077/1390457164
p2416
aVhttps://pbs.twimg.com/profile_banners/586716768/1439383309
p2417
aVhttps://pbs.twimg.com/profile_banners/3435502521/1453969288
p2418
aVhttps://pbs.twimg.com/profile_banners/1216206294/1455052843
p2419
aVhttps://pbs.twimg.com/profile_banners/2548839589/1454725438
p2420
aVhttps://pbs.twimg.com/profile_banners/231041579/1454756251
p2421
aVhttps://pbs.twimg.com/profile_banners/531478246/1454822353
p2422
aVhttps://pbs.twimg.com/profile_banners/2655095331/1454675454
p2423
aVhttps://pbs.twimg.com/profile_banners/401893662/1455125031
p2424
aVhttps://pbs.twimg.com/profile_banners/108077736/1429857899
p2425
aVhttps://pbs.twimg.com/profile_banners/175614658/1455328377
p2426
aVhttps://pbs.twimg.com/profile_banners/20577318/1447443556
p2427
aVhttps://pbs.twimg.com/profile_banners/233768381/1454973444
p2428
aVhttps://pbs.twimg.com/profile_banners/4019933895/1447053570
p2429
aVhttps://pbs.twimg.com/profile_banners/105980959/1449763779
p2430
aVhttps://pbs.twimg.com/profile_banners/1548972692/1454390088
p2431
aVhttps://pbs.twimg.com/profile_banners/36141875/1455337643
p2432
aVhttps://pbs.twimg.com/profile_banners/863132851/1454776444
p2433
aVhttps://pbs.twimg.com/profile_banners/2877297980/1443354362
p2434
aVhttps://pbs.twimg.com/profile_banners/373449743/1397723321
p2435
aVhttps://pbs.twimg.com/profile_banners/2722240109/1454364939
p2436
aVhttps://pbs.twimg.com/profile_banners/1344549624/1455373454
p2437
aVhttps://pbs.twimg.com/profile_banners/4025120775/1452404580
p2438
aVhttps://pbs.twimg.com/profile_banners/1459984134/1455369674
p2439
aVhttps://pbs.twimg.com/profile_banners/2713304570/1451307681
p2440
aVhttps://pbs.twimg.com/profile_banners/1895011212/1444578102
p2441
aVhttps://pbs.twimg.com/profile_banners/479993399/1454814631
p2442
aVhttps://pbs.twimg.com/profile_banners/484251330/1448491968
p2443
aVhttps://pbs.twimg.com/profile_banners/1506488474/1440221302
p2444
aVhttps://pbs.twimg.com/profile_banners/140571972/1454974467
p2445
aVhttps://pbs.twimg.com/profile_banners/3245444291/1450395355
p2446
aVhttps://pbs.twimg.com/profile_banners/3446575633/1454999958
p2447
aVhttps://pbs.twimg.com/profile_banners/250848867/1453621487
p2448
aVhttps://pbs.twimg.com/profile_banners/1195781828/1454960566
p2449
aVhttps://pbs.twimg.com/profile_banners/3103509258/1427682383
p2450
aVhttps://pbs.twimg.com/profile_banners/94570308/1453616190
p2451
aVhttps://pbs.twimg.com/profile_banners/983521567/1440284681
p2452
aVhttps://pbs.twimg.com/profile_banners/3413598303/1455142756
p2453
aVhttps://pbs.twimg.com/profile_banners/573028693/1454556036
p2454
aVhttps://pbs.twimg.com/profile_banners/191838993/1418474956
p2455
aVhttps://pbs.twimg.com/profile_banners/2318380809/1455066824
p2456
aVhttps://pbs.twimg.com/profile_banners/550555577/1453060355
p2457
aVhttps://pbs.twimg.com/profile_banners/2679093433/1454193943
p2458
aVhttps://pbs.twimg.com/profile_banners/343201332/1450913329
p2459
aVhttps://pbs.twimg.com/profile_banners/163381310/1419317947
p2460
aVhttps://pbs.twimg.com/profile_banners/619362815/1454220178
p2461
aVhttps://pbs.twimg.com/profile_banners/1017300588/1453803424
p2462
aVhttps://pbs.twimg.com/profile_banners/1615703796/1455218213
p2463
aVhttps://pbs.twimg.com/profile_banners/550024894/1454579579
p2464
aVhttps://pbs.twimg.com/profile_banners/2893257972/1455376958
p2465
aVhttps://pbs.twimg.com/profile_banners/483926434/1453285581
p2466
aVhttps://pbs.twimg.com/profile_banners/344097598/1451832730
p2467
aVhttps://pbs.twimg.com/profile_banners/1899247998/1430847735
p2468
aVhttps://pbs.twimg.com/profile_banners/174914164/1446488176
p2469
aVhttps://pbs.twimg.com/profile_banners/4133629759/1454055684
p2470
aVhttps://pbs.twimg.com/profile_banners/1066409958/1454904870
p2471
aVhttps://pbs.twimg.com/profile_banners/1231346856/1452375051
p2472
aVhttps://pbs.twimg.com/profile_banners/2430762253/1455118346
p2473
aVhttps://pbs.twimg.com/profile_banners/2369711532/1454375038
p2474
aVhttps://pbs.twimg.com/profile_banners/3095621249/1454709193
p2475
aVhttps://pbs.twimg.com/profile_banners/430569947/1442338452
p2476
aVhttps://pbs.twimg.com/profile_banners/635094579/1454516177
p2477
aVhttps://pbs.twimg.com/profile_banners/793575896/1446555602
p2478
aVhttps://pbs.twimg.com/profile_banners/58815981/1455235964
p2479
aVhttps://pbs.twimg.com/profile_banners/2177869681/1455200266
p2480
aVhttps://pbs.twimg.com/profile_banners/241363119/1454067899
p2481
aVhttps://pbs.twimg.com/profile_banners/57891878/1455069707
p2482
aVhttps://pbs.twimg.com/profile_banners/1077224036/1452864308
p2483
aVhttps://pbs.twimg.com/profile_banners/1558135112/1450692635
p2484
aVhttps://pbs.twimg.com/profile_banners/452560691/1452142425
p2485
aVhttps://pbs.twimg.com/profile_banners/2302414608/1455154192
p2486
aVhttps://pbs.twimg.com/profile_banners/961108920/1455149220
p2487
aVhttps://pbs.twimg.com/profile_banners/204537941/1455280903
p2488
aVhttps://pbs.twimg.com/profile_banners/1943905033/1445740478
p2489
aVhttps://pbs.twimg.com/profile_banners/444907445/1415534391
p2490
aVhttps://pbs.twimg.com/profile_banners/3470974514/1455376520
p2491
aVhttps://pbs.twimg.com/profile_banners/1831524811/1454715826
p2492
aVhttps://pbs.twimg.com/profile_banners/285469559/1439480376
p2493
aVhttps://pbs.twimg.com/profile_banners/3045319793/1454788753
p2494
aVhttps://pbs.twimg.com/profile_banners/381691158/1453478461
p2495
aVhttps://pbs.twimg.com/profile_banners/300576581/1453598098
p2496
aVhttps://pbs.twimg.com/profile_banners/253756337/1430165289
p2497
aVhttps://pbs.twimg.com/profile_banners/2787967939/1455377058
p2498
aVhttps://pbs.twimg.com/profile_banners/203560225/1454468224
p2499
aVhttps://pbs.twimg.com/profile_banners/789224617/1455304182
p2500
aVhttps://pbs.twimg.com/profile_banners/144256730/1439711587
p2501
aVhttps://pbs.twimg.com/profile_banners/168716692/1452806652
p2502
aVhttps://pbs.twimg.com/profile_banners/1909514695/1451205159
p2503
aVhttps://pbs.twimg.com/profile_banners/1292679860/1455147092
p2504
aVhttps://pbs.twimg.com/profile_banners/71826952/1442778261
p2505
aVhttps://pbs.twimg.com/profile_banners/1896595753/1437310828
p2506
aVhttps://pbs.twimg.com/profile_banners/2792633353/1450675927
p2507
aVhttps://pbs.twimg.com/profile_banners/239751610/1450287369
p2508
aVhttps://pbs.twimg.com/profile_banners/355398275/1451866060
p2509
aVhttps://pbs.twimg.com/profile_banners/2161323274/1454882319
p2510
aVhttps://pbs.twimg.com/profile_banners/2724052189/1454549505
p2511
aVhttps://pbs.twimg.com/profile_banners/612292779/1448420069
p2512
aVhttps://pbs.twimg.com/profile_banners/2471891959/1450068853
p2513
aVhttps://pbs.twimg.com/profile_banners/1045728150/1452574827
p2514
aVhttps://pbs.twimg.com/profile_banners/598577374/1419460136
p2515
aVhttps://pbs.twimg.com/profile_banners/168542090/1407852464
p2516
aVhttps://pbs.twimg.com/profile_banners/166547567/1454539255
p2517
aVhttps://pbs.twimg.com/profile_banners/1564873884/1452051840
p2518
aVhttps://pbs.twimg.com/profile_banners/770413268/1448771354
p2519
aVhttps://pbs.twimg.com/profile_banners/77177538/1432069006
p2520
aVhttps://pbs.twimg.com/profile_banners/1325822119/1454124199
p2521
aVhttps://pbs.twimg.com/profile_banners/2266614811/1455071460
p2522
aVhttps://pbs.twimg.com/profile_banners/952787718/1455080758
p2523
aVhttps://pbs.twimg.com/profile_banners/467878963/1454677708
p2524
aVhttps://pbs.twimg.com/profile_banners/378309011/1454635764
p2525
aVhttps://pbs.twimg.com/profile_banners/783246751/1440221478
p2526
aVhttps://pbs.twimg.com/profile_banners/996873468/1454349075
p2527
aVhttps://pbs.twimg.com/profile_banners/50122267/1455308961
p2528
aVhttps://pbs.twimg.com/profile_banners/360384383/1363762586
p2529
aVhttps://pbs.twimg.com/profile_banners/1244391804/1453848895
p2530
aVhttps://pbs.twimg.com/profile_banners/2436967481/1453434881
p2531
aVhttps://pbs.twimg.com/profile_banners/1714118142/1454101162
p2532
aVhttps://pbs.twimg.com/profile_banners/609740421/1435189848
p2533
aVhttps://pbs.twimg.com/profile_banners/1409592390/1454216281
p2534
aVhttps://pbs.twimg.com/profile_banners/184389974/1453923687
p2535
aVhttps://pbs.twimg.com/profile_banners/895724076/1453152504
p2536
aVhttps://pbs.twimg.com/profile_banners/266367864/1405450726
p2537
aVhttps://pbs.twimg.com/profile_banners/2407361600/1455334935
p2538
aVhttps://pbs.twimg.com/profile_banners/247083149/1451954014
p2539
aVhttps://pbs.twimg.com/profile_banners/132223723/1455003393
p2540
aVhttps://pbs.twimg.com/profile_banners/2998542134/1455371975
p2541
aVhttps://pbs.twimg.com/profile_banners/347120239/1455195415
p2542
aVhttps://pbs.twimg.com/profile_banners/1259246852/1454128506
p2543
aVhttps://pbs.twimg.com/profile_banners/268653643/1429923498
p2544
aVhttps://pbs.twimg.com/profile_banners/1445220624/1452819034
p2545
aVhttps://pbs.twimg.com/profile_banners/554739706/1455169847
p2546
aVhttps://pbs.twimg.com/profile_banners/3312698967/1454902141
p2547
aVhttps://pbs.twimg.com/profile_banners/2635252982/1452387286
p2548
aVhttps://pbs.twimg.com/profile_banners/868595911/1451710890
p2549
aVhttps://pbs.twimg.com/profile_banners/1629891836/1448910391
p2550
aVhttps://pbs.twimg.com/profile_banners/484028366/1446063623
p2551
aVhttps://pbs.twimg.com/profile_banners/991839788/1454015870
p2552
aVhttps://pbs.twimg.com/profile_banners/553616743/1454369347
p2553
aVhttps://pbs.twimg.com/profile_banners/364078415/1453853875
p2554
aVhttps://pbs.twimg.com/profile_banners/271101663/1435972530
p2555
aVhttps://pbs.twimg.com/profile_banners/72525844/1454808324
p2556
aVhttps://pbs.twimg.com/profile_banners/288843141/1454886364
p2557
aVhttps://pbs.twimg.com/profile_banners/418072824/1452832546
p2558
aVhttps://pbs.twimg.com/profile_banners/441376111/1455339736
p2559
aVhttps://pbs.twimg.com/profile_banners/607264183/1450197593
p2560
aVhttps://pbs.twimg.com/profile_banners/926701652/1455073395
p2561
aVhttps://pbs.twimg.com/profile_banners/471068195/1452121696
p2562
aVhttps://pbs.twimg.com/profile_banners/2264476460/1451523098
p2563
aVhttps://pbs.twimg.com/profile_banners/352353196/1446357831
p2564
aVhttps://pbs.twimg.com/profile_banners/2625337434/1454299460
p2565
aVhttps://pbs.twimg.com/profile_banners/431199859/1443553999
p2566
aVhttps://pbs.twimg.com/profile_banners/537495606/1430095879
p2567
aVhttps://pbs.twimg.com/profile_banners/539502398/1455151002
p2568
aVhttps://pbs.twimg.com/profile_banners/41234925/1455340735
p2569
aVhttps://pbs.twimg.com/profile_banners/302423407/1452702095
p2570
aVhttps://pbs.twimg.com/profile_banners/844004503/1436729348
p2571
aVhttps://pbs.twimg.com/profile_banners/154795403/1454986402
p2572
aVhttps://pbs.twimg.com/profile_banners/2218119938/1447620029
p2573
aVhttps://pbs.twimg.com/profile_banners/1014596155/1454127936
p2574
aVhttps://pbs.twimg.com/profile_banners/702620712/1451157842
p2575
aVhttps://pbs.twimg.com/profile_banners/839352236/1454899623
p2576
aVhttps://pbs.twimg.com/profile_banners/1520981887/1447976291
p2577
aVhttps://pbs.twimg.com/profile_banners/441998893/1448777937
p2578
aVhttps://pbs.twimg.com/profile_banners/2874319675/1454984819
p2579
aVhttps://pbs.twimg.com/profile_banners/1013433649/1454317652
p2580
aVhttps://pbs.twimg.com/profile_banners/4217263397/1450068067
p2581
aVhttps://pbs.twimg.com/profile_banners/3342234934/1454946328
p2582
aVhttps://pbs.twimg.com/profile_banners/1619349804/1454277336
p2583
aVhttps://pbs.twimg.com/profile_banners/3246846122/1455211638
p2584
aVhttps://pbs.twimg.com/profile_banners/220082114/1453846445
p2585
aVhttps://pbs.twimg.com/profile_banners/2183570890/1430958862
p2586
aVhttps://pbs.twimg.com/profile_banners/330132361/1385326581
p2587
aVhttps://pbs.twimg.com/profile_banners/3013057291/1455151535
p2588
aVhttps://pbs.twimg.com/profile_banners/274176351/1451764621
p2589
aVhttps://pbs.twimg.com/profile_banners/1895622528/1411524182
p2590
aVhttps://pbs.twimg.com/profile_banners/2799780337/1455255434
p2591
aVhttps://pbs.twimg.com/profile_banners/3246898202/1455148055
p2592
aVhttps://pbs.twimg.com/profile_banners/59072130/1439629623
p2593
aVhttps://pbs.twimg.com/profile_banners/4128025212/1453488022
p2594
aVhttps://pbs.twimg.com/profile_banners/752208116/1452139574
p2595
aVhttps://pbs.twimg.com/profile_banners/772916083/1455367686
p2596
aVhttps://pbs.twimg.com/profile_banners/620122484/1452343283
p2597
aVhttps://pbs.twimg.com/profile_banners/2247794487/1455215256
p2598
aVhttps://pbs.twimg.com/profile_banners/2898986384/1453935513
p2599
aVhttps://pbs.twimg.com/profile_banners/2412907343/1446007683
p2600
aVhttps://pbs.twimg.com/profile_banners/2745284645/1452471109
p2601
aVhttps://pbs.twimg.com/profile_banners/4004773632/1454740938
p2602
aVhttps://pbs.twimg.com/profile_banners/79656962/1455079469
p2603
aVhttps://pbs.twimg.com/profile_banners/372120540/1452527720
p2604
aVhttps://pbs.twimg.com/profile_banners/3050495578/1453994483
p2605
aVhttps://pbs.twimg.com/profile_banners/425209412/1438089398
p2606
aVhttps://pbs.twimg.com/profile_banners/4245060796/1453173636
p2607
aVhttps://pbs.twimg.com/profile_banners/239444798/1454735587
p2608
aVhttps://pbs.twimg.com/profile_banners/1858469684/1454795739
p2609
aVhttps://pbs.twimg.com/profile_banners/3825136159/1454595394
p2610
aVhttps://pbs.twimg.com/profile_banners/1318438764/1451405784
p2611
aVhttps://pbs.twimg.com/profile_banners/48774256/1398700145
p2612
aVhttps://pbs.twimg.com/profile_banners/4785094722/1453231468
p2613
aVhttps://pbs.twimg.com/profile_banners/2988561100/1454926337
p2614
aVhttps://pbs.twimg.com/profile_banners/4806324629/1455316289
p2615
aVhttps://pbs.twimg.com/profile_banners/3261758352/1450706917
p2616
aVhttps://pbs.twimg.com/profile_banners/1487613854/1454634071
p2617
aVhttps://pbs.twimg.com/profile_banners/2933808107/1451200203
p2618
aVhttps://pbs.twimg.com/profile_banners/1477161013/1453806280
p2619
aVhttps://pbs.twimg.com/profile_banners/1245118212/1450666772
p2620
aVhttps://pbs.twimg.com/profile_banners/447290731/1436424677
p2621
aVhttps://pbs.twimg.com/profile_banners/2694849601/1454692129
p2622
aVhttps://pbs.twimg.com/profile_banners/2715007838/1450601843
p2623
aVhttps://pbs.twimg.com/profile_banners/2352497310/1455335282
p2624
aVhttps://pbs.twimg.com/profile_banners/71993896/1444684239
p2625
aVhttps://pbs.twimg.com/profile_banners/147975258/1455123134
p2626
aVhttps://pbs.twimg.com/profile_banners/629947463/1357091209
p2627
aVhttps://pbs.twimg.com/profile_banners/2567339966/1455209402
p2628
aVhttps://pbs.twimg.com/profile_banners/253693054/1401981310
p2629
aVhttps://pbs.twimg.com/profile_banners/449145582/1455235200
p2630
aVhttps://pbs.twimg.com/profile_banners/3225602342/1454018729
p2631
aVhttps://pbs.twimg.com/profile_banners/978513822/1446999398
p2632
aVhttps://pbs.twimg.com/profile_banners/2875456388/1423046143
p2633
aVhttps://pbs.twimg.com/profile_banners/980593782/1455379909
p2634
aVhttps://pbs.twimg.com/profile_banners/24894949/1395608785
p2635
aVhttps://pbs.twimg.com/profile_banners/163577151/1452704736
p2636
aVhttps://pbs.twimg.com/profile_banners/703530481/1449599519
p2637
aVhttps://pbs.twimg.com/profile_banners/3008914478/1453579551
p2638
aVhttps://pbs.twimg.com/profile_banners/2955699256/1455129942
p2639
aVhttps://pbs.twimg.com/profile_banners/836634871/1446685942
p2640
aVhttps://pbs.twimg.com/profile_banners/82563681/1450670037
p2641
aVhttps://pbs.twimg.com/profile_banners/1171136846/1446343680
p2642
aVhttps://pbs.twimg.com/profile_banners/2569986577/1454031758
p2643
aVhttps://pbs.twimg.com/profile_banners/3995262053/1453081634
p2644
aVhttps://pbs.twimg.com/profile_banners/3184646924/1446437246
p2645
aVhttps://pbs.twimg.com/profile_banners/720561918/1449970862
p2646
aVhttps://pbs.twimg.com/profile_banners/2739345725/1454982527
p2647
aVhttps://pbs.twimg.com/profile_banners/2724634787/1453017717
p2648
aVhttps://pbs.twimg.com/profile_banners/3422625521/1455113281
p2649
aVhttps://pbs.twimg.com/profile_banners/4197309137/1455317564
p2650
aVhttps://pbs.twimg.com/profile_banners/154484320/1452534734
p2651
aVhttps://pbs.twimg.com/profile_banners/3083032493/1454898731
p2652
aVhttps://pbs.twimg.com/profile_banners/2479978944/1412530818
p2653
aVhttps://pbs.twimg.com/profile_banners/4680096121/1452740419
p2654
aVhttps://pbs.twimg.com/profile_banners/19378287/1416973111
p2655
aVhttps://pbs.twimg.com/profile_banners/3278371662/1454422046
p2656
aVhttps://pbs.twimg.com/profile_banners/290087963/1448443500
p2657
aVhttps://pbs.twimg.com/profile_banners/4342291460/1455046828
p2658
aVhttps://pbs.twimg.com/profile_banners/50927729/1379439750
p2659
aVhttps://pbs.twimg.com/profile_banners/3995038707/1453080820
p2660
aVhttps://pbs.twimg.com/profile_banners/2624170219/1450821313
p2661
aVhttps://pbs.twimg.com/profile_banners/1490681234/1443561869
p2662
aVhttps://pbs.twimg.com/profile_banners/1543875703/1453748862
p2663
aVhttps://pbs.twimg.com/profile_banners/2730270234/1452638266
p2664
aVhttps://pbs.twimg.com/profile_banners/2873113342/1454995121
p2665
aVhttps://pbs.twimg.com/profile_banners/3305951258/1447502441
p2666
aVhttps://pbs.twimg.com/profile_banners/3218900224/1454944169
p2667
aVhttps://pbs.twimg.com/profile_banners/3056098358/1437806901
p2668
aVhttps://pbs.twimg.com/profile_banners/337075694/1452790100
p2669
aVhttps://pbs.twimg.com/profile_banners/2535746283/1437267941
p2670
aVhttps://pbs.twimg.com/profile_banners/1446932790/1453657707
p2671
aVhttps://pbs.twimg.com/profile_banners/4868879830/1454326350
p2672
aVhttps://pbs.twimg.com/profile_banners/3029207553/1454212449
p2673
aVhttps://pbs.twimg.com/profile_banners/979105800/1454680712
p2674
aVhttps://pbs.twimg.com/profile_banners/4409035421/1454177768
p2675
aVhttps://pbs.twimg.com/profile_banners/2455843376/1452703586
p2676
aVhttps://pbs.twimg.com/profile_banners/1595373523/1453133975
p2677
aVhttps://pbs.twimg.com/profile_banners/4513719081/1453170616
p2678
aVhttps://pbs.twimg.com/profile_banners/2214634057/1422312148
p2679
aVhttps://pbs.twimg.com/profile_banners/316297699/1423741965
p2680
aVhttps://pbs.twimg.com/profile_banners/4264189661/1452740430
p2681
aVhttps://pbs.twimg.com/profile_banners/4779890657/1452565386
p2682
aVhttps://pbs.twimg.com/profile_banners/4177841386/1452495372
p2683
aVhttps://pbs.twimg.com/profile_banners/3163619755/1450738259
p2684
aVhttps://pbs.twimg.com/profile_banners/3891053548/1453245938
p2685
aVhttps://pbs.twimg.com/profile_banners/2924322143/1454383796
p2686
aVhttps://pbs.twimg.com/profile_banners/872546528/1440934896
p2687
aVhttps://pbs.twimg.com/profile_banners/2990000696/1449534974
p2688
aVhttps://pbs.twimg.com/profile_banners/3720438929/1454988450
p2689
aVhttps://pbs.twimg.com/profile_banners/2852138422/1446635368
p2690
aVhttps://pbs.twimg.com/profile_banners/3321743604/1440109475
p2691
aVhttps://pbs.twimg.com/profile_banners/4454331220/1455371246
p2692
aVhttps://pbs.twimg.com/profile_banners/4786836386/1453261650
p2693
aVhttps://pbs.twimg.com/profile_banners/2180177806/1445944662
p2694
aVhttps://pbs.twimg.com/profile_banners/4847198461/1454378994
p2695
aVhttps://pbs.twimg.com/profile_banners/2408246496/1451546507
p2696
aVhttps://pbs.twimg.com/profile_banners/1608767396/1448517722
p2697
aVhttps://pbs.twimg.com/profile_banners/2446004622/1429756549
p2698
aVhttps://pbs.twimg.com/profile_banners/4010118317/1445456341
p2699
aVhttps://pbs.twimg.com/profile_banners/4535004674/1455158424
p2700
aVhttps://pbs.twimg.com/profile_banners/484284255/1452236037
p2701
aVhttps://pbs.twimg.com/profile_banners/153536161/1454354149
p2702
aVhttps://pbs.twimg.com/profile_banners/3320013191/1449695181
p2703
aVhttps://pbs.twimg.com/profile_banners/2465011424/1418614788
p2704
aVhttps://pbs.twimg.com/profile_banners/2713527394/1455199753
p2705
aVhttps://pbs.twimg.com/profile_banners/3366728015/1455377497
p2706
aVhttps://pbs.twimg.com/profile_banners/2539709016/1407038283
p2707
aVhttps://pbs.twimg.com/profile_banners/4896820888/1455160744
p2708
aVhttps://pbs.twimg.com/profile_banners/3040570116/1445796173
p2709
aVhttps://pbs.twimg.com/profile_banners/4249732396/1451833043
p2710
aVhttps://pbs.twimg.com/profile_banners/4879926376/1454727865
p2711
aVhttps://pbs.twimg.com/profile_banners/734232961/1436883383
p2712
aVhttps://pbs.twimg.com/profile_banners/736532467/1448631092
p2713
aVhttps://pbs.twimg.com/profile_banners/745198171/1447684637
p2714
aVhttps://pbs.twimg.com/profile_banners/457361103/1378969477
p2715
aVhttps://pbs.twimg.com/profile_banners/2784140700/1450423652
p2716
aVhttps://pbs.twimg.com/profile_banners/1531192957/1446011918
p2717
aVhttps://pbs.twimg.com/profile_banners/2359206206/1436957428
p2718
aVhttps://pbs.twimg.com/profile_banners/1590960259/1408767734
p2719
aVhttps://pbs.twimg.com/profile_banners/1569653948/1446048417
p2720
aVhttps://pbs.twimg.com/profile_banners/353291205/1450407478
p2721
aVhttps://pbs.twimg.com/profile_banners/1688868931/1446052488
p2722
aVhttps://pbs.twimg.com/profile_banners/630669007/1444564811
p2723
aVhttps://pbs.twimg.com/profile_banners/404223134/1450585975
p2724
aVhttps://pbs.twimg.com/profile_banners/417990531/1450408525
p2725
aVhttps://pbs.twimg.com/profile_banners/855911462/1450582613
p2726
aVhttps://pbs.twimg.com/profile_banners/1650679530/1450410657
p2727
aVhttps://pbs.twimg.com/profile_banners/2294172385/1444568676
p2728
aVhttps://pbs.twimg.com/profile_banners/233070040/1380262831
p2729
aVhttps://pbs.twimg.com/profile_banners/1467871814/1450182119
p2730
aVhttps://pbs.twimg.com/profile_banners/2340388418/1447243951
p2731
aVhttps://pbs.twimg.com/profile_banners/1430539482/1454262127
p2732
aVhttps://pbs.twimg.com/profile_banners/570823044/1451967909
p2733
aVhttps://pbs.twimg.com/profile_banners/629227908/1450409622
p2734
aVhttps://pbs.twimg.com/profile_banners/1476968408/1449725617
p2735
aVhttps://pbs.twimg.com/profile_banners/603585249/1441811190
p2736
aVhttps://pbs.twimg.com/profile_banners/927019236/1446011996
p2737
aVhttps://pbs.twimg.com/profile_banners/627341799/1436649842
p2738
aVhttps://pbs.twimg.com/profile_banners/1638148770/1446050025
p2739
aVhttps://pbs.twimg.com/profile_banners/620809624/1436880638
p2740
aVhttps://pbs.twimg.com/profile_banners/1639858460/1446055263
p2741
aVhttps://pbs.twimg.com/profile_banners/1850098712/1444572377
p2742
aVhttps://pbs.twimg.com/profile_banners/4019007015/1454596683
p2743
aVhttps://pbs.twimg.com/profile_banners/3809538316/1453262450
p2744
aVhttps://pbs.twimg.com/profile_banners/3057230585/1454026067
p2745
aVhttps://pbs.twimg.com/profile_banners/4871687039/1454968496
p2746
aVhttps://pbs.twimg.com/profile_banners/4900818159/1455273155
p2747
aVhttps://pbs.twimg.com/profile_banners/4888571595/1454944808
p2748
aVhttps://pbs.twimg.com/profile_banners/871837520/1452447242
p2749
aVhttps://pbs.twimg.com/profile_banners/4718295753/1454939755
p2750
aVhttps://pbs.twimg.com/profile_banners/2641863034/1451923665
p2751
aVhttps://pbs.twimg.com/profile_banners/1135088922/1387650326
p2752
aVhttps://pbs.twimg.com/profile_banners/231656347/1454093158
p2753
aVhttps://pbs.twimg.com/profile_banners/3108141652/1439912109
p2754
aVhttps://pbs.twimg.com/profile_banners/3120517850/1432543245
p2755
aVhttps://pbs.twimg.com/profile_banners/4108376063/1453788369
p2756
aVhttps://pbs.twimg.com/profile_banners/4905157667/1455379319
p2757
aVhttps://pbs.twimg.com/profile_banners/4391344397/1454746293
p2758
aVhttps://pbs.twimg.com/profile_banners/4418611939/1448981630
p2759
aVhttps://pbs.twimg.com/profile_banners/4808624689/1453657501
p2760
aVhttps://pbs.twimg.com/profile_banners/4591779255/1452013090
p2761
aVhttps://pbs.twimg.com/profile_banners/1075228178/1449590783
p2762
aVhttps://pbs.twimg.com/profile_banners/440519080/1455093650
p2763
aVhttps://pbs.twimg.com/profile_banners/1967193336/1451535062
p2764
aVhttps://pbs.twimg.com/profile_banners/4895078272/1455372857
p2765
aVhttps://pbs.twimg.com/profile_banners/4502936956/1452085428
p2766
aVhttps://pbs.twimg.com/profile_banners/3435680813/1440263936
p2767
aVhttps://pbs.twimg.com/profile_banners/2450869568/1454026303
p2768
aVhttps://pbs.twimg.com/profile_banners/252243035/1455146735
p2769
aVhttps://pbs.twimg.com/profile_banners/3071196340/1453668494
p2770
aVhttps://pbs.twimg.com/profile_banners/3073530818/1448816060
p2771
aVhttps://pbs.twimg.com/profile_banners/2351590701/1450136356
p2772
aVhttps://pbs.twimg.com/profile_banners/3162580476/1455118424
p2773
aVhttps://pbs.twimg.com/profile_banners/3314792641/1446257796
p2774
aVhttps://pbs.twimg.com/profile_banners/4871013921/1455316945
p2775
aVhttps://pbs.twimg.com/profile_banners/4843533673/1454313142
p2776
aVhttps://pbs.twimg.com/profile_banners/4808435852/1454264873
p2777
aVhttps://pbs.twimg.com/profile_banners/3041592371/1449297734
p2778
aVhttps://pbs.twimg.com/profile_banners/2306627885/1454457196
p2779
aVhttps://pbs.twimg.com/profile_banners/796804454/1453980086
p2780
aVhttps://pbs.twimg.com/profile_banners/4766223337/1452938301
p2781
aVhttps://pbs.twimg.com/profile_banners/321463854/1409700748
p2782
aVhttps://pbs.twimg.com/profile_banners/2782095388/1411531073
p2783
aVhttps://pbs.twimg.com/profile_banners/2797737057/1414250482
p2784
aVhttps://pbs.twimg.com/profile_banners/2724886600/1418381444
p2785
aVhttps://pbs.twimg.com/profile_banners/2875329094/1415897925
p2786
aVhttps://pbs.twimg.com/profile_banners/3214569867/1436746587
p2787
aVhttps://pbs.twimg.com/profile_banners/3094525860/1426632202
p2788
aVhttps://pbs.twimg.com/profile_banners/3041725382/1424893578
p2789
aVhttps://pbs.twimg.com/profile_banners/2847712169/1416183122
p2790
aVhttps://pbs.twimg.com/profile_banners/2603714365/1410874161
p2791
aVhttps://pbs.twimg.com/profile_banners/2814279505/1414708926
p2792
aVhttps://pbs.twimg.com/profile_banners/2814317503/1410932005
p2793
aVhttps://pbs.twimg.com/profile_banners/2547254087/1406091472
p2794
aVhttps://pbs.twimg.com/profile_banners/2834709167/1425238199
p2795
aVhttps://pbs.twimg.com/profile_banners/2976822286/1421808447
p2796
aVhttps://pbs.twimg.com/profile_banners/2893992213/1431668731
p2797
aVhttps://pbs.twimg.com/profile_banners/3214564971/1436743235
p2798
aVhttps://pbs.twimg.com/profile_banners/2899153866/1431744638
p2799
aVhttps://pbs.twimg.com/profile_banners/2896053594/1415759711
p2800
aVhttps://pbs.twimg.com/profile_banners/2773188533/1410931276
p2801
aVhttps://pbs.twimg.com/profile_banners/2588833358/1412939462
p2802
aVhttps://pbs.twimg.com/profile_banners/2773168419/1410931591
p2803
aVhttps://pbs.twimg.com/profile_banners/2814259184/1432415569
p2804
aVhttps://pbs.twimg.com/profile_banners/2586390576/1403647801
p2805
aVhttps://pbs.twimg.com/profile_banners/2872767812/1438732387
p2806
aVhttps://pbs.twimg.com/profile_banners/4848004990/1453777630
p2807
aVhttps://pbs.twimg.com/profile_banners/3399916037/1444468720
p2808
aVhttps://pbs.twimg.com/profile_banners/352365707/1422397931
p2809
aVhttps://pbs.twimg.com/profile_banners/333857085/1408229346
p2810
aVhttps://pbs.twimg.com/profile_banners/4807287734/1453651532
p2811
aVhttps://pbs.twimg.com/profile_banners/2260786496/1453867437
p2812
aVhttps://pbs.twimg.com/profile_banners/443925803/1397926802
p2813
aVhttps://pbs.twimg.com/profile_banners/4889688435/1455367174
p2814
aVhttps://pbs.twimg.com/profile_banners/3402292907/1448775185
p2815
aVhttps://pbs.twimg.com/profile_banners/869935092/1450519963
p2816
aVhttps://pbs.twimg.com/profile_banners/4267599179/1448490863
p2817
aVhttps://pbs.twimg.com/profile_banners/4856682378/1455329033
p2818
aVhttps://pbs.twimg.com/profile_banners/2792863902/1437448961
p2819
aVhttps://pbs.twimg.com/profile_banners/3319057206/1449456515
p2820
aVhttps://pbs.twimg.com/profile_banners/4695886256/1454721959
p2821
aVhttps://pbs.twimg.com/profile_banners/64231837/1454434199
p2822
aVhttps://pbs.twimg.com/profile_banners/4844731827/1455188565
p2823
aVhttps://pbs.twimg.com/profile_banners/3066415265/1454888127
p2824
aVhttps://pbs.twimg.com/profile_banners/2391850874/1453271713
p2825
aVhttps://pbs.twimg.com/profile_banners/4895578923/1455158722
p2826
aVhttps://pbs.twimg.com/profile_banners/3013963088/1454782957
p2827
aVhttps://pbs.twimg.com/profile_banners/3007278247/1455380410
p2828
aVhttps://pbs.twimg.com/profile_banners/2249019401/1390419556
p2829
aVhttps://pbs.twimg.com/profile_banners/1166838288/1454793268
p2830
aVhttps://pbs.twimg.com/profile_banners/3239239221/1433863898
p2831
aVhttps://pbs.twimg.com/profile_banners/3329879175/1434477956
p2832
aVhttps://pbs.twimg.com/profile_banners/3146655104/1454169930
p2833
aVhttps://pbs.twimg.com/profile_banners/2833126119/1454783212
p2834
aVhttps://pbs.twimg.com/profile_banners/4696876453/1455379036
p2835
aVhttps://pbs.twimg.com/profile_banners/85737784/1379562178
p2836
aVhttps://pbs.twimg.com/profile_banners/3316194414/1454620879
p2837
aVhttps://pbs.twimg.com/profile_banners/2223333512/1387071553
p2838
aVhttps://pbs.twimg.com/profile_banners/3432102863/1450800476
p2839
aVhttps://pbs.twimg.com/profile_banners/41767373/1422410500
p2840
aVhttps://pbs.twimg.com/profile_banners/4766013440/1454890011
p2841
aVhttps://pbs.twimg.com/profile_banners/4166936073/1447283173
p2842
aVhttps://pbs.twimg.com/profile_banners/4892320295/1455247005
p2843
aVhttps://pbs.twimg.com/profile_banners/3296188627/1455289248
p2844
aVhttps://pbs.twimg.com/profile_banners/3663225973/1451967774
p2845
aVhttps://pbs.twimg.com/profile_banners/4844140192/1454591708
p2846
aVhttps://pbs.twimg.com/profile_banners/2833548271/1454831103
p2847
aVhttps://pbs.twimg.com/profile_banners/2934439062/1455079514
p2848
aVhttps://pbs.twimg.com/profile_banners/3243430026/1434594648
p2849
aVhttps://pbs.twimg.com/profile_banners/20302632/1428505196
p2850
aVhttps://pbs.twimg.com/profile_banners/1707060194/1454870647
p2851
aVhttps://pbs.twimg.com/profile_banners/3819311954/1455378575
p2852
aVhttps://pbs.twimg.com/profile_banners/162552656/1454959292
p2853
aVhttps://pbs.twimg.com/profile_banners/4886575011/1454903651
p2854
aVhttps://pbs.twimg.com/profile_banners/195446308/1454093522
p2855
aVhttps://pbs.twimg.com/profile_banners/4374460992/1448949535
p2856
aVhttps://pbs.twimg.com/profile_banners/107672352/1454922200
p2857
aVhttps://pbs.twimg.com/profile_banners/2352398041/1454082656
p2858
aVhttps://pbs.twimg.com/profile_banners/3459045613/1451998720
p2859
aVhttps://pbs.twimg.com/profile_banners/3021477167/1423267811
p2860
aVhttps://pbs.twimg.com/profile_banners/2603975293/1404816355
p2861
aVhttps://pbs.twimg.com/profile_banners/2224195778/1409024998
p2862
aVhttps://pbs.twimg.com/profile_banners/2977728392/1445609501
p2863
aVhttps://pbs.twimg.com/profile_banners/3042415620/1425149712
p2864
aVhttps://pbs.twimg.com/profile_banners/3198523885/1445538723
p2865
aVhttps://pbs.twimg.com/profile_banners/3059511797/1424855299
p2866
aVhttps://pbs.twimg.com/profile_banners/3018159397/1424433904
p2867
aVhttps://pbs.twimg.com/profile_banners/3214667146/1436183106
p2868
aVhttps://pbs.twimg.com/profile_banners/2821788974/1420508170
p2869
aVhttps://pbs.twimg.com/profile_banners/1096861530/1426410101
p2870
aVhttps://pbs.twimg.com/profile_banners/613853194/1423392571
p2871
aVhttps://pbs.twimg.com/profile_banners/3018201765/1423073872
p2872
aVhttps://pbs.twimg.com/profile_banners/2969431731/1430468438
p2873
aVhttps://pbs.twimg.com/profile_banners/330611545/1446712871
p2874
aVhttps://pbs.twimg.com/profile_banners/3101549433/1426944235
p2875
aVhttps://pbs.twimg.com/profile_banners/485209031/1438870671
p2876
aVhttps://pbs.twimg.com/profile_banners/2816034768/1420506864
p2877
aVhttps://pbs.twimg.com/profile_banners/3156705419/1435182624
p2878
aVhttps://pbs.twimg.com/profile_banners/159575564/1354380596
p2879
aVhttps://pbs.twimg.com/profile_banners/3003837743/1422641457
p2880
aVhttps://pbs.twimg.com/profile_banners/229254726/1426409910
p2881
aVhttps://pbs.twimg.com/profile_banners/286161759/1439934100
p2882
aVhttps://pbs.twimg.com/profile_banners/2385948485/1444804990
p2883
aVhttps://pbs.twimg.com/profile_banners/2663892656/1447014632
p2884
aVhttps://pbs.twimg.com/profile_banners/2718113058/1417188112
p2885
aVhttps://pbs.twimg.com/profile_banners/2551725037/1407645385
p2886
aVhttps://pbs.twimg.com/profile_banners/380496213/1399404794
p2887
aVhttps://pbs.twimg.com/profile_banners/2837359399/1455190159
p2888
aVhttps://pbs.twimg.com/profile_banners/4667982978/1451404858
p2889
aVhttps://pbs.twimg.com/profile_banners/3298246686/1453689266
p2890
aVhttps://pbs.twimg.com/profile_banners/2684779816/1454944733
p2891
aVhttps://pbs.twimg.com/profile_banners/1658185262/1427314764
p2892
a.