(lp0
S'#9b999c'
p1
aS'#e7e5e8'
p2
aS'#262427'
p3
aS'#8d8d8d'
p4
aS'#5e5d5f'
p5
aS'#18181a'
p6
aS'#9da4a2'
p7
aS'#7e766e'
p8
aS'#514a49'
p9
aS'#d5d3d5'
p10
aS'#e8e7e8'
p11
aS'#c5c3c5'
p12
aS'#588073'
p13
aS'#234047'
p14
aS'#141f2b'
p15
aS'#232323'
p16
aS'#7c7c7c'
p17
aS'#d8d8d8'
p18
aS'#454545'
p19
aS'#b1b1b1'
p20
aS'#878787'
p21
aS'#010101'
p22
aS'#1e1e1e'
p23
aS'#595959'
p24
aS'#d0cfd0'
p25
aS'#18181a'
p26
aS'#7e7d7e'
p27
aS'#949290'
p28
aS'#a5a3a1'
p29
aS'#b1afac'
p30
aS'#412020'
p31
aS'#60c3c2'
p32
aS'#fdfdfd'
p33
aS'#303030'
p34
aS'#7b7b7b'
p35
aS'#a6a6a6'
p36
aS'#1a1a1a'
p37
aS'#878787'
p38
aS'#535353'
p39
aS'#c2ccc2'
p40
aS'#8e978d'
p41
aS'#0c110c'
p42
aS'#af9b9a'
p43
aS'#fafaf7'
p44
aS'#563d49'
p45
aS'#4e4d4e'
p46
aS'#a09fa0'
p47
aS'#eeeeee'
p48
aS'#2b2b2c'
p49
aS'#747475'
p50
aS'#505050'
p51
aS'#6a6966'
p52
aS'#353222'
p53
aS'#a2a1a4'
p54
aS'#dfe3e6'
p55
aS'#42464a'
p56
aS'#8391a0'
p57
aS'#81807f'
p58
aS'#1b1818'
p59
aS'#d2d2d0'
p60
aS'#868688'
p61
aS'#cccccd'
p62
aS'#353437'
p63
aS'#737373'
p64
aS'#e8e8e9'
p65
aS'#050507'
p66
aS'#e6ccc3'
p67
aS'#b98a69'
p68
aS'#ceb912'
p69
aS'#e6fbee'
p70
aS'#788478'
p71
aS'#afbbaf'
p72
aS'#020202'
p73
aS'#666766'
p74
aS'#a2a4a0'
p75
aS'#c6c6c6'
p76
aS'#f1f1f1'
p77
aS'#949494'
p78
aS'#5e5e5e'
p79
aS'#030303'
p80
aS'#d1d1d1'
p81
aS'#7d98bc'
p82
aS'#bdc6d1'
p83
aS'#446899'
p84
aS'#bcb585'
p85
aS'#444727'
p86
aS'#7e914e'
p87
aS'#222222'
p88
aS'#4e4e4e'
p89
aS'#858585'
p90
aS'#404040'
p91
aS'#dedede'
p92
aS'#979797'
p93
aS'#b58577'
p94
aS'#515d33'
p95
aS'#d2cfcf'
p96
aS'#151515'
p97
aS'#a1a1a1'
p98
aS'#4c4c4c'
p99
aS'#af97a5'
p100
aS'#71656b'
p101
aS'#374545'
p102
aS'#8f8f8f'
p103
aS'#303030'
p104
aS'#585858'
p105
aS'#717171'
p106
aS'#b8b8b8'
p107
aS'#1e1e1e'
p108
aS'#b75e77'
p109
aS'#c0b8b6'
p110
aS'#fefefe'
p111
aS'#1e313c'
p112
aS'#827564'
p113
aS'#f8f9fa'
p114
aS'#b1b1b1'
p115
aS'#fdfdfd'
p116
aS'#d9d9d9'
p117
aS'#b7aea7'
p118
aS'#a69a91'
p119
aS'#c3bbb5'
p120
aS'#3d3353'
p121
aS'#d44a60'
p122
aS'#c3b9c6'
p123
aS'#d7c490'
p124
aS'#806a60'
p125
aS'#32273e'
p126
aS'#fcfcfc'
p127
aS'#878688'
p128
aS'#bebebf'
p129
aS'#5f6624'
p130
aS'#19180e'
p131
aS'#8d9f42'
p132
aS'#b1b1b1'
p133
aS'#d6d6d6'
p134
aS'#fdfdfd'
p135
aS'#060f06'
p136
aS'#3b493b'
p137
aS'#98a698'
p138
aS'#545353'
p139
aS'#efefef'
p140
aS'#a0a0a0'
p141
aS'#c1b187'
p142
aS'#130b06'
p143
aS'#836538'
p144
aS'#66625e'
p145
aS'#282624'
p146
aS'#e2e1df'
p147
aS'#4c433a'
p148
aS'#9e968e'
p149
aS'#0a0806'
p150
aS'#d2be95'
p151
aS'#2a2a28'
p152
aS'#867059'
p153
aS'#010006'
p154
aS'#020103'
p155
aS'#030107'
p156
aS'#e5e5e5'
p157
aS'#292929'
p158
aS'#464648'
p159
aS'#ebddbe'
p160
aS'#a58369'
p161
aS'#2a2837'
p162
aS'#292929'
p163
aS'#7e7e7e'
p164
aS'#b5b5b5'
p165
aS'#a1975d'
p166
aS'#d8e28c'
p167
aS'#454441'
p168
aS'#eed9c3'
p169
aS'#a58b7c'
p170
aS'#503431'
p171
aS'#f5efc5'
p172
aS'#bcb89c'
p173
aS'#716f62'
p174
aS'#000000'
p175
aS'#b6b6b6'
p176
aS'#4e4e4e'
p177
aS'#ac9795'
p178
aS'#e2cccb'
p179
aS'#766461'
p180
aS'#2b2928'
p181
aS'#e3e0d5'
p182
aS'#918f77'
p183
aS'#a7a7a5'
p184
aS'#0f100f'
p185
aS'#3e3f3f'
p186
aS'#3f1b60'
p187
aS'#bbafdb'
p188
aS'#8f5db3'
p189
aS'#484849'
p190
aS'#c0c0c0'
p191
aS'#dadada'
p192
aS'#a0a0ae'
p193
aS'#1f262e'
p194
aS'#5a6272'
p195
aS'#42494f'
p196
aS'#6c7c8c'
p197
aS'#9ca7ae'
p198
aS'#030303'
p199
aS'#3a3a3a'
p200
aS'#151515'
p201
aS'#4c4c4c'
p202
aS'#a2a2a2'
p203
aS'#000000'
p204
aS'#f697f6'
p205
aS'#682472'
p206
aS'#974a9c'
p207
aS'#d675a0'
p208
aS'#db055a'
p209
aS'#f5ddec'
p210
aS'#efd297'
p211
aS'#030304'
p212
aS'#67656a'
p213
aS'#e3d6c2'
p214
aS'#4a3025'
p215
aS'#96816b'
p216
aS'#c8c5c5'
p217
aS'#696666'
p218
aS'#110e0a'
p219
aS'#cbcbcb'
p220
aS'#030303'
p221
aS'#6a6a6a'
p222
aS'#31393c'
p223
aS'#7c817b'
p224
aS'#a4a59b'
p225
aS'#757071'
p226
aS'#bc9893'
p227
aS'#948589'
p228
aS'#a8a8a8'
p229
aS'#2b2b2b'
p230
aS'#909090'
p231
aS'#5d7c8b'
p232
aS'#0a161f'
p233
aS'#d0d9dd'
p234
aS'#eeebec'
p235
aS'#d368cb'
p236
aS'#dec8da'
p237
aS'#59a9a4'
p238
aS'#268688'
p239
aS'#a3d0c4'
p240
aS'#9a9a9a'
p241
aS'#cdcdce'
p242
aS'#3b3b3c'
p243
aS'#424242'
p244
aS'#7c7c7c'
p245
aS'#adadad'
p246
aS'#000000'
p247
aS'#2e2e2e'
p248
aS'#7f7f7f'
p249
aS'#ac404e'
p250
aS'#0b2035'
p251
aS'#d1cdd0'
p252
aS'#444444'
p253
aS'#a6a6a6'
p254
aS'#fefefe'
p255
aS'#4d5a59'
p256
aS'#cad1c4'
p257
aS'#7f9485'
p258
aS'#959595'
p259
aS'#525252'
p260
aS'#f1f1f1'
p261
aS'#6f4b2d'
p262
aS'#ce9a60'
p263
aS'#140e0a'
p264
aS'#656565'
p265
aS'#111111'
p266
aS'#b6b6b6'
p267
aS'#6e6e6e'
p268
aS'#b8b8b8'
p269
aS'#333333'
p270
aS'#2c2517'
p271
aS'#757365'
p272
aS'#c5c8b5'
p273
aS'#434343'
p274
aS'#6e6e6e'
p275
aS'#0c0c0c'
p276
aS'#335e8a'
p277
aS'#8eb8cd'
p278
aS'#1b1d2e'
p279
aS'#50332a'
p280
aS'#ae958f'
p281
aS'#785a52'
p282
aS'#01b1ec'
p283
aS'#0189bf'
p284
aS'#00548f'
p285
aS'#48323c'
p286
aS'#d3ab98'
p287
aS'#9c6f67'
p288
aS'#c8c9ce'
p289
aS'#18171d'
p290
aS'#5a585a'
p291
aS'#535352'
p292
aS'#b0b0af'
p293
aS'#050503'
p294
aS'#c8d7e5'
p295
aS'#49525c'
p296
aS'#8c98a7'
p297
aS'#596f83'
p298
aS'#9aaebe'
p299
aS'#d8e3e9'
p300
aS'#654b4c'
p301
aS'#a5afa3'
p302
aS'#9d8379'
p303
aS'#444444'
p304
aS'#e1e1e1'
p305
aS'#949494'
p306
aS'#332c3a'
p307
aS'#887b6f'
p308
aS'#d2bf9b'
p309
aS'#6e6e6e'
p310
aS'#414141'
p311
aS'#0d0d0d'
p312
aS'#dad1bc'
p313
aS'#41362d'
p314
aS'#9f8a62'
p315
aS'#7e7e7f'
p316
aS'#dedede'
p317
aS'#181818'
p318
aS'#eeedee'
p319
aS'#9f9f9f'
p320
aS'#4b494a'
p321
aS'#938174'
p322
aS'#dabaa2'
p323
aS'#2e2b33'
p324
aS'#988b7d'
p325
aS'#463a3f'
p326
aS'#d1c6bc'
p327
aS'#a45c30'
p328
aS'#3d5355'
p329
aS'#9a9ca2'
p330
aS'#e7bc94'
p331
aS'#528d60'
p332
aS'#32383b'
p333
aS'#6c6c6c'
p334
aS'#040404'
p335
aS'#393939'
p336
aS'#736e72'
p337
aS'#b8b4b7'
p338
aS'#faf9fa'
p339
aS'#b7a8a3'
p340
aS'#d6cfca'
p341
aS'#9e5a5d'
p342
aS'#5a5a5a'
p343
aS'#090909'
p344
aS'#cdcdcd'
p345
aS'#332f3c'
p346
aS'#e1d1c4'
p347
aS'#95847f'
p348
aS'#d0d2d6'
p349
aS'#5a625b'
p350
aS'#131311'
p351
aS'#b97d67'
p352
aS'#f3f1ef'
p353
aS'#33312f'
p354
aS'#424242'
p355
aS'#7f7f7f'
p356
aS'#9c9c9c'
p357
aS'#91848b'
p358
aS'#362d37'
p359
aS'#e7e4e7'
p360
aS'#915372'
p361
aS'#2bb17b'
p362
aS'#d5cb2f'
p363
aS'#acadb1'
p364
aS'#818184'
p365
aS'#5a5b5c'
p366
aS'#000000'
p367
aS'#000000'
p368
aS'#000000'
p369
aS'#c0c0c0'
p370
aS'#656565'
p371
aS'#3d3d3d'
p372
aS'#b3b1bc'
p373
aS'#888495'
p374
aS'#e3e3e6'
p375
aS'#a69897'
p376
aS'#938685'
p377
aS'#403434'
p378
aS'#d9d9d9'
p379
aS'#6f6f6f'
p380
aS'#060606'
p381
aS'#564348'
p382
aS'#816d76'
p383
aS'#6a555b'
p384
aS'#3d3c60'
p385
aS'#888188'
p386
aS'#e4ddcd'
p387
aS'#b78c82'
p388
aS'#584045'
p389
aS'#e8d9dc'
p390
aS'#bdbdbf'
p391
aS'#515153'
p392
aS'#020204'
p393
aS'#9b9b9b'
p394
aS'#323232'
p395
aS'#f4f4f4'
p396
aS'#af978a'
p397
aS'#7f6356'
p398
aS'#4c2e23'
p399
aS'#22121a'
p400
aS'#834d4d'
p401
aS'#532f36'
p402
aS'#857f79'
p403
aS'#c3c2bc'
p404
aS'#3f3c36'
p405
aS'#a4a4a4'
p406
aS'#646566'
p407
aS'#171818'
p408
aS'#a35163'
p409
aS'#5f0c46'
p410
aS'#d7b892'
p411
aS'#504951'
p412
aS'#827c83'
p413
aS'#110b12'
p414
aS'#020000'
p415
aS'#070302'
p416
aS'#050100'
p417
aS'#cacaca'
p418
aS'#5e5e5e'
p419
aS'#1f1f1f'
p420
aS'#c9d6c2'
p421
aS'#4e3951'
p422
aS'#94876d'
p423
aS'#312f33'
p424
aS'#828084'
p425
aS'#e2e0e3'
p426
aS'#bebebe'
p427
aS'#dcdcdc'
p428
aS'#f7f7f7'
p429
aS'#847867'
p430
aS'#4f2f35'
p431
aS'#bebe8c'
p432
aS'#59493d'
p433
aS'#948e85'
p434
aS'#bcbfbd'
p435
aS'#a8a8a8'
p436
aS'#1c1c1c'
p437
aS'#f9f9f9'
p438
aS'#2d2d2e'
p439
aS'#6b6b6e'
p440
aS'#8e8e92'
p441
aS'#b78a6c'
p442
aS'#564145'
p443
aS'#eee6b7'
p444
aS'#aab791'
p445
aS'#5a5c56'
p446
aS'#edf0ee'
p447
aS'#252525'
p448
aS'#6c6c6c'
p449
aS'#ededed'
p450
aS'#d0ced2'
p451
aS'#949299'
p452
aS'#35343c'
p453
aS'#874862'
p454
aS'#f6f0db'
p455
aS'#cab7ab'
p456
aS'#5b5b5b'
p457
aS'#8a8a8a'
p458
aS'#3a3a3a'
p459
aS'#cc8336'
p460
aS'#b8d891'
p461
aS'#71416b'
p462
aS'#e9e8e8'
p463
aS'#242323'
p464
aS'#8b837f'
p465
aS'#cecece'
p466
aS'#8f8f8f'
p467
aS'#2f2f2f'
p468
aS'#2d9977'
p469
aS'#823e29'
p470
aS'#e3a6a2'
p471
aS'#d7cfca'
p472
aS'#adb2bb'
p473
aS'#dfe5ea'
p474
aS'#686868'
p475
aS'#232324'
p476
aS'#838383'
p477
aS'#a6a6a6'
p478
aS'#292929'
p479
aS'#696969'
p480
aS'#cdccbb'
p481
aS'#5e5a62'
p482
aS'#696a72'
p483
aS'#d9ded8'
p484
aS'#1d201d'
p485
aS'#929692'
p486
aS'#28254b'
p487
aS'#bab89a'
p488
aS'#93706e'
p489
aS'#4c4c4e'
p490
aS'#000002'
p491
aS'#9d9d9f'
p492
aS'#7e7e7e'
p493
aS'#afafaf'
p494
aS'#323232'
p495
aS'#2d2424'
p496
aS'#8f665b'
p497
aS'#d4bfbf'
p498
aS'#2b2728'
p499
aS'#000000'
p500
aS'#646061'
p501
aS'#565656'
p502
aS'#959595'
p503
aS'#2f2f2f'
p504
aS'#020204'
p505
aS'#4f4f51'
p506
aS'#bcbcbe'
p507
aS'#211a3e'
p508
aS'#c16fc5'
p509
aS'#3372cb'
p510
aS'#bdc6cf'
p511
aS'#7597a6'
p512
aS'#3a5e70'
p513
aS'#666666'
p514
aS'#f2f2f2'
p515
aS'#b8b8b8'
p516
aS'#7c7a7d'
p517
aS'#b2b0b3'
p518
aS'#343235'
p519
aS'#a3a3a3'
p520
aS'#767676'
p521
aS'#484848'
p522
aS'#88676e'
p523
aS'#d4ccce'
p524
aS'#624847'
p525
aS'#c8c6ca'
p526
aS'#706d72'
p527
aS'#121214'
p528
aS'#090909'
p529
aS'#ececec'
p530
aS'#767676'
p531
aS'#475456'
p532
aS'#ae9274'
p533
aS'#8b7064'
p534
aS'#010101'
p535
aS'#5e5f5b'
p536
aS'#c7c8c4'
p537
aS'#3f8bcd'
p538
aS'#7a4745'
p539
aS'#d0b8b0'
p540
aS'#6a6a6a'
p541
aS'#898989'
p542
aS'#b0b0b0'
p543
aS'#e7c9a6'
p544
aS'#97979b'
p545
aS'#5b687f'
p546
aS'#373737'
p547
aS'#0c0c0c'
p548
aS'#979797'
p549
aS'#92423f'
p550
aS'#3f1f40'
p551
aS'#bd8078'
p552
aS'#7a7a7a'
p553
aS'#e7e7e7'
p554
aS'#181818'
p555
aS'#a6878e'
p556
aS'#fbccd8'
p557
aS'#492f33'
p558
aS'#50352a'
p559
aS'#805d4d'
p560
aS'#a8aeae'
p561
aS'#fefefe'
p562
aS'#5c5c5c'
p563
aS'#aeaeae'
p564
aS'#f3f8f1'
p565
aS'#ebbbae'
p566
aS'#a7b0c3'
p567
aS'#476173'
p568
aS'#839aa2'
p569
aS'#091622'
p570
aS'#73a9d5'
p571
aS'#364038'
p572
aS'#607370'
p573
aS'#351d19'
p574
aS'#817173'
p575
aS'#b5a6ab'
p576
aS'#a3938e'
p577
aS'#1f1814'
p578
aS'#f0eeee'
p579
aS'#876e5a'
p580
aS'#b2aa91'
p581
aS'#3b4643'
p582
aS'#605b60'
p583
aS'#2d2b2e'
p584
aS'#969596'
p585
aS'#e4eabd'
p586
aS'#bdbe92'
p587
aS'#6c4e4c'
p588
aS'#d2d2d2'
p589
aS'#989898'
p590
aS'#555555'
p591
aS'#464646'
p592
aS'#939393'
p593
aS'#0f0f0f'
p594
aS'#000000'
p595
aS'#000000'
p596
aS'#000000'
p597
aS'#545454'
p598
aS'#ababab'
p599
aS'#fdfdfd'
p600
aS'#27272e'
p601
aS'#aca8ae'
p602
aS'#fcfcfc'
p603
aS'#a8adb4'
p604
aS'#404347'
p605
aS'#c4cbd2'
p606
aS'#d8d8d8'
p607
aS'#272727'
p608
aS'#898989'
p609
aS'#141416'
p610
aS'#69696b'
p611
aS'#e5e5e5'
p612
aS'#8f8f96'
p613
aS'#323339'
p614
aS'#fdfdfd'
p615
aS'#efe5d4'
p616
aS'#8e7154'
p617
aS'#cfaa80'
p618
aS'#575a5d'
p619
aS'#c3c8c6'
p620
aS'#7f8a8b'
p621
aS'#fefefe'
p622
aS'#afafaf'
p623
aS'#5e5e5e'
p624
aS'#261e1a'
p625
aS'#fcfbfa'
p626
aS'#9d8d81'
p627
aS'#40918c'
p628
aS'#7ebbb0'
p629
aS'#dce7db'
p630
aS'#706583'
p631
aS'#28253d'
p632
aS'#8b849b'
p633
aS'#868586'
p634
aS'#e7e7e7'
p635
aS'#111112'
p636
aS'#393d32'
p637
aS'#b4b2ad'
p638
aS'#666960'
p639
aS'#7e7880'
p640
aS'#3c3137'
p641
aS'#c6c4c9'
p642
aS'#1a1a1a'
p643
aS'#a4a4a4'
p644
aS'#676767'
p645
aS'#aaaaaa'
p646
aS'#7c7c7c'
p647
aS'#595959'
p648
aS'#4b2036'
p649
aS'#8a676a'
p650
aS'#b4a29c'
p651
aS'#e97889'
p652
aS'#050306'
p653
aS'#4d326e'
p654
aS'#dcd5d3'
p655
aS'#0f0f0f'
p656
aS'#8f8887'
p657
aS'#56595c'
p658
aS'#998d8b'
p659
aS'#372d2c'
p660
aS'#463b4d'
p661
aS'#72738e'
p662
aS'#9a9dbb'
p663
aS'#9e9e9e'
p664
aS'#eaeaea'
p665
aS'#474747'
p666
aS'#c3bdc2'
p667
aS'#333130'
p668
aS'#756c7d'
p669
aS'#671fd3'
p670
aS'#b695b4'
p671
aS'#60a0ae'
p672
aS'#6c6c6c'
p673
aS'#434343'
p674
aS'#212121'
p675
aS'#908f91'
p676
aS'#1f1f21'
p677
aS'#fbfbfc'
p678
aS'#676568'
p679
aS'#131315'
p680
aS'#3c3b3e'
p681
aS'#d5d5d5'
p682
aS'#a0a0a0'
p683
aS'#fafafa'
p684
aS'#5c5f5e'
p685
aS'#020202'
p686
aS'#d2d5d3'
p687
aS'#ebdae5'
p688
aS'#e6388b'
p689
aS'#52a9da'
p690
aS'#212121'
p691
aS'#5f5f5f'
p692
aS'#0f0f0f'
p693
aS'#131314'
p694
aS'#c4c4c4'
p695
aS'#757575'
p696
aS'#c9c1ac'
p697
aS'#502b29'
p698
aS'#e3e7d6'
p699
aS'#7e6765'
p700
aS'#d5b1ad'
p701
aS'#261c1c'
p702
aS'#cdbfb5'
p703
aS'#988378'
p704
aS'#231813'
p705
aS'#e1d5c0'
p706
aS'#4a3124'
p707
aS'#96826b'
p708
aS'#e3c4c1'
p709
aS'#620f20'
p710
aS'#b65e6d'
p711
aS'#8fc7de'
p712
aS'#3e3f39'
p713
aS'#b88a3b'
p714
aS'#bfc6ca'
p715
aS'#493d2f'
p716
aS'#7d7e78'
p717
aS'#d8d6d6'
p718
aS'#686361'
p719
aS'#070605'
p720
aS'#363636'
p721
aS'#d2d2d2'
p722
aS'#adadad'
p723
aS'#8d8c8e'
p724
aS'#5a565b'
p725
aS'#0f0e10'
p726
aS'#cdcdcc'
p727
aS'#939294'
p728
aS'#fefefe'
p729
aS'#411931'
p730
aS'#95bfbc'
p731
aS'#e2a199'
p732
aS'#e1dfe1'
p733
aS'#4f4b50'
p734
aS'#9b979c'
p735
aS'#c29c91'
p736
aS'#ebe3e2'
p737
aS'#81493d'
p738
aS'#909090'
p739
aS'#777777'
p740
aS'#4c4b49'
p741
aS'#656565'
p742
aS'#363636'
p743
aS'#b3b3b3'
p744
aS'#bbbbbb'
p745
aS'#6f6f6f'
p746
aS'#202020'
p747
aS'#3d3d3d'
p748
aS'#f2f2f2'
p749
aS'#adadad'
p750
aS'#989699'
p751
aS'#5b595c'
p752
aS'#211f22'
p753
aS'#404040'
p754
aS'#818181'
p755
aS'#1a1a1a'
p756
aS'#2f2625'
p757
aS'#ac8568'
p758
aS'#cccdc1'
p759
aS'#caa17d'
p760
aS'#4f2f1d'
p761
aS'#efd0bc'
p762
aS'#030303'
p763
aS'#787878'
p764
aS'#eaeaea'
p765
aS'#7996a1'
p766
aS'#2a525f'
p767
aS'#cecacc'
p768
aS'#f1f1ee'
p769
aS'#2c2624'
p770
aS'#9b9a97'
p771
aS'#121212'
p772
aS'#fcfcfc'
p773
aS'#898989'
p774
aS'#a1a1a1'
p775
aS'#393939'
p776
aS'#707070'
p777
aS'#4e4d4f'
p778
aS'#7e7d7f'
p779
aS'#b7b7b7'
p780
aS'#040306'
p781
aS'#030204'
p782
aS'#010103'
p783
aS'#828085'
p784
aS'#343236'
p785
aS'#cfced1'
p786
aS'#27394e'
p787
aS'#dcc1bd'
p788
aS'#4c91b2'
p789
aS'#ced3d6'
p790
aS'#8a4450'
p791
aS'#b8b0b3'
p792
aS'#959495'
p793
aS'#232225'
p794
aS'#dcdcdc'
p795
aS'#e1e1e1'
p796
aS'#979797'
p797
aS'#2d2d2d'
p798
aS'#150c28'
p799
aS'#334041'
p800
aS'#bc6861'
p801
aS'#5f5f5f'
p802
aS'#070707'
p803
aS'#bdbdbd'
p804
aS'#8a8a8a'
p805
aS'#252525'
p806
aS'#464646'
p807
aS'#1a1a1a'
p808
aS'#686868'
p809
aS'#979797'
p810
aS'#272729'
p811
aS'#dcdcdc'
p812
aS'#8d8c8e'
p813
aS'#b5b6b2'
p814
aS'#767674'
p815
aS'#1e1e1e'
p816
aS'#747474'
p817
aS'#373737'
p818
aS'#171717'
p819
aS'#aab8ad'
p820
aS'#d8e6d0'
p821
aS'#bed3bc'
p822
aS'#251b1b'
p823
aS'#c38b8b'
p824
aS'#70544d'
p825
aS'#818083'
p826
aS'#100f0d'
p827
aS'#d3c3af'
p828
aS'#6d657b'
p829
aS'#b17d71'
p830
aS'#e8caac'
p831
aS'#9d9283'
p832
aS'#e3d5cc'
p833
aS'#3d433a'
p834
aS'#7c7e7b'
p835
aS'#c2c4c1'
p836
aS'#fdfdfd'
p837
aS'#6f6e5d'
p838
aS'#2f251e'
p839
aS'#120a0a'
p840
aS'#989898'
p841
aS'#403e41'
p842
aS'#ebebec'
p843
aS'#000000'
p844
aS'#585858'
p845
aS'#c2c2c2'
p846
aS'#292c38'
p847
aS'#0f1218'
p848
aS'#636a7d'
p849
aS'#6b676f'
p850
aS'#333b3f'
p851
aS'#a48a96'
p852
aS'#343434'
p853
aS'#acabac'
p854
aS'#575656'
p855
aS'#aaaaaa'
p856
aS'#626262'
p857
aS'#0c0c0c'
p858
aS'#acacac'
p859
aS'#353535'
p860
aS'#757575'
p861
aS'#727271'
p862
aS'#b5b5b4'
p863
aS'#fdfdfd'
p864
aS'#bfbdb7'
p865
aS'#84827c'
p866
aS'#272622'
p867
aS'#9c9c9c'
p868
aS'#808080'
p869
aS'#afafaf'
p870
aS'#1e1931'
p871
aS'#bab1b3'
p872
aS'#7b635e'
p873
aS'#6e7063'
p874
aS'#191d1c'
p875
aS'#c8c8ba'
p876
aS'#d7d8d2'
p877
aS'#544b52'
p878
aS'#c1394b'
p879
aS'#5c5d5b'
p880
aS'#030503'
p881
aS'#2e2f2d'
p882
aS'#cecece'
p883
aS'#050505'
p884
aS'#7f7f7f'
p885
aS'#1b1b1b'
p886
aS'#979797'
p887
aS'#636363'
p888
aS'#1a1b19'
p889
aS'#898b88'
p890
aS'#f2f4f1'
p891
aS'#bbbbbb'
p892
aS'#fcfcfc'
p893
aS'#636363'
p894
aS'#24170c'
p895
aS'#986a32'
p896
aS'#cdb998'
p897
aS'#dcd6ce'
p898
aS'#332d2a'
p899
aS'#a27857'
p900
aS'#898989'
p901
aS'#0f0f0f'
p902
aS'#f6fbf5'
p903
aS'#bfb5c5'
p904
aS'#4eb8c5'
p905
aS'#238ab1'
p906
aS'#a8a8a8'
p907
aS'#d7d8da'
p908
aS'#706f70'
p909
aS'#2f201f'
p910
aS'#705e5b'
p911
aS'#b79b8f'
p912
aS'#aaaaaa'
p913
aS'#040404'
p914
aS'#4e4e4e'
p915
aS'#b4b2ab'
p916
aS'#53524e'
p917
aS'#060605'
p918
aS'#b5b5b5'
p919
aS'#716f71'
p920
aS'#1a1a1c'
p921
aS'#8a8a8a'
p922
aS'#fefefe'
p923
aS'#131313'
p924
aS'#8a6863'
p925
aS'#3c2e1f'
p926
aS'#c4c4cb'
p927
aS'#c7c7c7'
p928
aS'#8c8c8c'
p929
aS'#393939'
p930
aS'#c6c6c6'
p931
aS'#818181'
p932
aS'#393939'
p933
aS'#d7d6d7'
p934
aS'#665e66'
p935
aS'#969096'
p936
aS'#979797'
p937
aS'#ededed'
p938
aS'#393939'
p939
aS'#ebedea'
p940
aS'#b9b9b9'
p941
aS'#3e3e3e'
p942
aS'#29282b'
p943
aS'#a3a1a4'
p944
aS'#676367'
p945
aS'#c7c6ca'
p946
aS'#6c6b6f'
p947
aS'#212123'
p948
aS'#55504a'
p949
aS'#f8f5eb'
p950
aS'#c2b8a5'
p951
aS'#7e8d85'
p952
aS'#e6f0eb'
p953
aS'#0b0f0e'
p954
aS'#727073'
p955
aS'#1d1c1f'
p956
aS'#a8a7a9'
p957
aS'#ababab'
p958
aS'#797979'
p959
aS'#242424'
p960
aS'#000000'
p961
aS'#5a5a5a'
p962
aS'#aaaaaa'
p963
aS'#1c1c1c'
p964
aS'#767676'
p965
aS'#d6d6d6'
p966
aS'#7f7e7e'
p967
aS'#f2efee'
p968
aS'#0a0a0a'
p969
aS'#dcd6de'
p970
aS'#b7a195'
p971
aS'#9e8980'
p972
aS'#a7b5ae'
p973
aS'#7b8571'
p974
aS'#3f534f'
p975
aS'#a8a8a8'
p976
aS'#000000'
p977
aS'#515151'
p978
aS'#818181'
p979
aS'#2c2c2c'
p980
aS'#a9a9a9'
p981
aS'#745340'
p982
aS'#be8f46'
p983
aS'#23335f'
p984
aS'#a8a8a8'
p985
aS'#797979'
p986
aS'#242424'
p987
aS'#6d6d6b'
p988
aS'#eeefeb'
p989
aS'#151515'
p990
aS'#2e2e2f'
p991
aS'#b6865a'
p992
aS'#788d9c'
p993
aS'#7c7b7d'
p994
aS'#c8c8c8'
p995
aS'#3d3d3f'
p996
aS'#3a1e1e'
p997
aS'#c7a9bd'
p998
aS'#925c61'
p999
aS'#100816'
p1000
aS'#381248'
p1001
aS'#b69abe'
p1002
aS'#aeaeae'
p1003
aS'#878787'
p1004
aS'#585858'
p1005
aS'#1e1e1f'
p1006
aS'#666769'
p1007
aS'#a8a8a8'
p1008
aS'#fefefe'
p1009
aS'#b75e77'
p1010
aS'#cfbcc1'
p1011
aS'#25261c'
p1012
aS'#754f40'
p1013
aS'#cdaaa2'
p1014
aS'#fcfcfc'
p1015
aS'#9f9f9f'
p1016
aS'#373737'
p1017
aS'#a0a0a0'
p1018
aS'#292929'
p1019
aS'#545454'
p1020
aS'#858585'
p1021
aS'#020202'
p1022
aS'#c4c4c4'
p1023
aS'#1f1513'
p1024
aS'#262b2b'
p1025
aS'#120609'
p1026
aS'#544f54'
p1027
aS'#fbfafb'
p1028
aS'#bba596'
p1029
aS'#e1c5a5'
p1030
aS'#6e5747'
p1031
aS'#b99a80'
p1032
aS'#9a959b'
p1033
aS'#302b31'
p1034
aS'#d0cbd1'
p1035
aS'#a16f7b'
p1036
aS'#f8dcea'
p1037
aS'#dcbccb'
p1038
aS'#070707'
p1039
aS'#e0e0e0'
p1040
aS'#7d7d7d'
p1041
aS'#cfc4bc'
p1042
aS'#768595'
p1043
aS'#4c5462'
p1044
aS'#264d62'
p1045
aS'#76bfd9'
p1046
aS'#406e91'
p1047
aS'#6f6c6d'
p1048
aS'#3a363a'
p1049
aS'#969393'
p1050
aS'#a7a7a7'
p1051
aS'#000002'
p1052
aS'#fbfbfb'
p1053
aS'#999999'
p1054
aS'#464646'
p1055
aS'#d9d9d9'
p1056
aS'#161612'
p1057
aS'#d1d1cd'
p1058
aS'#717069'
p1059
aS'#1f1b19'
p1060
aS'#a26447'
p1061
aS'#d4ad94'
p1062
aS'#5b5b5b'
p1063
aS'#a6a6a6'
p1064
aS'#0a0a0a'
p1065
aS'#a0a19e'
p1066
aS'#010101'
p1067
aS'#545653'
p1068
aS'#1a1a1a'
p1069
aS'#5e5d60'
p1070
aS'#c2bec3'
p1071
aS'#444444'
p1072
aS'#d0d0d0'
p1073
aS'#848484'
p1074
aS'#8e8e8e'
p1075
aS'#424242'
p1076
aS'#000000'
p1077
aS'#e7d6ce'
p1078
aS'#784649'
p1079
aS'#c48d90'
p1080
aS'#898989'
p1081
aS'#181818'
p1082
aS'#797979'
p1083
aS'#e2e2e2'
p1084
aS'#c3c3c3'
p1085
aS'#d1d1d1'
p1086
aS'#ecceab'
p1087
aS'#93655b'
p1088
aS'#cb9776'
p1089
aS'#0b0b0b'
p1090
aS'#fbfbfa'
p1091
aS'#848483'
p1092
aS'#4d4d4d'
p1093
aS'#7d7d7d'
p1094
aS'#1d1d1d'
p1095
aS'#9a9a9a'
p1096
aS'#656565'
p1097
aS'#2d2d2d'
p1098
aS'#b7b7b7'
p1099
aS'#6e6e6e'
p1100
aS'#555555'
p1101
aS'#a09fa1'
p1102
aS'#5e595f'
p1103
aS'#dbdbdb'
p1104
aS'#7e7c7f'
p1105
aS'#2f2d30'
p1106
aS'#d5d4d5'
p1107
aS'#e2c284'
p1108
aS'#903892'
p1109
aS'#1b2e46'
p1110
aS'#ab796b'
p1111
aS'#f19a63'
p1112
aS'#686669'
p1113
aS'#888889'
p1114
aS'#58575a'
p1115
aS'#bdbdbf'
p1116
aS'#747474'
p1117
aS'#575757'
p1118
aS'#262626'
p1119
aS'#9a9a9c'
p1120
aS'#4f4f51'
p1121
aS'#000002'
p1122
aS'#58413d'
p1123
aS'#d3cecd'
p1124
aS'#af9b9a'
p1125
aS'#a3b0b6'
p1126
aS'#f0fcfc'
p1127
aS'#151a22'
p1128
aS'#858585'
p1129
aS'#999999'
p1130
aS'#b1b1b1'
p1131
aS'#454545'
p1132
aS'#000000'
p1133
aS'#8c8c8c'
p1134
aS'#996959'
p1135
aS'#2a0d28'
p1136
aS'#cdc7b5'
p1137
aS'#aeaeae'
p1138
aS'#161616'
p1139
aS'#595959'
p1140
aS'#e7e8ec'
p1141
aS'#968b97'
p1142
aS'#39333d'
p1143
aS'#6e6a6f'
p1144
aS'#989899'
p1145
aS'#cdcdcd'
p1146
aS'#bababa'
p1147
aS'#272727'
p1148
aS'#666666'
p1149
aS'#676568'
p1150
aS'#bababa'
p1151
aS'#010103'
p1152
aS'#e5e5e7'
p1153
aS'#5f5f61'
p1154
aS'#767678'
p1155
aS'#d9ae7d'
p1156
aS'#ecdfd1'
p1157
aS'#4a2e2f'
p1158
aS'#dbd8e7'
p1159
aS'#b8b5cb'
p1160
aS'#998dac'
p1161
aS'#272727'
p1162
aS'#aeaeae'
p1163
aS'#6e6e6e'
p1164
aS'#6d6f61'
p1165
aS'#20241d'
p1166
aS'#b4b3ac'
p1167
aS'#8a8080'
p1168
aS'#a8aab0'
p1169
aS'#433633'
p1170
aS'#3a4244'
p1171
aS'#87746c'
p1172
aS'#c89a72'
p1173
aS'#c1d4e8'
p1174
aS'#9faab7'
p1175
aS'#6d899c'
p1176
aS'#643721'
p1177
aS'#3d140c'
p1178
aS'#9f6843'
p1179
aS'#444846'
p1180
aS'#b9bbb8'
p1181
aS'#020202'
p1182
aS'#706170'
p1183
aS'#2b262d'
p1184
aS'#afa6a4'
p1185
aS'#757770'
p1186
aS'#cdcac5'
p1187
aS'#1a1d1c'
p1188
aS'#6e6a67'
p1189
aS'#36322f'
p1190
aS'#aca8a6'
p1191
aS'#434344'
p1192
aS'#b5b5c2'
p1193
aS'#967381'
p1194
aS'#86725e'
p1195
aS'#271c12'
p1196
aS'#cabeb0'
p1197
aS'#bbbabb'
p1198
aS'#f6f6f6'
p1199
aS'#727274'
p1200
aS'#0c0c0c'
p1201
aS'#313131'
p1202
aS'#1b1b1b'
p1203
aS'#9a989a'
p1204
aS'#08080a'
p1205
aS'#524f54'
p1206
aS'#838186'
p1207
aS'#b0afb2'
p1208
aS'#3f3d41'
p1209
aS'#222222'
p1210
aS'#7b7b7b'
p1211
aS'#f1f1f1'
p1212
aS'#f2f2f2'
p1213
aS'#545454'
p1214
aS'#b2b2b2'
p1215
aS'#aeb1ad'
p1216
aS'#f6fbf5'
p1217
aS'#5f625e'
p1218
aS'#828586'
p1219
aS'#46120b'
p1220
aS'#736e6f'
p1221
aS'#503f30'
p1222
aS'#bdaa91'
p1223
aS'#f0ede2'
p1224
aS'#6b6b6b'
p1225
aS'#d4d4d4'
p1226
aS'#1c1c1c'
p1227
aS'#a1a0a1'
p1228
aS'#585559'
p1229
aS'#d4d4d4'
p1230
aS'#9e9e9e'
p1231
aS'#e9e9e9'
p1232
aS'#4c4c4c'
p1233
aS'#535353'
p1234
aS'#bebebe'
p1235
aS'#9a9a9a'
p1236
aS'#979694'
p1237
aS'#383532'
p1238
aS'#f7f7f7'
p1239
aS'#141414'
p1240
aS'#141414'
p1241
aS'#141414'
p1242
aS'#e3e1e4'
p1243
aS'#302b3f'
p1244
aS'#0f101e'
p1245
aS'#9c9c9c'
p1246
aS'#010101'
p1247
aS'#474747'
p1248
aS'#555555'
p1249
aS'#161616'
p1250
aS'#8c8c8c'
p1251
aS'#898a92'
p1252
aS'#dadadd'
p1253
aS'#36353c'
p1254
aS'#d5d5d1'
p1255
aS'#818377'
p1256
aS'#353630'
p1257
aS'#5a372a'
p1258
aS'#ac9082'
p1259
aS'#dacdc5'
p1260
aS'#c1bfc1'
p1261
aS'#252327'
p1262
aS'#777378'
p1263
aS'#6c7289'
p1264
aS'#504f54'
p1265
aS'#b0b8a6'
p1266
aS'#947f90'
p1267
aS'#0d0c0e'
p1268
aS'#d5d1ca'
p1269
aS'#aba5a2'
p1270
aS'#252424'
p1271
aS'#ebe4e0'
p1272
aS'#252820'
p1273
aS'#b8bcb5'
p1274
aS'#3d4038'
p1275
aS'#f6f6f6'
p1276
aS'#444445'
p1277
aS'#010103'
p1278
aS'#7e5d4d'
p1279
aS'#dbdade'
p1280
aS'#3c2c23'
p1281
aS'#8a84a4'
p1282
aS'#a77fa0'
p1283
aS'#886794'
p1284
aS'#a7bdc1'
p1285
aS'#87a2ad'
p1286
aS'#cdd3ce'
p1287
aS'#7e6b55'
p1288
aS'#080301'
p1289
aS'#bcbeb5'
p1290
aS'#767477'
p1291
aS'#2e2c2f'
p1292
aS'#efeef0'
p1293
aS'#7e7e7c'
p1294
aS'#c3c6c7'
p1295
aS'#0f0f0f'
p1296
aS'#989898'
p1297
aS'#777777'
p1298
aS'#545454'
p1299
aS'#6e6e6e'
p1300
aS'#0c0c0c'
p1301
aS'#cecece'
p1302
aS'#222323'
p1303
aS'#fefefe'
p1304
aS'#898989'
p1305
aS'#8cadd4'
p1306
aS'#987f60'
p1307
aS'#3a4d4f'
p1308
aS'#bbbbbc'
p1309
aS'#6c6c6d'
p1310
aS'#fefefe'
p1311
aS'#999a99'
p1312
aS'#131313'
p1313
aS'#0d0e0c'
p1314
aS'#5e5c5d'
p1315
aS'#fcfcfc'
p1316
aS'#b0b1b2'
p1317
aS'#492f1b'
p1318
aS'#ecdab5'
p1319
aS'#ab895a'
p1320
aS'#614c7c'
p1321
aS'#cbb6d8'
p1322
aS'#14141d'
p1323
aS'#6b6b6b'
p1324
aS'#a3a3a3'
p1325
aS'#1a1a1a'
p1326
aS'#8c8c8c'
p1327
aS'#fafafa'
p1328
aS'#c5c5c5'
p1329
aS'#898887'
p1330
aS'#c6c5c5'
p1331
aS'#3b3a3a'
p1332
aS'#787d78'
p1333
aS'#96a3a5'
p1334
aS'#37363b'
p1335
aS'#3e1820'
p1336
aS'#c15c7b'
p1337
aS'#a0293c'
p1338
aS'#5b595d'
p1339
aS'#0f0e11'
p1340
aS'#aaa9ab'
p1341
aS'#a6a6b5'
p1342
aS'#c4c7d3'
p1343
aS'#717581'
p1344
aS'#9e9e9e'
p1345
aS'#656565'
p1346
aS'#1b1b1b'
p1347
aS'#050505'
p1348
aS'#565656'
p1349
aS'#ababab'
p1350
aS'#d3cfd3'
p1351
aS'#59525a'
p1352
aS'#a8a1a9'
p1353
aS'#4e4e4e'
p1354
aS'#a0a0a0'
p1355
aS'#dcdcdc'
p1356
aS'#d06758'
p1357
aS'#ece5c9'
p1358
aS'#41151e'
p1359
aS'#b17959'
p1360
aS'#e9e4e1'
p1361
aS'#43373d'
p1362
aS'#141c1f'
p1363
aS'#3a4148'
p1364
aS'#040808'
p1365
aS'#1c1c1c'
p1366
aS'#404040'
p1367
aS'#676767'
p1368
aS'#605e60'
p1369
aS'#121112'
p1370
aS'#acabac'
p1371
aS'#785049'
p1372
aS'#17111e'
p1373
aS'#9c8475'
p1374
aS'#494e4b'
p1375
aS'#191e21'
p1376
aS'#b2b6b3'
p1377
aS'#c9beb0'
p1378
aS'#56493b'
p1379
aS'#21201b'
p1380
aS'#4a4b5e'
p1381
aS'#d0d0e2'
p1382
aS'#9496a8'
p1383
aS'#b4b0af'
p1384
aS'#e6e5e3'
p1385
aS'#7f7b7a'
p1386
aS'#666666'
p1387
aS'#2d2d2d'
p1388
aS'#4f4f4f'
p1389
aS'#e8e8e8'
p1390
aS'#717171'
p1391
aS'#3e3e3e'
p1392
aS'#6b6962'
p1393
aS'#dfeced'
p1394
aS'#2a2420'
p1395
aS'#1f1915'
p1396
aS'#e0c17c'
p1397
aS'#875b49'
p1398
aS'#a57d5a'
p1399
aS'#412023'
p1400
aS'#ebe4c2'
p1401
aS'#24222a'
p1402
aS'#8d8c98'
p1403
aS'#d4d3d8'
p1404
aS'#171717'
p1405
aS'#bdbdbd'
p1406
aS'#5d5d5d'
p1407
aS'#8f6861'
p1408
aS'#cdb096'
p1409
aS'#4f3137'
p1410
aS'#121211'
p1411
aS'#787977'
p1412
aS'#f2f7f1'
p1413
aS'#dfdedf'
p1414
aS'#78787a'
p1415
aS'#010102'
p1416
aS'#fdfdfd'
p1417
aS'#adadad'
p1418
aS'#626262'
p1419
aS'#a0a0a0'
p1420
aS'#4e4e4e'
p1421
aS'#181818'
p1422
aS'#575757'
p1423
aS'#939393'
p1424
aS'#191919'
p1425
aS'#b8b8b7'
p1426
aS'#a9a8a6'
p1427
aS'#c3c3c3'
p1428
aS'#c4c4c4'
p1429
aS'#fdfdfd'
p1430
aS'#8b8b8b'
p1431
aS'#191b18'
p1432
aS'#757872'
p1433
aS'#b5b9b2'
p1434
aS'#434542'
p1435
aS'#c8ccc0'
p1436
aS'#8d8a7a'
p1437
aS'#dadada'
p1438
aS'#080808'
p1439
aS'#757575'
p1440
aS'#959595'
p1441
aS'#787779'
p1442
aS'#474648'
p1443
aS'#8a868a'
p1444
aS'#d8c4b2'
p1445
aS'#122051'
p1446
aS'#141213'
p1447
aS'#a1a398'
p1448
aS'#5a5e4c'
p1449
aS'#69676b'
p1450
aS'#413735'
p1451
aS'#be9480'
p1452
aS'#545e86'
p1453
aS'#d4e5e3'
p1454
aS'#79a9b7'
p1455
aS'#191919'
p1456
aS'#a0a0a0'
p1457
aS'#707070'
p1458
aS'#d2bab0'
p1459
aS'#181310'
p1460
aS'#93817d'
p1461
aS'#090509'
p1462
aS'#473530'
p1463
aS'#b8a79b'
p1464
aS'#4f354b'
p1465
aS'#f0c193'
p1466
aS'#fefced'
p1467
aS'#403b4c'
p1468
aS'#9d8f88'
p1469
aS'#08070b'
p1470
aS'#737373'
p1471
aS'#363636'
p1472
aS'#d1d1d1'
p1473
aS'#271832'
p1474
aS'#dca68f'
p1475
aS'#9f534a'
p1476
aS'#78aaaa'
p1477
aS'#acdad9'
p1478
aS'#28575c'
p1479
aS'#cac0bb'
p1480
aS'#968c88'
p1481
aS'#564f4c'
p1482
aS'#43403d'
p1483
aS'#f1eae4'
p1484
aS'#8b8580'
p1485
aS'#838f84'
p1486
aS'#aebdaf'
p1487
aS'#cfddd0'
p1488
aS'#cad7da'
p1489
aS'#372116'
p1490
aS'#84746a'
p1491
aS'#a37639'
p1492
aS'#cbb17b'
p1493
aS'#553b08'
p1494
aS'#c2c1c2'
p1495
aS'#6e747f'
p1496
aS'#9da0a7'
p1497
aS'#656565'
p1498
aS'#a3a3a3'
p1499
aS'#1e1e1e'
p1500
aS'#000000'
p1501
aS'#000000'
p1502
aS'#000000'
p1503
aS'#53514d'
p1504
aS'#a4a199'
p1505
aS'#1b1815'
p1506
aS'#eeeeee'
p1507
aS'#787878'
p1508
aS'#333333'
p1509
aS'#000000'
p1510
aS'#dadada'
p1511
aS'#757575'
p1512
aS'#e2e2e2'
p1513
aS'#020202'
p1514
aS'#6a6a6a'
p1515
aS'#dadada'
p1516
aS'#909090'
p1517
aS'#4e4e4e'
p1518
aS'#917970'
p1519
aS'#4c4949'
p1520
aS'#6e635f'
p1521
aS'#9c9c9c'
p1522
aS'#fdfdfd'
p1523
aS'#222222'
p1524
aS'#636363'
p1525
aS'#d0d0d0'
p1526
aS'#020202'
p1527
aS'#612737'
p1528
aS'#c1bdbe'
p1529
aS'#1d0e10'
p1530
aS'#414043'
p1531
aS'#575558'
p1532
aS'#373638'
p1533
aS'#222322'
p1534
aS'#d1ced2'
p1535
aS'#78767a'
p1536
aS'#b5b5b5'
p1537
aS'#353535'
p1538
aS'#797979'
p1539
aS'#979797'
p1540
aS'#2d2d2d'
p1541
aS'#e6e6e6'
p1542
aS'#c4c4c4'
p1543
aS'#2c2c2c'
p1544
aS'#7c7c7c'
p1545
aS'#bebebe'
p1546
aS'#808080'
p1547
aS'#212121'
p1548
aS'#181a1a'
p1549
aS'#0f1111'
p1550
aS'#202323'
p1551
aS'#acacad'
p1552
aS'#d1d1d1'
p1553
aS'#7f7e7f'
p1554
aS'#e1d1c7'
p1555
aS'#9a8275'
p1556
aS'#291a17'
p1557
aS'#a9abbd'
p1558
aS'#615f5f'
p1559
aS'#e1e0e0'
p1560
aS'#979797'
p1561
aS'#4d4d4d'
p1562
aS'#acacac'
p1563
aS'#a8b6b4'
p1564
aS'#4f4a45'
p1565
aS'#7c8282'
p1566
aS'#464546'
p1567
aS'#9a9999'
p1568
aS'#818080'
p1569
aS'#522935'
p1570
aS'#ad7664'
p1571
aS'#eedfbd'
p1572
aS'#b2b2b3'
p1573
aS'#1f1f21'
p1574
aS'#5b5a5d'
p1575
aS'#9a9694'
p1576
aS'#d7d6d4'
p1577
aS'#403c35'
p1578
aS'#050505'
p1579
aS'#656565'
p1580
aS'#c9c9c9'
p1581
aS'#29272b'
p1582
aS'#7c787d'
p1583
aS'#d0d0d0'
p1584
aS'#054566'
p1585
aS'#075e8b'
p1586
aS'#26a9dd'
p1587
aS'#855d59'
p1588
aS'#bb9489'
p1589
aS'#493444'
p1590
aS'#787878'
p1591
aS'#161617'
p1592
aS'#d5d5d5'
p1593
aS'#c7cac6'
p1594
aS'#b0b3af'
p1595
aS'#d7dbd6'
p1596
aS'#d0d0d0'
p1597
aS'#b6b6b6'
p1598
aS'#c3c3c3'
p1599
aS'#a19398'
p1600
aS'#473134'
p1601
aS'#f8f5f8'
p1602
aS'#dcdcdc'
p1603
aS'#858585'
p1604
aS'#222222'
p1605
aS'#845943'
p1606
aS'#c1987a'
p1607
aS'#361b16'
p1608
aS'#050505'
p1609
aS'#aaaaaa'
p1610
aS'#515151'
p1611
aS'#03120d'
p1612
aS'#1c382e'
p1613
aS'#5c8375'
p1614
aS'#7e6759'
p1615
aS'#bfa695'
p1616
aS'#1c1515'
p1617
aS'#b5adac'
p1618
aS'#282224'
p1619
aS'#95867e'
p1620
aS'#c9c9c8'
p1621
aS'#8f8f8f'
p1622
aS'#fefefd'
p1623
aS'#969599'
p1624
aS'#38383b'
p1625
aS'#eeedf5'
p1626
aS'#865c40'
p1627
aS'#4b2b1c'
p1628
aS'#ccc6b9'
p1629
aS'#3d3a3a'
p1630
aS'#878787'
p1631
aS'#6f6f6f'
p1632
aS'#353535'
p1633
aS'#fdfdfd'
p1634
aS'#9e9e9e'
p1635
aS'#daddef'
p1636
aS'#b6c2f3'
p1637
aS'#f0cef0'
p1638
aS'#888888'
p1639
aS'#d5d5d5'
p1640
aS'#2b2b2b'
p1641
aS'#848484'
p1642
aS'#c3c3c3'
p1643
aS'#3e3e3e'
p1644
aS'#4d4a4f'
p1645
aS'#9e9ca0'
p1646
aS'#cecdd0'
p1647
aS'#c7cbd3'
p1648
aS'#eef0f3'
p1649
aS'#dddfe4'
p1650
aS'#f3dabe'
p1651
aS'#8b6e5b'
p1652
aS'#c9b29a'
p1653
aS'#c3b7bb'
p1654
aS'#5f5960'
p1655
aS'#2e2a32'
p1656
aS'#9a9a9b'
p1657
aS'#fdfdfd'
p1658
aS'#141416'
p1659
aS'#f4f8fb'
p1660
aS'#51778e'
p1661
aS'#a5c6d9'
p1662
aS'#858784'
p1663
aS'#e1e3e0'
p1664
aS'#424441'
p1665
aS'#060606'
p1666
aS'#71716f'
p1667
aS'#353533'
p1668
aS'#dcdbd9'
p1669
aS'#acb1b1'
p1670
aS'#8c847a'
p1671
aS'#f2f2f2'
p1672
aS'#848484'
p1673
aS'#1c1c1c'
p1674
aS'#5b5c61'
p1675
aS'#b6a59a'
p1676
aS'#36363a'
p1677
aS'#a7a595'
p1678
aS'#dbd8da'
p1679
aS'#fcfcfc'
p1680
aS'#999699'
p1681
aS'#4d4a4d'
p1682
aS'#0c0b0e'
p1683
aS'#6c6b6d'
p1684
aS'#cecece'
p1685
aS'#9b9b9b'
p1686
aS'#777777'
p1687
aS'#2a2a2a'
p1688
aS'#e8e8e8'
p1689
aS'#7d7c7e'
p1690
aS'#414143'
p1691
aS'#000002'
p1692
aS'#fdfdfd'
p1693
aS'#473e3c'
p1694
aS'#a4a3a2'
p1695
aS'#d5d4d5'
p1696
aS'#8a898b'
p1697
aS'#fcfcfc'
p1698
aS'#a5a8b4'
p1699
aS'#565863'
p1700
aS'#cdcbd6'
p1701
aS'#e8e6e8'
p1702
aS'#927189'
p1703
aS'#534059'
p1704
aS'#919192'
p1705
aS'#515152'
p1706
aS'#111113'
p1707
aS'#786b6a'
p1708
aS'#b7aca9'
p1709
aS'#171316'
p1710
aS'#c4c4c5'
p1711
aS'#7e7d7e'
p1712
aS'#19191b'
p1713
aS'#605e60'
p1714
aS'#c8c8c8'
p1715
aS'#1b1b1d'
p1716
aS'#b6ad63'
p1717
aS'#6b3f26'
p1718
aS'#deedbc'
p1719
aS'#5b5b59'
p1720
aS'#adaeaa'
p1721
aS'#d5d6d2'
p1722
aS'#444245'
p1723
aS'#706e71'
p1724
aS'#0d0c0e'
p1725
aS'#919191'
p1726
aS'#fcfdfc'
p1727
aS'#1a1a1b'
p1728
aS'#ccc7a8'
p1729
aS'#131331'
p1730
aS'#89857c'
p1731
aS'#ac8e6a'
p1732
aS'#e4e1dc'
p1733
aS'#643828'
p1734
aS'#080808'
p1735
aS'#7d7d7d'
p1736
aS'#f0f0f0'
p1737
aS'#7d7a7a'
p1738
aS'#131719'
p1739
aS'#c8bfbe'
p1740
aS'#9a8e83'
p1741
aS'#605549'
p1742
aS'#342820'
p1743
aS'#eeede9'
p1744
aS'#443455'
p1745
aS'#9e9086'
p1746
aS'#050507'
p1747
aS'#9c9b9c'
p1748
aS'#4b494d'
p1749
aS'#d7d9d3'
p1750
aS'#2d1e17'
p1751
aS'#a87956'
p1752
aS'#151319'
p1753
aS'#48587d'
p1754
aS'#849dc9'
p1755
aS'#f8f8f8'
p1756
aS'#454644'
p1757
aS'#9d9d9c'
p1758
aS'#747474'
p1759
aS'#c6c6c6'
p1760
aS'#141414'
p1761
aS'#a2a2a2'
p1762
aS'#191919'
p1763
aS'#626262'
p1764
aS'#030303'
p1765
aS'#050404'
p1766
aS'#080405'
p1767
aS'#fdfdfd'
p1768
aS'#a4a4a4'
p1769
aS'#282828'
p1770
aS'#131414'
p1771
aS'#f0f0f0'
p1772
aS'#4b5c6d'
p1773
aS'#b7b7b7'
p1774
aS'#484848'
p1775
aS'#f8f8f8'
p1776
aS'#505050'
p1777
aS'#0d0d0d'
p1778
aS'#9c9c9c'
p1779
aS'#3e4041'
p1780
aS'#f7f7f7'
p1781
aS'#b4b5b4'
p1782
aS'#aea2a6'
p1783
aS'#58455c'
p1784
aS'#f8f2f3'
p1785
aS'#928674'
p1786
aS'#a9b2aa'
p1787
aS'#7a5747'
p1788
aS'#b5aaa6'
p1789
aS'#7d5f5a'
p1790
aS'#2e0e11'
p1791
aS'#aaaaaa'
p1792
aS'#cdcdcd'
p1793
aS'#606060'
p1794
aS'#fefefe'
p1795
aS'#cdcdcd'
p1796
aS'#9f9f9f'
p1797
aS'#9b5667'
p1798
aS'#472e2d'
p1799
aS'#d96a62'
p1800
aS'#777b76'
p1801
aS'#a8aca0'
p1802
aS'#152430'
p1803
aS'#161618'
p1804
aS'#161619'
p1805
aS'#16151a'
p1806
aS'#2d2c2c'
p1807
aS'#8b8885'
p1808
aS'#cecbc8'
p1809
aS'#a49693'
p1810
aS'#fbfafb'
p1811
aS'#2c2828'
p1812
aS'#a9a9a9'
p1813
aS'#5a5a5a'
p1814
aS'#f5f5f5'
p1815
aS'#dddedd'
p1816
aS'#895432'
p1817
aS'#b3b0ae'
p1818
aS'#090a0a'
p1819
aS'#656666'
p1820
aS'#f5f5f5'
p1821
aS'#c79882'
p1822
aS'#1e171e'
p1823
aS'#ac7f70'
p1824
aS'#a6a6a6'
p1825
aS'#7c7c7c'
p1826
aS'#343434'
p1827
aS'#261c2a'
p1828
aS'#98755f'
p1829
aS'#e5d3a7'
p1830
aS'#f8e5d3'
p1831
aS'#4382a0'
p1832
aS'#b3b7bd'
p1833
aS'#9c836b'
p1834
aS'#37232d'
p1835
aS'#d0d1bd'
p1836
aS'#010006'
p1837
aS'#030207'
p1838
aS'#000004'
p1839
aS'#976065'
p1840
aS'#270d33'
p1841
aS'#d8a98b'
p1842
aS'#121214'
p1843
aS'#79797b'
p1844
aS'#c9c9ca'
p1845
aS'#12100f'
p1846
aS'#514e4e'
p1847
aS'#a0a4a9'
p1848
aS'#090909'
p1849
aS'#a6a6a6'
p1850
aS'#4d4d4d'
p1851
aS'#fcfcfc'
p1852
aS'#313131'
p1853
aS'#989898'
p1854
aS'#8c624e'
p1855
aS'#cfb89c'
p1856
aS'#3c2225'
p1857
aS'#fefefe'
p1858
aS'#c7cac6'
p1859
aS'#91968f'
p1860
aS'#472834'
p1861
aS'#976e78'
p1862
aS'#d8bdd6'
p1863
aS'#0c0c0c'
p1864
aS'#4f4f4f'
p1865
aS'#8c8c8c'
p1866
aS'#272523'
p1867
aS'#c9c5b5'
p1868
aS'#81776a'
p1869
aS'#696969'
p1870
aS'#181818'
p1871
aS'#e7e7e7'
p1872
aS'#646571'
p1873
aS'#2c2d3b'
p1874
aS'#aeafb8'
p1875
aS'#ceebdf'
p1876
aS'#c9d6e4'
p1877
aS'#f6d4d9'
p1878
aS'#7a7879'
p1879
aS'#d8d7d9'
p1880
aS'#0e0d0e'
p1881
aS'#8b6a94'
p1882
aS'#c1aab8'
p1883
aS'#2e243a'
p1884
aS'#282828'
p1885
aS'#6c6c6c'
p1886
aS'#a1a1a1'
p1887
aS'#6b6b6b'
p1888
aS'#fdfdfd'
p1889
aS'#bababa'
p1890
aS'#cca384'
p1891
aS'#302423'
p1892
aS'#846151'
p1893
aS'#c0c4cd'
p1894
aS'#a56d4c'
p1895
aS'#534553'
p1896
aS'#b7b7b7'
p1897
aS'#fafafa'
p1898
aS'#6e6d6e'
p1899
aS'#747474'
p1900
aS'#dadada'
p1901
aS'#bcbcbc'
p1902
aS'#cbcbcc'
p1903
aS'#18151a'
p1904
aS'#787279'
p1905
aS'#36363a'
p1906
aS'#ececec'
p1907
aS'#969496'
p1908
aS'#efd7d7'
p1909
aS'#675753'
p1910
aS'#af9174'
p1911
aS'#5e625e'
p1912
aS'#f6fbf5'
p1913
aS'#b6b9b5'
p1914
aS'#c4c2c5'
p1915
aS'#7d7d8c'
p1916
aS'#2f3138'
p1917
aS'#966b50'
p1918
aS'#e3b28a'
p1919
aS'#312219'
p1920
aS'#cfd4c2'
p1921
aS'#210825'
p1922
aS'#797478'
p1923
aS'#1c1c1c'
p1924
aS'#f9f9f9'
p1925
aS'#a6a6a6'
p1926
aS'#060606'
p1927
aS'#666666'
p1928
aS'#d0d0d0'
p1929
aS'#c7c7c7'
p1930
aS'#8d8d8d'
p1931
aS'#5e5e5e'
p1932
aS'#151517'
p1933
aS'#dadada'
p1934
aS'#79777a'
p1935
aS'#d1836b'
p1936
aS'#c3445b'
p1937
aS'#a7894e'
p1938
aS'#1b1b1b'
p1939
aS'#8b8b8b'
p1940
aS'#535353'
p1941
aS'#cbada6'
p1942
aS'#693d3c'
p1943
aS'#bc7049'
p1944
aS'#dcb78b'
p1945
aS'#8d754d'
p1946
aS'#2a1b0f'
p1947
aS'#989898'
p1948
aS'#1d1d1d'
p1949
aS'#4a4a4a'
p1950
aS'#909090'
p1951
aS'#525252'
p1952
aS'#9f9f9f'
p1953
aS'#a2a59f'
p1954
aS'#fbfbfb'
p1955
aS'#171717'
p1956
aS'#221030'
p1957
aS'#d1cab0'
p1958
aS'#9e7771'
p1959
aS'#b0b0b0'
p1960
aS'#f3f3f3'
p1961
aS'#717171'
p1962
aS'#7f4e58'
p1963
aS'#ba9d9e'
p1964
aS'#e3d0cc'
p1965
aS'#8595bc'
p1966
aS'#9eb7e1'
p1967
aS'#43475d'
p1968
aS'#37adad'
p1969
aS'#37cbc9'
p1970
aS'#1d898a'
p1971
aS'#5b5b5b'
p1972
aS'#828282'
p1973
aS'#afafaf'
p1974
aS'#a0a4a6'
p1975
aS'#474f52'
p1976
aS'#171c1d'
p1977
aS'#726242'
p1978
aS'#d1c297'
p1979
aS'#a09069'
p1980
aS'#524a46'
p1981
aS'#c8c4c5'
p1982
aS'#968c8b'
p1983
aS'#cacaca'
p1984
aS'#6b6b6b'
p1985
aS'#222222'
p1986
aS'#41361a'
p1987
aS'#b9ad9a'
p1988
aS'#8f8365'
p1989
aS'#232323'
p1990
aS'#9e9e9e'
p1991
aS'#626262'
p1992
aS'#d2ddf2'
p1993
aS'#28403e'
p1994
aS'#4574e1'
p1995
aS'#e2ca98'
p1996
aS'#a57860'
p1997
aS'#484d4c'
p1998
aS'#828282'
p1999
aS'#4a4a4a'
p2000
aS'#131313'
p2001
aS'#6f6f6f'
p2002
aS'#a9a9a9'
p2003
aS'#3a3a3a'
p2004
aS'#232a2a'
p2005
aS'#b3b2ac'
p2006
aS'#7b7d7b'
p2007
aS'#8d8178'
p2008
aS'#523e42'
p2009
aS'#cfcfc1'
p2010
aS'#181a21'
p2011
aS'#515b6d'
p2012
aS'#3c4251'
p2013
aS'#babfbc'
p2014
aS'#7c7669'
p2015
aS'#2c2c21'
p2016
aS'#777777'
p2017
aS'#e7e7e7'
p2018
aS'#343434'
p2019
aS'#bcbbbb'
p2020
aS'#716f6e'
p2021
aS'#272524'
p2022
aS'#d2c9c9'
p2023
aS'#9a9596'
p2024
aS'#484648'
p2025
aS'#565457'
p2026
aS'#7d7c7e'
p2027
aS'#a4a4a4'
p2028
aS'#bf9e54'
p2029
aS'#d4d0d0'
p2030
aS'#242324'
p2031
aS'#000000'
p2032
aS'#cecece'
p2033
aS'#7a7a7b'
p2034
aS'#292722'
p2035
aS'#838587'
p2036
aS'#544e48'
p2037
aS'#a0684a'
p2038
aS'#362927'
p2039
aS'#c6ab92'
p2040
aS'#0c111b'
p2041
aS'#88b3d2'
p2042
aS'#31587b'
p2043
aS'#e2ded7'
p2044
aS'#160a17'
p2045
aS'#735d5d'
p2046
aS'#f0f0f0'
p2047
aS'#7a7a7a'
p2048
aS'#1b1b1b'
p2049
aS'#494949'
p2050
aS'#e0e0e0'
p2051
aS'#a2a2a2'
p2052
aS'#100c11'
p2053
aS'#d3bda3'
p2054
aS'#806859'
p2055
aS'#dddddd'
p2056
aS'#0b0b0b'
p2057
aS'#7b7b7b'
p2058
aS'#585858'
p2059
aS'#878787'
p2060
aS'#aeaeae'
p2061
aS'#f6f6f6'
p2062
aS'#5a595b'
p2063
aS'#18181a'
p2064
aS'#6b6a69'
p2065
aS'#cac5c3'
p2066
aS'#1e1f21'
p2067
aS'#38383a'
p2068
aS'#626163'
p2069
aS'#111113'
p2070
aS'#d2a378'
p2071
aS'#f3e5cd'
p2072
aS'#202b31'
p2073
aS'#7f676a'
p2074
aS'#030202'
p2075
aS'#d1baaf'
p2076
aS'#a09d99'
p2077
aS'#698087'
p2078
aS'#513627'
p2079
aS'#6c7c83'
p2080
aS'#3c3f34'
p2081
aS'#d7dce4'
p2082
aS'#c5c5c5'
p2083
aS'#8f8f90'
p2084
aS'#525252'
p2085
aS'#484749'
p2086
aS'#b8bab3'
p2087
aS'#7d7c7a'
p2088
aS'#d0c6c5'
p2089
aS'#2e2a2e'
p2090
aS'#757274'
p2091
aS'#1a1a1a'
p2092
aS'#575757'
p2093
aS'#bebebe'
p2094
aS'#8c8b88'
p2095
aS'#4d4d4d'
p2096
aS'#09090a'
p2097
aS'#8f8f8f'
p2098
aS'#e8e8e8'
p2099
aS'#232323'
p2100
aS'#edebe9'
p2101
aS'#302723'
p2102
aS'#847c79'
p2103
aS'#525252'
p2104
aS'#f4f4f4'
p2105
aS'#a3a3a2'
p2106
aS'#203a4a'
p2107
aS'#57829d'
p2108
aS'#0c171f'
p2109
aS'#222038'
p2110
aS'#beaba6'
p2111
aS'#665b75'
p2112
aS'#414142'
p2113
aS'#a5a5a7'
p2114
aS'#e3e5e7'
p2115
aS'#4685c8'
p2116
aS'#381f3d'
p2117
aS'#454b86'
p2118
aS'#302a28'
p2119
aS'#858780'
p2120
aS'#bfc7bd'
p2121
aS'#645859'
p2122
aS'#cac1c2'
p2123
aS'#968b8c'
p2124
aS'#280e0f'
p2125
aS'#6b3222'
p2126
aS'#dbccd0'
p2127
aS'#dac1bd'
p2128
aS'#28171e'
p2129
aS'#8f5652'
p2130
aS'#afb0b0'
p2131
aS'#7a7872'
p2132
aS'#969590'
p2133
aS'#f5faf4'
p2134
aS'#ecf8ed'
p2135
aS'#858785'
p2136
aS'#282726'
p2137
aS'#dddddd'
p2138
aS'#9c9c9a'
p2139
aS'#818181'
p2140
aS'#d6d6d6'
p2141
aS'#303030'
p2142
aS'#7b7b7b'
p2143
aS'#d4d4d4'
p2144
aS'#1d1d1d'
p2145
aS'#697a9c'
p2146
aS'#5b5b6d'
p2147
aS'#6f81a3'
p2148
aS'#f5afdb'
p2149
aS'#b331a0'
p2150
aS'#060107'
p2151
aS'#cccdcc'
p2152
aS'#1d1e1d'
p2153
aS'#8d8e8c'
p2154
aS'#6c6b6d'
p2155
aS'#29292b'
p2156
aS'#a8a8a9'
p2157
aS'#d1d1d1'
p2158
aS'#1a1a1a'
p2159
aS'#818181'
p2160
aS'#a5a5a5'
p2161
aS'#6d6d6d'
p2162
aS'#242424'
p2163
aS'#7c9f07'
p2164
aS'#4d6b05'
p2165
aS'#dacfb8'
p2166
aS'#826544'
p2167
aS'#e8d8c8'
p2168
aS'#cab298'
p2169
aS'#383b37'
p2170
aS'#090c08'
p2171
aS'#a4a7a3'
p2172
aS'#f6f6f6'
p2173
aS'#6a6a6a'
p2174
aS'#c4c4c4'
p2175
aS'#0f0f0f'
p2176
aS'#e4e4e4'
p2177
aS'#757575'
p2178
aS'#f0e1dd'
p2179
aS'#ccb0ac'
p2180
aS'#736067'
p2181
aS'#545454'
p2182
aS'#999999'
p2183
aS'#b6b6b6'
p2184
aS'#93877d'
p2185
aS'#454838'
p2186
aS'#f0f2ed'
p2187
aS'#a4b0ad'
p2188
aS'#b7c1be'
p2189
aS'#6d6e73'
p2190
aS'#cecab6'
p2191
aS'#6a676e'
p2192
aS'#25232c'
p2193
aS'#d3ba9a'
p2194
aS'#7e4a34'
p2195
aS'#f0ebe2'
p2196
aS'#725b41'
p2197
aS'#c7b096'
p2198
aS'#9e876d'
p2199
aS'#000000'
p2200
aS'#919191'
p2201
aS'#4d4d4d'
p2202
aS'#c7cfd1'
p2203
aS'#90989f'
p2204
aS'#293131'
p2205
aS'#252525'
p2206
aS'#9a9a9a'
p2207
aS'#646464'
p2208
aS'#47382b'
p2209
aS'#81543a'
p2210
aS'#a57257'
p2211
aS'#5d4953'
p2212
aS'#888693'
p2213
aS'#b7c1cf'
p2214
aS'#c8c8c8'
p2215
aS'#a88a9c'
p2216
aS'#b1b1b1'
p2217
aS'#c3b6a5'
p2218
aS'#131121'
p2219
aS'#4b5058'
p2220
aS'#5e5e5e'
p2221
aS'#e5e5e5'
p2222
aS'#141414'
p2223
aS'#34135c'
p2224
aS'#5a32b5'
p2225
aS'#9597ee'
p2226
aS'#a98457'
p2227
aS'#39261f'
p2228
aS'#b5d1ca'
p2229
aS'#666666'
p2230
aS'#afafaf'
p2231
aS'#1a1a1a'
p2232
aS'#c8bfb5'
p2233
aS'#67525a'
p2234
aS'#b19189'
p2235
aS'#843a30'
p2236
aS'#ddc044'
p2237
aS'#080807'
p2238
aS'#b6b5b5'
p2239
aS'#fafafa'
p2240
aS'#6d6c6c'
p2241
aS'#cb3473'
p2242
aS'#e969a0'
p2243
aS'#e25893'
p2244
aS'#5e5e5e'
p2245
aS'#fcfcfc'
p2246
aS'#aeaeae'
p2247
aS'#dde0dc'
p2248
aS'#636562'
p2249
aS'#b4b6b3'
p2250
aS'#c3a384'
p2251
aS'#372f2a'
p2252
aS'#f4efe8'
p2253
aS'#646365'
p2254
aS'#131315'
p2255
aS'#b5b5b5'
p2256
aS'#9a907d'
p2257
aS'#472927'
p2258
aS'#f9f8f7'
p2259
aS'#7b7b7b'
p2260
aS'#464845'
p2261
aS'#afafaf'
p2262
aS'#fefefe'
p2263
aS'#525252'
p2264
aS'#a9a9a9'
p2265
aS'#a6a6a6'
p2266
aS'#fdfdfd'
p2267
aS'#3b3b3c'
p2268
aS'#c1c1c0'
p2269
aS'#fefefe'
p2270
aS'#7b7b7b'
p2271
aS'#4b4e3f'
p2272
aS'#b9bb73'
p2273
aS'#17161e'
p2274
aS'#dacccb'
p2275
aS'#a59fa0'
p2276
aS'#34372b'
p2277
aS'#2c1424'
p2278
aS'#ad8577'
p2279
aS'#71474e'
p2280
aS'#cbd1da'
p2281
aS'#8a95a5'
p2282
aS'#535c6b'
p2283
aS'#8c7161'
p2284
aS'#162942'
p2285
aS'#e4b060'
p2286
aS'#65503f'
p2287
aS'#989c8c'
p2288
aS'#81795a'
p2289
aS'#c2bdc5'
p2290
aS'#33403a'
p2291
aS'#7b7877'
p2292
aS'#e1e3e1'
p2293
aS'#b19170'
p2294
aS'#523824'
p2295
aS'#7b6b42'
p2296
aS'#1e1a12'
p2297
aS'#c3beb6'
p2298
aS'#979797'
p2299
aS'#d8d8d8'
p2300
aS'#464646'
p2301
aS'#f6faf4'
p2302
aS'#e0ddd7'
p2303
aS'#bdbcb6'
p2304
aS'#818286'
p2305
aS'#424246'
p2306
aS'#161a1b'
p2307
aS'#424a2a'
p2308
aS'#8f9743'
p2309
aS'#14150e'
p2310
aS'#9c8577'
p2311
aS'#f3f0eb'
p2312
aS'#bba596'
p2313
aS'#9a5b59'
p2314
aS'#e1ceb9'
p2315
aS'#d0997b'
p2316
aS'#4a4a4a'
p2317
aS'#c2c1c1'
p2318
aS'#a7a7a7'
p2319
aS'#d8d0cd'
p2320
aS'#677b81'
p2321
aS'#909ba0'
p2322
aS'#7b8d91'
p2323
aS'#9ac4de'
p2324
aS'#253939'
p2325
aS'#8d8d8d'
p2326
aS'#b9b9b9'
p2327
aS'#f9f9f9'
p2328
aS'#333333'
p2329
aS'#8f8f8f'
p2330
aS'#c4c4c4'
p2331
aS'#242936'
p2332
aS'#837329'
p2333
aS'#64779f'
p2334
aS'#9f7d62'
p2335
aS'#1a1613'
p2336
aS'#f0d3b1'
p2337
aS'#353535'
p2338
aS'#979797'
p2339
aS'#f0f0f0'
p2340
aS'#cccbcc'
p2341
aS'#36363a'
p2342
aS'#afafb1'
p2343
aS'#cbc0b3'
p2344
aS'#462c28'
p2345
aS'#b6aa9b'
p2346
aS'#4f4f4f'
p2347
aS'#bdbdbd'
p2348
aS'#8c8c8c'
p2349
aS'#323232'
p2350
aS'#b5b5b5'
p2351
aS'#7c7c7c'
p2352
aS'#ebdfbd'
p2353
aS'#392e28'
p2354
aS'#cb7a43'
p2355
aS'#7d7c7e'
p2356
aS'#c3c2c4'
p2357
aS'#fefdfe'
p2358
aS'#272a2d'
p2359
aS'#b8c5ca'
p2360
aS'#6b6e6e'
p2361
aS'#cbc2ae'
p2362
aS'#9b907c'
p2363
aS'#e8e8e4'
p2364
aS'#0f0303'
p2365
aS'#110507'
p2366
aS'#0d0302'
p2367
aS'#3b3332'
p2368
aS'#d9def0'
p2369
aS'#9d857c'
p2370
aS'#9c9c9c'
p2371
aS'#e7e7e7'
p2372
aS'#060606'
p2373
aS'#020102'
p2374
aS'#eae9ea'
p2375
aS'#504f51'
p2376
aS'#828883'
p2377
aS'#cec8c4'
p2378
aS'#2f312e'
p2379
aS'#959e9e'
p2380
aS'#584e48'
p2381
aS'#ccbbb1'
p2382
aS'#6d6d6d'
p2383
aS'#e7e7e7'
p2384
aS'#252525'
p2385
aS'#343633'
p2386
aS'#8f918e'
p2387
aS'#eaece9'
p2388
aS'#bbbbbb'
p2389
aS'#202020'
p2390
aS'#6e6e6e'
p2391
aS'#a4bdda'
p2392
aS'#93a7be'
p2393
aS'#675443'
p2394
aS'#020202'
p2395
aS'#4f4f4f'
p2396
aS'#a4a4a4'
p2397
aS'#d9ccc7'
p2398
aS'#212023'
p2399
aS'#a08e88'
p2400
aS'#747372'
p2401
aS'#160a0a'
p2402
aS'#d3d4d3'
p2403
aS'#908677'
p2404
aS'#4f4c45'
p2405
aS'#272b26'
p2406
aS'#8536a0'
p2407
aS'#40799b'
p2408
aS'#b891cc'
p2409
aS'#e5e5e7'
p2410
aS'#e0dfe2'
p2411
aS'#e2e2e4'
p2412
aS'#bdb3ae'
p2413
aS'#492b49'
p2414
aS'#87617a'
p2415
aS'#9a9a9a'
p2416
aS'#434343'
p2417
aS'#fafafa'
p2418
aS'#5490d9'
p2419
aS'#101c2d'
p2420
aS'#274a7b'
p2421
aS'#a7c0de'
p2422
aS'#483e5e'
p2423
aS'#35243a'
p2424
aS'#867a6e'
p2425
aS'#2b2419'
p2426
aS'#dcd7d8'
p2427
aS'#c6c6c8'
p2428
aS'#818183'
p2429
aS'#363638'
p2430
aS'#fdfdfd'
p2431
aS'#7d7c7d'
p2432
aS'#b4b4b4'
p2433
aS'#d4d4d4'
p2434
aS'#9f9f9f'
p2435
aS'#6b6b6b'
p2436
aS'#28284c'
p2437
aS'#408dbe'
p2438
aS'#010104'
p2439
aS'#150d22'
p2440
aS'#5944aa'
p2441
aS'#bda8e9'
p2442
aS'#f9f9f9'
p2443
aS'#bdbdbd'
p2444
aS'#828282'
p2445
aS'#575b99'
p2446
aS'#d69a82'
p2447
aS'#2e2837'
p2448
aS'#c9c3b5'
p2449
aS'#a59f96'
p2450
aS'#78635e'
p2451
aS'#1d1a27'
p2452
aS'#beb9c6'
p2453
aS'#758391'
p2454
aS'#281a17'
p2455
aS'#8e7964'
p2456
aS'#d7c9be'
p2457
aS'#6f403d'
p2458
aS'#2f231e'
p2459
aS'#a07878'
p2460
aS'#657778'
p2461
aS'#262c37'
p2462
aS'#ddb8a9'
p2463
aS'#2e2f31'
p2464
aS'#878788'
p2465
aS'#c1c1c2'
p2466
aS'#343334'
p2467
aS'#7d7d7d'
p2468
aS'#ececec'
p2469
aS'#f3f3f3'
p2470
aS'#a4a4a4'
p2471
aS'#2c2c2c'
p2472
aS'#838383'
p2473
aS'#c2c2c2'
p2474
aS'#fefefe'
p2475
aS'#000000ff'
p2476
aS'#000000ff'
p2477
aS'#000000ff'
p2478
aS'#11110f'
p2479
aS'#4b5456'
p2480
aS'#2c372b'
p2481
aS'#b9b8b9'
p2482
aS'#1a1a1c'
p2483
aS'#727173'
p2484
aS'#f0f0ef'
p2485
aS'#8d8d8c'
p2486
aS'#000000'
p2487
aS'#565759'
p2488
aS'#f8f9f8'
p2489
aS'#a6a7a8'
p2490
aS'#d0c9d5'
p2491
aS'#908590'
p2492
aS'#302b33'
p2493
aS'#232324'
p2494
aS'#ababab'
p2495
aS'#545455'
p2496
aS'#9b9996'
p2497
aS'#060607'
p2498
aS'#fdfdfd'
p2499
aS'#292929'
p2500
aS'#858585'
p2501
aS'#616161'
p2502
aS'#535154'
p2503
aS'#8b898c'
p2504
aS'#c7c7c8'
p2505
aS'#232d45'
p2506
aS'#111623'
p2507
aS'#43526e'
p2508
aS'#353638'
p2509
aS'#070708'
p2510
aS'#18181a'
p2511
aS'#ebdce6'
p2512
aS'#6f656c'
p2513
aS'#080607'
p2514
aS'#5d5d5d'
p2515
aS'#a6a6a6'
p2516
aS'#222222'
p2517
aS'#988b85'
p2518
aS'#ede5e1'
p2519
aS'#201f1f'
p2520
aS'#f3f5f6'
p2521
aS'#948e9b'
p2522
aS'#181c31'
p2523
aS'#686460'
p2524
aS'#bfbbb8'
p2525
aS'#0f0e0d'
p2526
aS'#12110e'
p2527
aS'#b5aca6'
p2528
aS'#4e4639'
p2529
aS'#434343'
p2530
aS'#9a9a9a'
p2531
aS'#f2f2f2'
p2532
aS'#a5a5a5'
p2533
aS'#404040'
p2534
aS'#0d0d0d'
p2535
aS'#0d0d0d'
p2536
aS'#fdfcfd'
p2537
aS'#ba97a8'
p2538
aS'#1d1d1d'
p2539
aS'#252525'
p2540
aS'#888887'
p2541
aS'#221118'
p2542
aS'#a6999c'
p2543
aS'#726166'
p2544
aS'#f7e2ae'
p2545
aS'#daa671'
p2546
aS'#725c41'
p2547
aS'#cccccc'
p2548
aS'#6b6b6b'
p2549
aS'#222222'
p2550
aS'#1d1e33'
p2551
aS'#31324e'
p2552
aS'#11111e'
p2553
aS'#6f6e71'
p2554
aS'#b9bbba'
p2555
aS'#1d1d20'
p2556
aS'#797878'
p2557
aS'#000000'
p2558
aS'#eaeaea'
p2559
aS'#787878'
p2560
aS'#242424'
p2561
aS'#575757'
p2562
aS'#494949'
p2563
aS'#d8d8d8'
p2564
aS'#989898'
p2565
aS'#131313'
p2566
aS'#dfdfdf'
p2567
aS'#656565'
p2568
aS'#dbddda'
p2569
aS'#2f312e'
p2570
aS'#a0a29f'
p2571
aS'#120a02'
p2572
aS'#916845'
p2573
aS'#f0b651'
p2574
aS'#695443'
p2575
aS'#d6dad6'
p2576
aS'#a1a399'
p2577
aS'#464751'
p2578
aS'#b3b3b7'
p2579
aS'#31323a'
p2580
aS'#b5807f'
p2581
aS'#d7b27f'
p2582
aS'#865b7f'
p2583
aS'#595959'
p2584
aS'#cccccc'
p2585
aS'#000001'
p2586
aS'#a6a5a7'
p2587
aS'#403e41'
p2588
aS'#7d7b7e'
p2589
aS'#4e4b50'
p2590
aS'#f4f3f4'
p2591
aS'#a19fa2'
p2592
aS'#94c6ea'
p2593
aS'#5b89af'
p2594
aS'#254c6b'
p2595
aS'#d0dde3'
p2596
aS'#b5cbe3'
p2597
aS'#9aabde'
p2598
aS'#2f2e24'
p2599
aS'#7e6e52'
p2600
aS'#bdb8aa'
p2601
aS'#8a9b9c'
p2602
aS'#163133'
p2603
aS'#c1c4bc'
p2604
aS'#0d5cc2'
p2605
aS'#1d2a23'
p2606
aS'#9ba18a'
p2607
aS'#1e1e1e'
p2608
aS'#3c3c3c'
p2609
aS'#717171'
p2610
aS'#979797'
p2611
aS'#010101'
p2612
aS'#4b4b4b'
p2613
aS'#b2a9a9'
p2614
aS'#727272'
p2615
aS'#d8cbce'
p2616
aS'#020202'
p2617
aS'#6f6f6f'
p2618
aS'#c0c0c0'
p2619
aS'#666566'
p2620
aS'#e0d5d5'
p2621
aS'#a69f9f'
p2622
aS'#f9f9f9'
p2623
aS'#a3a2a3'
p2624
aS'#373638'
p2625
aS'#e0dede'
p2626
aS'#24232c'
p2627
aS'#b6907f'
p2628
aS'#d9d9d9'
p2629
aS'#191919'
p2630
aS'#8c8c8c'
p2631
aS'#929292'
p2632
aS'#1e1e1e'
p2633
aS'#535353'
p2634
aS'#0e1014'
p2635
aS'#bdbdb4'
p2636
aS'#6f767a'
p2637
aS'#c9c9c9'
p2638
aS'#1b1b1b'
p2639
aS'#898989'
p2640
aS'#49454b'
p2641
aS'#716c72'
p2642
aS'#dbd7dc'
p2643
aS'#9d9e96'
p2644
aS'#56584c'
p2645
aS'#dedfdc'
p2646
aS'#d5af84'
p2647
aS'#555862'
p2648
aS'#978170'
p2649
aS'#534a48'
p2650
aS'#171715'
p2651
aS'#cfb1a5'
p2652
aS'#8b8b8b'
p2653
aS'#161616'
p2654
aS'#f6f6f6'
p2655
aS'#9d9d9d'
p2656
aS'#747474'
p2657
aS'#bcbcbc'
p2658
aS'#727471'
p2659
aS'#080907'
p2660
aS'#474946'
p2661
aS'#79685f'
p2662
aS'#e1d1be'
p2663
aS'#c3a191'
p2664
aS'#040405'
p2665
aS'#070608'
p2666
aS'#050507'
p2667
aS'#3688ee'
p2668
aS'#453733'
p2669
aS'#bc9e91'
p2670
aS'#fddde0'
p2671
aS'#fddde0'
p2672
aS'#fddde0'
p2673
aS'#59595b'
p2674
aS'#bdbdbe'
p2675
aS'#000002'
p2676
aS'#ccd0cf'
p2677
aS'#404441'
p2678
aS'#929491'
p2679
aS'#363836'
p2680
aS'#a5a7a4'
p2681
aS'#e2e4e1'
p2682
aS'#a6a18c'
p2683
aS'#f1f0eb'
p2684
aS'#3e3a27'
p2685
aS'#2f2427'
p2686
aS'#f9f8f8'
p2687
aS'#a59396'
p2688
aS'#c3c3c3'
p2689
aS'#6c6c6c'
p2690
aS'#1f1f1f'
p2691
aS'#040101'
p2692
aS'#020001'
p2693
aS'#030203'
p2694
aS'#4e3d3c'
p2695
aS'#c8ac98'
p2696
aS'#100b0e'
p2697
aS'#efba7f'
p2698
aS'#a86e39'
p2699
aS'#683b15'
p2700
aS'#6b6b6b'
p2701
aS'#090909'
p2702
aS'#aeaeae'
p2703
aS'#cdc9c6'
p2704
aS'#894b38'
p2705
aS'#2f1616'
p2706
aS'#282828'
p2707
aS'#161616'
p2708
aS'#050505'
p2709
aS'#2f3d2f'
p2710
aS'#061b0e'
p2711
aS'#505e50'
p2712
aS'#767676'
p2713
aS'#9f9f9f'
p2714
aS'#b4b4b4'
p2715
aS'#1f2842'
p2716
aS'#1c69aa'
p2717
aS'#8e7544'
p2718
aS'#151618'
p2719
aS'#d2d2d3'
p2720
aS'#525254'
p2721
aS'#f5f7f3'
p2722
aS'#7e4d3e'
p2723
aS'#bb8d87'
p2724
aS'#d6d9c6'
p2725
aS'#364521'
p2726
aS'#73824e'
p2727
aS'#241d1a'
p2728
aS'#736e6c'
p2729
aS'#c7c7c8'
p2730
aS'#6b6769'
p2731
aS'#e1dfdd'
p2732
aS'#292426'
p2733
aS'#1b1516'
p2734
aS'#a08c8d'
p2735
aS'#fbdddc'
p2736
aS'#696969'
p2737
aS'#a1a1a1'
p2738
aS'#2e2e2e'
p2739
aS'#dedde2'
p2740
aS'#7d93aa'
p2741
aS'#b45a61'
p2742
aS'#a29187'
p2743
aS'#dcc9bf'
p2744
aS'#303537'
p2745
aS'#656565'
p2746
aS'#fdfdfd'
p2747
aS'#b6b6b6'
p2748
aS'#ee97ad'
p2749
aS'#984c62'
p2750
aS'#060507'
p2751
aS'#4e4a4f'
p2752
aS'#969396'
p2753
aS'#e2e1e2'
p2754
aS'#282c2a'
p2755
aS'#d4dad6'
p2756
aS'#6b6f6e'
p2757
aS'#8b6259'
p2758
aS'#acbcca'
p2759
aS'#342b2f'
p2760
aS'#b3b3b3'
p2761
aS'#7e7e7e'
p2762
aS'#121212'
p2763
aS'#101833'
p2764
aS'#4d4e6f'
p2765
aS'#cac8da'
p2766
aS'#e4d3c8'
p2767
aS'#9e8f93'
p2768
aS'#3a324f'
p2769
aS'#0a0a0c'
p2770
aS'#525153'
p2771
aS'#9f9e9f'
p2772
aS'#585659'
p2773
aS'#959396'
p2774
aS'#1c1a1d'
p2775
aS'#4d4d4d'
p2776
aS'#171717'
p2777
aS'#9e9e9e'
p2778
aS'#6f6d64'
p2779
aS'#c9c6bb'
p2780
aS'#1b1d1f'
p2781
aS'#cae0d1'
p2782
aS'#759f7c'
p2783
aS'#294527'
p2784
aS'#957368'
p2785
aS'#baa2a2'
p2786
aS'#393c36'
p2787
aS'#2e2d33'
p2788
aS'#fafafa'
p2789
aS'#39383f'
p2790
aS'#202020'
p2791
aS'#505050'
p2792
aS'#8e8e8e'
p2793
aS'#242424'
p2794
aS'#838383'
p2795
aS'#dadada'
p2796
aS'#b0b0b0'
p2797
aS'#fbfbfb'
p2798
aS'#464646'
p2799
aS'#cfd1ce'
p2800
aS'#f6faf5'
p2801
aS'#50524f'
p2802
aS'#777777'
p2803
aS'#d2d2d2'
p2804
aS'#121212'
p2805
aS'#c6b8a3'
p2806
aS'#ad8b89'
p2807
aS'#6d5466'
p2808
aS'#5d4960'
p2809
aS'#26222c'
p2810
aS'#877a93'
p2811
aS'#6a6965'
p2812
aS'#a8a9a7'
p2813
aS'#161741'
p2814
aS'#888888'
p2815
aS'#b5b5b5'
p2816
aS'#2b2b2b'
p2817
aS'#8f8e8f'
p2818
aS'#f5f5f5'
p2819
aS'#232224'
p2820
aS'#838383'
p2821
aS'#c5c5c5'
p2822
aS'#414042'
p2823
aS'#6f473d'
p2824
aS'#a56348'
p2825
aS'#cb7d5f'
p2826
aS'#c3c6cb'
p2827
aS'#a6a8b2'
p2828
aS'#7d7b80'
p2829
aS'#fdfdfd'
p2830
aS'#050505'
p2831
aS'#7e807e'
p2832
aS'#878774'
p2833
aS'#050804'
p2834
aS'#555340'
p2835
aS'#4f4f4f'
p2836
aS'#2e2e2e'
p2837
aS'#c3c3c3'
p2838
aS'#7a347c'
p2839
aS'#bf649b'
p2840
aS'#391b5f'
p2841
aS'#483b77'
p2842
aS'#131111'
p2843
aS'#be7f84'
p2844
aS'#a5c2a6'
p2845
aS'#88b09a'
p2846
aS'#ced7b8'
p2847
aS'#1b191d'
p2848
aS'#b0afb0'
p2849
aS'#747175'
p2850
aS'#8d8d8d'
p2851
aS'#cecece'
p2852
aS'#424242'
p2853
aS'#010101'
p2854
aS'#6b6b6b'
p2855
aS'#e2e2e2'
p2856
aS'#6a6a6a'
p2857
aS'#adadad'
p2858
aS'#010101'
p2859
aS'#aeadad'
p2860
aS'#676767'
p2861
aS'#1c1d1f'
p2862
aS'#fcfcfc'
p2863
aS'#bbbabc'
p2864
aS'#6e6d6f'
p2865
aS'#c7c6c6'
p2866
aS'#605d63'
p2867
aS'#1b1b25'
p2868
aS'#838384'
p2869
aS'#c1c1c1'
p2870
aS'#404042'
p2871
aS'#d6c5a3'
p2872
aS'#3d282b'
p2873
aS'#faefce'
p2874
aS'#b25a57'
p2875
aS'#422c45'
p2876
aS'#d99f87'
p2877
aS'#848883'
p2878
aS'#0a0d0a'
p2879
aS'#393d38'
p2880
aS'#d6d0cd'
p2881
aS'#a08e86'
p2882
aS'#4a403c'
p2883
aS'#7b7b7c'
p2884
aS'#323133'
p2885
aS'#ebebec'
p2886
aS'#838066'
p2887
aS'#25241f'
p2888
aS'#bebebe'
p2889
aS'#dd4051'
p2890
aS'#f3e8d3'
p2891
aS'#6f344e'
p2892
aS'#9e9e9e'
p2893
aS'#252426'
p2894
aS'#6f6e70'
p2895
aS'#62635f'
p2896
aS'#191917'
p2897
aS'#afb1ac'
p2898
aS'#746c75'
p2899
aS'#d5d0d4'
p2900
aS'#1f1d20'
p2901
aS'#9d9d9d'
p2902
aS'#e0e0e0'
p2903
aS'#626262'
p2904
aS'#2a2a2a'
p2905
aS'#5a5a5a'
p2906
aS'#808080'
p2907
aS'#1f2333'
p2908
aS'#745f6a'
p2909
aS'#c2bac4'
p2910
aS'#efefef'
p2911
aS'#969696'
p2912
aS'#404040'
p2913
aS'#8d3392'
p2914
aS'#2e353b'
p2915
aS'#845231'
p2916
aS'#6d8992'
p2917
aS'#8ca5ad'
p2918
aS'#dbcfbf'
p2919
aS'#371425'
p2920
aS'#9e697b'
p2921
aS'#fdccdd'
p2922
aS'#765c4c'
p2923
aS'#ddd5cf'
p2924
aS'#b29782'
p2925
aS'#c3b496'
p2926
aS'#091013'
p2927
aS'#3f4846'
p2928
aS'#6b6b6b'
p2929
aS'#bdbdbd'
p2930
aS'#080808'
p2931
aS'#78767a'
p2932
aS'#d3cfd3'
p2933
aS'#222222'
p2934
aS'#4e4e4b'
p2935
aS'#edeee9'
p2936
aS'#aaaaa7'
p2937
aS'#9d9ba1'
p2938
aS'#3d323d'
p2939
aS'#fafafa'
p2940
aS'#818181'
p2941
aS'#d7d7d7'
p2942
aS'#444444'
p2943
aS'#717171'
p2944
aS'#303030'
p2945
aS'#ececec'
p2946
aS'#3e3d3f'
p2947
aS'#e9e9e9'
p2948
aS'#656366'
p2949
aS'#454545'
p2950
aS'#818181'
p2951
aS'#b3b3b3'
p2952
aS'#64593e'
p2953
aS'#d7ccb7'
p2954
aS'#1f1e16'
p2955
aS'#b8b8d5'
p2956
aS'#684e8a'
p2957
aS'#221925'
p2958
aS'#1a0c10'
p2959
aS'#a46e6c'
p2960
aS'#f0946c'
p2961
aS'#aaaaaa'
p2962
aS'#717171'
p2963
aS'#424242'
p2964
aS'#949494'
p2965
aS'#232323'
p2966
aS'#5e5e5e'
p2967
aS'#404040'
p2968
aS'#7b7b7b'
p2969
aS'#c3c3c3'
p2970
aS'#4b4b4b'
p2971
aS'#bdbdbd'
p2972
aS'#f9f9f9'
p2973
aS'#3b393c'
p2974
aS'#f9f9f9'
p2975
aS'#a4a2a4'
p2976
aS'#828282'
p2977
aS'#555555'
p2978
aS'#202020'
p2979
aS'#21191d'
p2980
aS'#bca989'
p2981
aS'#625d5e'
p2982
aS'#222222'
p2983
aS'#777579'
p2984
aS'#d1ced2'
p2985
aS'#384a8b'
p2986
aS'#6875c8'
p2987
aS'#b8b4f4'
p2988
aS'#6c6c6d'
p2989
aS'#2a2c2c'
p2990
aS'#a5a5a4'
p2991
aS'#140b08'
p2992
aS'#d5c2a4'
p2993
aS'#775353'
p2994
aS'#6e6e6e'
p2995
aS'#cccccc'
p2996
aS'#171717'
p2997
aS'#331714'
p2998
aS'#956d6e'
p2999
aS'#e4d2de'
p3000
aS'#a6b2b4'
p3001
aS'#a6a29c'
p3002
aS'#5d6366'
p3003
aS'#cdcdcd'
p3004
aS'#5c5c5c'
p3005
aS'#090909'
p3006
aS'#010103'
p3007
aS'#e0e0e0'
p3008
aS'#747475'
p3009
aS'#d3d3d3'
p3010
aS'#7e7e7e'
p3011
aS'#1d1d1d'
p3012
aS'#5b2d45'
p3013
aS'#f2f4e8'
p3014
aS'#ccb784'
p3015
aS'#2f2a2e'
p3016
aS'#e7e6e7'
p3017
aS'#8c898c'
p3018
aS'#8d746f'
p3019
aS'#412b28'
p3020
aS'#c8bcbe'
p3021
aS'#bcbdc0'
p3022
aS'#303238'
p3023
aS'#6d6f74'
p3024
aS'#d2c8bf'
p3025
aS'#0e1213'
p3026
aS'#686c6c'
p3027
aS'#403f4b'
p3028
aS'#2a282f'
p3029
aS'#6b7c9e'
p3030
aS'#bda390'
p3031
aS'#202027'
p3032
aS'#62615e'
p3033
aS'#818181'
p3034
aS'#030303'
p3035
aS'#f2f2f2'
p3036
aS'#312122'
p3037
aS'#f6e8d3'
p3038
aS'#c49663'
p3039
aS'#7f8081'
p3040
aS'#1d1e20'
p3041
aS'#fcfcfc'
p3042
aS'#462e3e'
p3043
aS'#d0c8b7'
p3044
aS'#a06b61'
p3045
aS'#ae8d6f'
p3046
aS'#cdc6c3'
p3047
aS'#8a5c36'
p3048
aS'#525353'
p3049
aS'#cdcdcd'
p3050
aS'#030303'
p3051
aS'#323132'
p3052
aS'#a7a6a4'
p3053
aS'#696868'
p3054
aS'#ae9591'
p3055
aS'#79383a'
p3056
aS'#e6e3e3'
p3057
aS'#78708f'
p3058
aS'#d0b0a6'
p3059
aS'#343065'
p3060
aS'#5e6669'
p3061
aS'#10181c'
p3062
aS'#d0d2cb'
p3063
aS'#656764'
p3064
aS'#a1a3a0'
p3065
aS'#151715'
p3066
aS'#100c08'
p3067
aS'#927a5b'
p3068
aS'#e4decd'
p3069
aS'#2b2c2d'
p3070
aS'#d0cdc3'
p3071
aS'#7a776d'
p3072
aS'#797979'
p3073
aS'#282828'
p3074
aS'#e2e2e2'
p3075
aS'#979699'
p3076
aS'#49484b'
p3077
aS'#bdbcbf'
p3078
aS'#6a6a6a'
p3079
aS'#cbcbcb'
p3080
aS'#131313'
p3081
aS'#736d63'
p3082
aS'#beb79f'
p3083
aS'#faf2c9'
p3084
aS'#a4a5a3'
p3085
aS'#cfd0ce'
p3086
aS'#0e110e'
p3087
aS'#080402'
p3088
aS'#5f3c14'
p3089
aS'#bf9b62'
p3090
aS'#717171'
p3091
aS'#c7c7c7'
p3092
aS'#2a2a2a'
p3093
aS'#525252'
p3094
aS'#8f8f8f'
p3095
aS'#f8f8f8'
p3096
aS'#cacaca'
p3097
aS'#535353'
p3098
aS'#9a9a9a'
p3099
aS'#d6daba'
p3100
aS'#88aa91'
p3101
aS'#a9c0a2'
p3102
aS'#595959'
p3103
aS'#151515'
p3104
aS'#9f9f9f'
p3105
aS'#8c989b'
p3106
aS'#bfc5d8'
p3107
aS'#493b47'
p3108
aS'#beb192'
p3109
aS'#373952'
p3110
aS'#ebecca'
p3111
aS'#7d655d'
p3112
aS'#35211a'
p3113
aS'#c9beba'
p3114
aS'#3a3c39'
p3115
aS'#edefed'
p3116
aS'#9a9c99'
p3117
aS'#1f1f1f'
p3118
aS'#c6c6c6'
p3119
aS'#696969'
p3120
aS'#f2f2f2'
p3121
aS'#302e31'
p3122
aS'#838084'
p3123
aS'#95c9b0'
p3124
aS'#193c2a'
p3125
aS'#577862'
p3126
aS'#0f8081'
p3127
aS'#cfb59f'
p3128
aS'#749090'
p3129
aS'#bababa'
p3130
aS'#424242'
p3131
aS'#7e7e7e'
p3132
aS'#d7bc9e'
p3133
aS'#8d5f3e'
p3134
aS'#bc8b66'
p3135
aS'#907864'
p3136
aS'#d7d0c7'
p3137
aS'#463d2f'
p3138
aS'#aeaeae'
p3139
aS'#4f4f4f'
p3140
aS'#f7f7f7'
p3141
aS'#4f341a'
p3142
aS'#ae937f'
p3143
aS'#8a623e'
p3144
aS'#c7bab9'
p3145
aS'#020101'
p3146
aS'#665c5b'
p3147
aS'#d3d9e3'
p3148
aS'#ecd0e5'
p3149
aS'#f9c4e5'
p3150
aS'#090909'
p3151
aS'#6a6968'
p3152
aS'#b9b8b4'
p3153
aS'#111113'
p3154
aS'#a4a4a4'
p3155
aS'#4e4d4f'
p3156
aS'#68523c'
p3157
aS'#120e08'
p3158
aS'#ae9073'
p3159
aS'#111111'
p3160
aS'#8c8c8c'
p3161
aS'#d7d7d7'
p3162
aS'#22272a'
p3163
aS'#536167'
p3164
aS'#354248'
p3165
aS'#6e6e70'
p3166
aS'#d2d2d4'
p3167
aS'#201f22'
p3168
aS'#e5e3ce'
p3169
aS'#31271d'
p3170
aS'#918c7a'
p3171
aS'#565656'
p3172
aS'#8f8f8f'
p3173
aS'#181818'
p3174
aS'#a8a8a8'
p3175
aS'#d0d0d0'
p3176
aS'#434343'
p3177
aS'#877583'
p3178
aS'#e4dcde'
p3179
aS'#301a28'
p3180
aS'#b1466c'
p3181
aS'#f0f0f0'
p3182
aS'#030101'
p3183
aS'#a1a3a0'
p3184
aS'#666865'
p3185
aS'#d6d8d5'
p3186
aS'#ccb5a9'
p3187
aS'#7e6b67'
p3188
aS'#34393a'
p3189
aS'#9d9e9d'
p3190
aS'#50425b'
p3191
aS'#c8ccbe'
p3192
aS'#121212'
p3193
aS'#6e6e6e'
p3194
aS'#ababab'
p3195
aS'#303030'
p3196
aS'#6d6d6d'
p3197
aS'#a3a3a3'
p3198
aS'#b6b6b6'
p3199
aS'#646464'
p3200
aS'#fdfdfd'
p3201
aS'#ededed'
p3202
aS'#acacad'
p3203
aS'#3f3f41'
p3204
aS'#e1ecdb'
p3205
aS'#843c38'
p3206
aS'#f3cb0c'
p3207
aS'#3b3b3b'
p3208
aS'#fcfcfc'
p3209
aS'#606060'
p3210
aS'#1b1b1b'
p3211
aS'#4c4c4c'
p3212
aS'#7f7f7f'
p3213
aS'#efeae4'
p3214
aS'#522918'
p3215
aS'#a1764c'
p3216
aS'#696969'
p3217
aS'#151515'
p3218
aS'#c1c0c1'
p3219
aS'#fcf4db'
p3220
aS'#b09777'
p3221
aS'#7e5238'
p3222
aS'#6e91db'
p3223
aS'#4a6abf'
p3224
aS'#173c96'
p3225
aS'#71b1d7'
p3226
aS'#dbd1ac'
p3227
aS'#4f5a62'
p3228
aS'#a59788'
p3229
aS'#010000'
p3230
aS'#e5e9e9'
p3231
aS'#6a8aad'
p3232
aS'#b2c2d4'
p3233
aS'#2c4c74'
p3234
aS'#2c2b2d'
p3235
aS'#969697'
p3236
aS'#686369'
p3237
aS'#3a3d40'
p3238
aS'#959798'
p3239
aS'#fbfbfb'
p3240
aS'#c0c0c2'
p3241
aS'#d7d6da'
p3242
aS'#abacaa'
p3243
aS'#0b0c0b'
p3244
aS'#9b9c9a'
p3245
aS'#e4e3e4'
p3246
aS'#c9c9c9'
p3247
aS'#1f1f1f'
p3248
aS'#6e6e6e'
p3249
aS'#cdc0a8'
p3250
aS'#3c191e'
p3251
aS'#87575f'
p3252
aS'#292729'
p3253
aS'#c5bfbd'
p3254
aS'#77706f'
p3255
aS'#eff3ec'
p3256
aS'#79685b'
p3257
aS'#c2b4a4'
p3258
aS'#f9dbd3'
p3259
aS'#eebfc6'
p3260
aS'#fdeade'
p3261
aS'#9b9b9b'
p3262
aS'#4d4d4d'
p3263
aS'#ebebeb'
p3264
aS'#24262c'
p3265
aS'#807778'
p3266
aS'#c8af9f'
p3267
aS'#7a3e65'
p3268
aS'#ada3bb'
p3269
aS'#d1dbe8'
p3270
aS'#f3f6f1'
p3271
aS'#a9b078'
p3272
aS'#17191c'
p3273
aS'#857f77'
p3274
aS'#502c21'
p3275
aS'#e0ded9'
p3276
aS'#b4b4b4'
p3277
aS'#555555'
p3278
aS'#000000'
p3279
aS'#787878'
p3280
aS'#f4f4f4'
p3281
aS'#050505'
p3282
aS'#c3b9b7'
p3283
aS'#193a22'
p3284
aS'#517a56'
p3285
aS'#a7a5a6'
p3286
aS'#fbfbfb'
p3287
aS'#4c4a4a'
p3288
aS'#e5bdbb'
p3289
aS'#523f3a'
p3290
aS'#a07a77'
p3291
aS'#9f9f9f'
p3292
aS'#626262'
p3293
aS'#2b2b2b'
p3294
aS'#d3e1e4'
p3295
aS'#aec3be'
p3296
aS'#6f7975'
p3297
aS'#41363a'
p3298
aS'#acb59b'
p3299
aS'#827467'
p3300
aS'#585858'
p3301
aS'#bfbfbf'
p3302
aS'#868686'
p3303
aS'#757177'
p3304
aS'#322e34'
p3305
aS'#b1adb3'
p3306
aS'#737174'
p3307
aS'#d2d2d2'
p3308
aS'#424348'
p3309
aS'#989b97'
p3310
aS'#e2e4e4'
p3311
aS'#5f5445'
p3312
aS'#636363'
p3313
aS'#a6a6a6'
p3314
aS'#eaeaea'
p3315
aS'#f7f1ee'
p3316
aS'#725148'
p3317
aS'#c8ac9f'
p3318
aS'#050608'
p3319
aS'#465c6f'
p3320
aS'#f1f3f5'
p3321
aS'#242424'
p3322
aS'#616161'
p3323
aS'#a3a3a3'
p3324
aS'#eeb49b'
p3325
aS'#c7a194'
p3326
aS'#a18b86'
p3327
aS'#131313'
p3328
aS'#d1d1d1'
p3329
aS'#6a6a6a'
p3330
aS'#d0d0d0'
p3331
aS'#686965'
p3332
aS'#030303'
p3333
aS'#357bed'
p3334
aS'#15210d'
p3335
aS'#9b9510'
p3336
aS'#42221d'
p3337
aS'#d9b8a1'
p3338
aS'#9b3e3d'
p3339
aS'#cdc9cf'
p3340
aS'#7a7586'
p3341
aS'#645d68'
p3342
aS'#eaebee'
p3343
aS'#a3a4a4'
p3344
aS'#c6c7c9'
p3345
aS'#9f9682'
p3346
aS'#685849'
p3347
aS'#110c11'
p3348
aS'#b7a38b'
p3349
aS'#6b3a7f'
p3350
aS'#4e191f'
p3351
aS'#c8af48'
p3352
aS'#533c3b'
p3353
aS'#d0d4c2'
p3354
aS'#4e4d4f'
p3355
aS'#010103'
p3356
aS'#bebdbe'
p3357
aS'#6d7361'
p3358
aS'#202820'
p3359
aS'#ccd1c0'
p3360
aS'#7b7b7c'
p3361
aS'#c1c3c1'
p3362
aS'#4a494b'
p3363
aS'#cacacb'
p3364
aS'#e2e2e3'
p3365
aS'#929294'
p3366
aS'#575757'
p3367
aS'#323232'
p3368
aS'#9b9b9b'
p3369
aS'#362624'
p3370
aS'#5f6659'
p3371
aS'#c2a268'
p3372
aS'#15171b'
p3373
aS'#646978'
p3374
aS'#a4a8bf'
p3375
aS'#32261c'
p3376
aS'#7d7165'
p3377
aS'#b2b2bb'
p3378
aS'#979797'
p3379
aS'#686869'
p3380
aS'#d5d5d5'
p3381
aS'#a8dbf9'
p3382
aS'#80b5dd'
p3383
aS'#f2f9fb'
p3384
aS'#dee2e1'
p3385
aS'#d0d3d3'
p3386
aS'#e7eaea'
p3387
aS'#010101'
p3388
aS'#4f514f'
p3389
aS'#a1a3a0'
p3390
aS'#48474a'
p3391
aS'#9d9c9d'
p3392
aS'#f7f7f7'
p3393
aS'#55251a'
p3394
aS'#e29271'
p3395
aS'#8c4732'
p3396
aS'#1a1313'
p3397
aS'#7c6f62'
p3398
aS'#dccaae'
p3399
aS'#b7b7b7'
p3400
aS'#1b1b1b'
p3401
aS'#f7f7f7'
p3402
aS'#fdefe7'
p3403
aS'#fbe8db'
p3404
aS'#fbebe0'
p3405
aS'#c8b28e'
p3406
aS'#3c9c87'
p3407
aS'#564338'
p3408
aS'#7b624e'
p3409
aS'#ab9f94'
p3410
aS'#dfdfda'
p3411
aS'#d5b0cb'
p3412
aS'#5b94d1'
p3413
aS'#5e3e50'
p3414
aS'#4a422c'
p3415
aS'#070505'
p3416
aS'#807c5b'
p3417
aS'#9a9899'
p3418
aS'#dfdedf'
p3419
aS'#454144'
p3420
aS'#858486'
p3421
aS'#1e1e20'
p3422
aS'#d7d6d7'
p3423
aS'#8c8c8c'
p3424
aS'#000000'
p3425
aS'#454545'
p3426
aS'#adadad'
p3427
aS'#4d4d4d'
p3428
aS'#000000'
p3429
aS'#858381'
p3430
aS'#100f0f'
p3431
aS'#e2e5e4'
p3432
aS'#f5f5f5'
p3433
aS'#3e3e3e'
p3434
aS'#6f6f6f'
p3435
aS'#bdbdbd'
p3436
aS'#858585'
p3437
aS'#505050'
p3438
aS'#536b58'
p3439
aS'#c7c88f'
p3440
aS'#0c1a2f'
p3441
aS'#3d3d3d'
p3442
aS'#8c8c8c'
p3443
aS'#e7e7e7'
p3444
aS'#2b262e'
p3445
aS'#eeddc9'
p3446
aS'#bf9985'
p3447
aS'#c1b2ad'
p3448
aS'#505351'
p3449
aS'#18201e'
p3450
aS'#050304'
p3451
aS'#e8e7e7'
p3452
aS'#6f6e6e'
p3453
aS'#4ca6b0'
p3454
aS'#237191'
p3455
aS'#b6b4b7'
p3456
aS'#9f9f9f'
p3457
aS'#b4b4b4'
p3458
aS'#898989'
p3459
aS'#a4a3a4'
p3460
aS'#efefef'
p3461
aS'#555455'
p3462
aS'#c59538'
p3463
aS'#8f22bb'
p3464
aS'#231210'
p3465
aS'#c54879'
p3466
aS'#5a3643'
p3467
aS'#bcbabb'
p3468
aS'#808480'
p3469
aS'#e7e7e7'
p3470
aS'#131513'
p3471
aS'#939393'
p3472
aS'#f1f1f1'
p3473
aS'#2a2a2a'
p3474
aS'#8e5964'
p3475
aS'#bfafab'
p3476
aS'#2e2822'
p3477
aS'#834c14'
p3478
aS'#291e16'
p3479
aS'#b67126'
p3480
aS'#846b5f'
p3481
aS'#151217'
p3482
aS'#4d3d3a'
p3483
aS'#df92b4'
p3484
aS'#746093'
p3485
aS'#a178a5'
p3486
aS'#010101'
p3487
aS'#7c7c7c'
p3488
aS'#4b4c4b'
p3489
aS'#faf9f9'
p3490
aS'#888380'
p3491
aS'#302b29'
p3492
aS'#f2f1ef'
p3493
aS'#a3a09f'
p3494
aS'#4a4140'
p3495
aS'#020202'
p3496
aS'#b7b7b7'
p3497
aS'#565656'
p3498
aS'#636264'
p3499
aS'#1b1b1d'
p3500
aS'#9a9a9b'
p3501
aS'#a37d68'
p3502
aS'#e4d0a1'
p3503
aS'#4d3a3c'
p3504
aS'#e2c0bd'
p3505
aS'#594262'
p3506
aS'#c08895'
p3507
aS'#484847'
p3508
aS'#9ca18a'
p3509
aS'#783022'
p3510
aS'#806b71'
p3511
aS'#c6bea9'
p3512
aS'#2c2b4a'
p3513
aS'#320102'
p3514
aS'#7b0206'
p3515
aS'#090000'
p3516
aS'#020202'
p3517
aS'#616161'
p3518
aS'#cdcdcd'
p3519
aS'#d9d7d1'
p3520
aS'#79736e'
p3521
aS'#382421'
p3522
aS'#59884d'
p3523
aS'#ced1b0'
p3524
aS'#a3ac77'
p3525
aS'#ac91a0'
p3526
aS'#895e68'
p3527
aS'#2f3648'
p3528
aS'#655755'
p3529
aS'#140e08'
p3530
aS'#7c6b67'
p3531
aS'#a6a5a6'
p3532
aS'#736966'
p3533
aS'#f2f2f2'
p3534
aS'#d1d6d4'
p3535
aS'#b9beb9'
p3536
aS'#9c7f6a'
p3537
aS'#c1beb8'
p3538
aS'#856e62'
p3539
aS'#37152e'
p3540
aS'#324243'
p3541
aS'#d4d7c4'
p3542
aS'#8f9781'
p3543
aS'#646464'
p3544
aS'#a5a5a5'
p3545
aS'#2a2a2a'
p3546
aS'#afafaa'
p3547
aS'#636b6d'
p3548
aS'#2f3637'
p3549
aS'#837e43'
p3550
aS'#d7c7b4'
p3551
aS'#3b381b'
p3552
aS'#c6cebd'
p3553
aS'#6e7c5c'
p3554
aS'#27341f'
p3555
aS'#eaeaea'
p3556
aS'#ababab'
p3557
aS'#747474'
p3558
aS'#1f1712'
p3559
aS'#9d927d'
p3560
aS'#635c51'
p3561
aS'#eb57a2'
p3562
aS'#fcfafc'
p3563
aS'#000000'
p3564
aS'#bbc9ca'
p3565
aS'#1a4879'
p3566
aS'#577fa2'
p3567
aS'#1061a4'
p3568
aS'#bed2de'
p3569
aS'#679cc2'
p3570
aS'#a4d2e2'
p3571
aS'#567b96'
p3572
aS'#090f17'
p3573
aS'#dde1e4'
p3574
aS'#8d97a0'
p3575
aS'#4e555d'
p3576
aS'#ad95a8'
p3577
aS'#797b98'
p3578
aS'#cecacb'
p3579
aS'#dedede'
p3580
aS'#010101'
p3581
aS'#6d6d6d'
p3582
aS'#212121'
p3583
aS'#bcbcbc'
p3584
aS'#505050'
p3585
aS'#171717'
p3586
aS'#a6a6a6'
p3587
aS'#515151'
p3588
aS'#e74890'
p3589
aS'#eab2d6'
p3590
aS'#db78ab'
p3591
aS'#6e6e6e'
p3592
aS'#020202'
p3593
aS'#9b9b9b'
p3594
aS'#666666'
p3595
aS'#cacaca'
p3596
aS'#161616'
p3597
aS'#231a18'
p3598
aS'#8d8682'
p3599
aS'#fefdf6'
p3600
aS'#9c7177'
p3601
aS'#f2f1e4'
p3602
aS'#1d2d5b'
p3603
aS'#21241c'
p3604
aS'#e0e6c2'
p3605
aS'#797d6f'
p3606
aS'#b7ccc8'
p3607
aS'#867a77'
p3608
aS'#5d4244'
p3609
aS'#41327a'
p3610
aS'#7870a8'
p3611
aS'#b2beda'
p3612
aS'#000000'
p3613
aS'#000000'
p3614
aS'#000000'
p3615
aS'#080808'
p3616
aS'#747474'
p3617
aS'#313131'
p3618
aS'#74533b'
p3619
aS'#dedfd6'
p3620
aS'#998573'
p3621
aS'#938184'
p3622
aS'#cab5a3'
p3623
aS'#464560'
p3624
aS'#c1c2bb'
p3625
aS'#0f0f0f'
p3626
aS'#71726f'
p3627
aS'#7a7a7a'
p3628
aS'#dadadb'
p3629
aS'#2f2f30'
p3630
aS'#cac2ba'
p3631
aS'#8f643a'
p3632
aS'#af9576'
p3633
aS'#ac8193'
p3634
aS'#d4d0d6'
p3635
aS'#66617f'
p3636
aS'#39302a'
p3637
aS'#cf7d81'
p3638
aS'#ab3647'
p3639
aS'#6c665a'
p3640
aS'#bfad9e'
p3641
aS'#2d2b24'
p3642
aS'#3b3b3b'
p3643
aS'#aeaeae'
p3644
aS'#eeeeee'
p3645
aS'#c9c9c9'
p3646
aS'#1b1c1c'
p3647
aS'#4d4d4d'
p3648
aS'#9a9a9a'
p3649
aS'#232323'
p3650
aS'#fdfdfd'
p3651
aS'#eadce4'
p3652
aS'#947b85'
p3653
aS'#cba5b3'
p3654
aS'#3a2b1a'
p3655
aS'#9f7358'
p3656
aS'#e1d8cb'
p3657
aS'#2c2527'
p3658
aS'#a88a7e'
p3659
aS'#825818'
p3660
aS'#cfcfcf'
p3661
aS'#6e6e6e'
p3662
aS'#2d2d2d'
p3663
aS'#efefde'
p3664
aS'#27263e'
p3665
aS'#9a9a90'
p3666
aS'#efefef'
p3667
aS'#575757'
p3668
aS'#a6a6a6'
p3669
aS'#f0dea8'
p3670
aS'#293473'
p3671
aS'#e1827e'
p3672
aS'#130f21'
p3673
aS'#ceae7c'
p3674
aS'#966d4a'
p3675
aS'#a0999e'
p3676
aS'#371e1f'
p3677
aS'#f6f5f1'
p3678
aS'#183550'
p3679
aS'#e5e2b8'
p3680
aS'#6c453e'
p3681
aS'#b2b3b3'
p3682
aS'#2a2a2a'
p3683
aS'#6f7070'
p3684
aS'#c3c0bf'
p3685
aS'#83817a'
p3686
aS'#433d26'
p3687
aS'#0a3211'
p3688
aS'#8eb2d0'
p3689
aS'#646e74'
p3690
aS'#acacac'
p3691
aS'#373737'
p3692
aS'#f7f7f7'
p3693
aS'#9a9b9a'
p3694
aS'#878987'
p3695
aS'#424544'
p3696
aS'#3e3e40'
p3697
aS'#8c8b8c'
p3698
aS'#dfdfdf'
p3699
aS'#898989'
p3700
aS'#1b1b1b'
p3701
aS'#dadada'
p3702
aS'#3d2b5c'
p3703
aS'#407db2'
p3704
aS'#a251c2'
p3705
aS'#c95675'
p3706
aS'#ea9294'
p3707
aS'#883e5b'
p3708
aS'#263634'
p3709
aS'#adaec3'
p3710
aS'#556372'
p3711
aS'#997f5a'
p3712
aS'#b7ae89'
p3713
aS'#6f4e2f'
p3714
aS'#3a3a3c'
p3715
aS'#919192'
p3716
aS'#c8c8c9'
p3717
aS'#5f5f5f'
p3718
aS'#b3b3b3'
p3719
aS'#191917'
p3720
aS'#5b6870'
p3721
aS'#c7d4dc'
p3722
aS'#889ba7'
p3723
aS'#9e9ba1'
p3724
aS'#736e75'
p3725
aS'#3d383e'
p3726
aS'#31393f'
p3727
aS'#7a8587'
p3728
aS'#e8d6bc'
p3729
aS'#161518'
p3730
aS'#7a767b'
p3731
aS'#bababa'
p3732
aS'#b8b8b6'
p3733
aS'#666765'
p3734
aS'#171817'
p3735
aS'#646464'
p3736
aS'#a5a5a5'
p3737
aS'#ebebeb'
p3738
aS'#171518'
p3739
aS'#bfbec4'
p3740
aS'#6d696f'
p3741
aS'#784539'
p3742
aS'#dfb493'
p3743
aS'#b07b61'
p3744
aS'#54b0d2'
p3745
aS'#6f6b6c'
p3746
aS'#ce815c'
p3747
aS'#d5c6cc'
p3748
aS'#182038'
p3749
aS'#756d7e'
p3750
aS'#a63046'
p3751
aS'#281632'
p3752
aS'#cc98b0'
p3753
aS'#bdbdbd'
p3754
aS'#717171'
p3755
aS'#dbdbdb'
p3756
aS'#0c0704'
p3757
aS'#865931'
p3758
aS'#e7d39b'
p3759
aS'#d97d7b'
p3760
aS'#8e3a43'
p3761
aS'#e9b59e'
p3762
aS'#f4ccf0'
p3763
aS'#f13dba'
p3764
aS'#be206e'
p3765
aS'#999999'
p3766
aS'#393939'
p3767
aS'#fcfcfc'
p3768
aS'#6e6e6e'
p3769
aS'#cfcfcf'
p3770
aS'#303030'
p3771
aS'#e3d8d6'
p3772
aS'#bcb5b1'
p3773
aS'#827d7a'
p3774
aS'#424244'
p3775
aS'#212123'
p3776
aS'#070709'
p3777
aS'#0f0f0f'
p3778
aS'#fdfdfd'
p3779
aS'#b3b3b3'
p3780
aS'#a7a6a8'
p3781
aS'#555356'
p3782
aS'#0e0e10'
p3783
aS'#323650'
p3784
aS'#ebedcb'
p3785
aS'#bdb192'
p3786
aS'#464646'
p3787
aS'#020202'
p3788
aS'#8b8b8b'
p3789
aS'#777776'
p3790
aS'#dfe0de'
p3791
aS'#202120'
p3792
aS'#ababab'
p3793
aS'#434343'
p3794
aS'#767676'
p3795
aS'#140f0d'
p3796
aS'#877e71'
p3797
aS'#e1d8c3'
p3798
aS'#454545'
p3799
aS'#9b9b9b'
p3800
aS'#2f2f2f'
p3801
aS'#000000'
p3802
aS'#2f2f2f'
p3803
aS'#636363'
p3804
aS'#d45f63'
p3805
aS'#f77b7e'
p3806
aS'#783133'
p3807
aS'#748a4f'
p3808
aS'#34382e'
p3809
aS'#c1bcbe'
p3810
aS'#eeeff0'
p3811
aS'#1c5398'
p3812
aS'#0a162b'
p3813
aS'#717570'
p3814
aS'#020202'
p3815
aS'#e2e6e1'
p3816
aS'#a3a1a4'
p3817
aS'#fefefe'
p3818
aS'#3e3c40'
p3819
aS'#ba3317'
p3820
aS'#b29730'
p3821
aS'#438461'
p3822
aS'#bb999e'
p3823
aS'#e71d27'
p3824
aS'#fcfcfc'
p3825
aS'#e2e3e2'
p3826
aS'#393330'
p3827
aS'#918e89'
p3828
aS'#d1d1d1'
p3829
aS'#333333'
p3830
aS'#737373'
p3831
aS'#8f8f8f'
p3832
aS'#0e0e0e'
p3833
aS'#535353'
p3834
aS'#232024'
p3835
aS'#d7d6d7'
p3836
aS'#7d797e'
p3837
aS'#1b1b1b'
p3838
aS'#a6a6a6'
p3839
aS'#636363'
p3840
aS'#4b403e'
p3841
aS'#9e807e'
p3842
aS'#fbbdba'
p3843
aS'#242426'
p3844
aS'#c0c0c1'
p3845
aS'#69696b'
p3846
aS'#a0a0a0'
p3847
aS'#19181b'
p3848
aS'#636065'
p3849
aS'#8b8b8b'
p3850
aS'#cececc'
p3851
aS'#484848'
p3852
aS'#818181'
p3853
aS'#c5c5c5'
p3854
aS'#313131'
p3855
aS'#b6b3b8'
p3856
aS'#f4f3f8'
p3857
aS'#6f6a70'
p3858
aS'#191919'
p3859
aS'#8f8f8f'
p3860
aS'#ececec'
p3861
aS'#9a9a9a'
p3862
aS'#d1d1d1'
p3863
aS'#313131'
p3864
aS'#c3c2bf'
p3865
aS'#706b6d'
p3866
aS'#272b2c'
p3867
aS'#ab63ae'
p3868
aS'#bbbbc9'
p3869
aS'#3b5f87'
p3870
aS'#9fa490'
p3871
aS'#4b423f'
p3872
aS'#eceed1'
p3873
aS'#2d2d2d'
p3874
aS'#646464'
p3875
aS'#000000'
p3876
aS'#212121'
p3877
aS'#939393'
p3878
aS'#fdfdfd'
p3879
aS'#4f4f4f'
p3880
aS'#f0f0f0'
p3881
aS'#9d9d9d'
p3882
aS'#442922'
p3883
aS'#ddd8b2'
p3884
aS'#a37d68'
p3885
aS'#000000'
p3886
aS'#000000'
p3887
aS'#000000'
p3888
aS'#828282'
p3889
aS'#d5d5d4'
p3890
aS'#a7a7a7'
p3891
aS'#fd2d3b'
p3892
aS'#fe6a63'
p3893
aS'#fd4b4e'
p3894
aS'#9c9c9c'
p3895
aS'#fcfcfc'
p3896
aS'#282828'
p3897
aS'#fefefe'
p3898
aS'#3e3f42'
p3899
aS'#9e9fa1'
p3900
aS'#efefef'
p3901
aS'#7f7f7f'
p3902
aS'#292929'
p3903
aS'#494947'
p3904
aS'#9a9995'
p3905
aS'#c0bfba'
p3906
aS'#fbfbfb'
p3907
aS'#8b8b8b'
p3908
aS'#0d0d0d'
p3909
aS'#e2c0bd'
p3910
aS'#5a4362'
p3911
aS'#c08995'
p3912
aS'#e7d6c4'
p3913
aS'#9d725b'
p3914
aS'#2a2421'
p3915
aS'#a4a4a4'
p3916
aS'#0f0f0f'
p3917
aS'#5d5d5d'
p3918
aS'#948d89'
p3919
aS'#d1d1d5'
p3920
aS'#58433c'
p3921
aS'#818181'
p3922
aS'#cbcbcb'
p3923
aS'#fbfbfb'
p3924
aS'#92888b'
p3925
aS'#ebe8e4'
p3926
aS'#35333c'
p3927
aS'#3d0f06'
p3928
aS'#ec9c7c'
p3929
aS'#953d1c'
p3930
aS'#dddbd4'
p3931
aS'#757369'
p3932
aS'#262929'
p3933
aS'#696871'
p3934
aS'#19100d'
p3935
aS'#bdb7b8'
p3936
aS'#484947'
p3937
aS'#131313'
p3938
aS'#cececc'
p3939
aS'#94655b'
p3940
aS'#b9958b'
p3941
aS'#50494d'
p3942
aS'#d8efda'
p3943
aS'#6f973d'
p3944
aS'#abd173'
p3945
aS'#271a1d'
p3946
aS'#4b415f'
p3947
aS'#cb8776'
p3948
aS'#c8c8c8'
p3949
aS'#3d3c3e'
p3950
aS'#f7f7f7'
p3951
aS'#020101'
p3952
aS'#d10908'
p3953
aS'#10b8ad'
p3954
aS'#e9e6e9'
p3955
aS'#030303'
p3956
aS'#c7c5c7'
p3957
aS'#777777'
p3958
aS'#383838'
p3959
aS'#b7b7b7'
p3960
aS'#8abc13'
p3961
aS'#397a08'
p3962
aS'#d6e65e'
p3963
aS'#f5f6eb'
p3964
aS'#56b9a6'
p3965
aS'#522324'
p3966
aS'#caa574'
p3967
aS'#533421'
p3968
aS'#dbd9d0'
p3969
aS'#202020'
p3970
aS'#fdfdfd'
p3971
aS'#939393'
p3972
aS'#aaa9a4'
p3973
aS'#514f4b'
p3974
aS'#f8f8f7'
p3975
aS'#4f4e50'
p3976
aS'#040404'
p3977
aS'#acacac'
p3978
aS'#8d8d8d'
p3979
aS'#f9f9f9'
p3980
aS'#c5c5c5'
p3981
aS'#5f4e40'
p3982
aS'#e5d4c4'
p3983
aS'#b1967e'
p3984
aS'#1d2823'
p3985
aS'#677d7b'
p3986
aS'#93a7a9'
p3987
aS'#c3c3c3'
p3988
aS'#656565'
p3989
aS'#0d0d0d'
p3990
aS'#000000'
p3991
aS'#000000'
p3992
aS'#000000'
p3993
aS'#666b65'
p3994
aS'#b3b8b2'
p3995
aS'#1e221d'
p3996
aS'#dcdbdd'
p3997
aS'#c5c2c2'
p3998
aS'#e8e7e9'
p3999
aS'#885656'
p4000
aS'#daca97'
p4001
aS'#251347'
p4002
aS'#d3b394'
p4003
aS'#834d47'
p4004
aS'#050205'
p4005
aS'#fefefd'
p4006
aS'#cbbea3'
p4007
aS'#b38a3c'
p4008
aS'#b2b2b2'
p4009
aS'#020202'
p4010
aS'#626262'
p4011
aS'#b0b0ae'
p4012
aS'#292c2d'
p4013
aS'#707170'
p4014
aS'#36433f'
p4015
aS'#050807'
p4016
aS'#758480'
p4017
aS'#d4d3d3'
p4018
aS'#5c5e5d'
p4019
aS'#a6a6a5'
p4020
aS'#19172f'
p4021
aS'#c9c3f0'
p4022
aS'#5f5da6'
p4023
aS'#a7a9a8'
p4024
aS'#616567'
p4025
aS'#070a0b'
p4026
aS'#90907d'
p4027
aS'#122544'
p4028
aS'#6a5d61'
p4029
aS'#adaca1'
p4030
aS'#a07448'
p4031
aS'#4e3529'
p4032
aS'#dedede'
p4033
aS'#7b7b7b'
p4034
aS'#434342'
p4035
aS'#555556'
p4036
aS'#1d1d1e'
p4037
aS'#888888'
p4038
aS'#cfa975'
p4039
aS'#9f4e1c'
p4040
aS'#251005'
p4041
aS'#afa699'
p4042
aS'#181009'
p4043
aS'#51402e'
p4044
aS'#fdfdfe'
p4045
aS'#d5d4e0'
p4046
aS'#9ba9a8'
p4047
aS'#b6b3b2'
p4048
aS'#69625c'
p4049
aS'#201913'
p4050
aS'#506d6e'
p4051
aS'#22403e'
p4052
aS'#88b2cb'
p4053
aS'#fbe0dd'
p4054
aS'#fcd1cb'
p4055
aS'#fcbdb6'
p4056
aS'#5d9ba5'
p4057
aS'#d9ebe4'
p4058
aS'#90c0c2'
p4059
aS'#1c1c1c'
p4060
aS'#ababab'
p4061
aS'#626262'
p4062
aS'#dcd09b'
p4063
aS'#98826e'
p4064
aS'#412c22'
p4065
aS'#8b2320'
p4066
aS'#23150b'
p4067
aS'#957a4e'
p4068
aS'#fcfdfd'
p4069
aS'#c6d7dc'
p4070
aS'#9fa1a1'
p4071
aS'#171718'
p4072
aS'#5c585c'
p4073
aS'#9d9c9d'
p4074
aS'#6b6b6b'
p4075
aS'#202020'
p4076
aS'#b6b6b6'
p4077
aS'#343436'
p4078
aS'#e5dcdf'
p4079
aS'#988982'
p4080
aS'#af9f7e'
p4081
aS'#d7d9ca'
p4082
aS'#67493e'
p4083
aS'#8e97ad'
p4084
aS'#191a20'
p4085
aS'#d6dbee'
p4086
aS'#cfcfcf'
p4087
aS'#949494'
p4088
aS'#555555'
p4089
aS'#6b6b69'
p4090
aS'#9f9e99'
p4091
aS'#c0bfbb'
p4092
aS'#ddb4da'
p4093
aS'#f9d3e8'
p4094
aS'#242424'
p4095
aS'#6f7d7f'
p4096
aS'#3e342f'
p4097
aS'#bfbdbd'
p4098
aS'#e5e0bb'
p4099
aS'#b97540'
p4100
aS'#321b14'
p4101
aS'#a4a4a4'
p4102
aS'#585858'
p4103
aS'#171717'
p4104
aS'#afafaf'
p4105
aS'#fafafa'
p4106
aS'#515150'
p4107
aS'#e4e4d6'
p4108
aS'#615b52'
p4109
aS'#232016'
p4110
aS'#000000'
p4111
aS'#000000'
p4112
aS'#000000'
p4113
aS'#85a9cd'
p4114
aS'#78808d'
p4115
aS'#91918f'
p4116
aS'#75716a'
p4117
aS'#bab2a7'
p4118
aS'#f6f5f3'
p4119
aS'#0b0b0b'
p4120
aS'#aaaaaa'
p4121
aS'#6f6f6f'
p4122
aS'#7d6830'
p4123
aS'#c0bb78'
p4124
aS'#190c05'
p4125
aS'#6e6e6e'
p4126
aS'#070707'
p4127
aS'#f1f1f1'
p4128
aS'#ddc4ad'
p4129
aS'#25252b'
p4130
aS'#746f6a'
p4131
aS'#d4c3b4'
p4132
aS'#af8488'
p4133
aS'#9a7a78'
p4134
aS'#18253c'
p4135
aS'#c6a07e'
p4136
aS'#705e58'
p4137
aS'#745684'
p4138
aS'#161015'
p4139
aS'#c674a4'
p4140
aS'#535255'
p4141
aS'#131214'
p4142
aS'#aaaaaa'
p4143
a.