(lp0
V0084B4
p1
aV0084B4
p2
aV0084B4
p3
aV0084B4
p4
aVFF0900
p5
aV0084B4
p6
aVFA743E
p7
aV0084B4
p8
aV0084B4
p9
aV0084B4
p10
aV0084B4
p11
aV0084B4
p12
aV0084B4
p13
aV0084B4
p14
aV0084B4
p15
aV0084B4
p16
aV0084B4
p17
aV0084B4
p18
aV2B7BB9
p19
aV0084B4
p20
aV0084B4
p21
aV0084B4
p22
aV0084B4
p23
aV0084B4
p24
aV0084B4
p25
aV0084B4
p26
aV0084B4
p27
aV0084B4
p28
aV0084B4
p29
aV0084B4
p30
aV0084B4
p31
aV0084B4
p32
aV0084B4
p33
aV0084B4
p34
aV0084B4
p35
aV0084B4
p36
aV0084B4
p37
aV0084B4
p38
aV0084B4
p39
aV0084B4
p40
aV0084B4
p41
aVF5ABB5
p42
aV0084B4
p43
aV0084B4
p44
aV0084B4
p45
aV0084B4
p46
aV009999
p47
aVDE004A
p48
aV0084B4
p49
aV0084B4
p50
aV0084B4
p51
aV0084B4
p52
aV0084B4
p53
aV0084B4
p54
aV0084B4
p55
aV0084B4
p56
aV0084B4
p57
aV0084B4
p58
aV8A71A6
p59
aV0084B4
p60
aV0084B4
p61
aV0084B4
p62
aVDD2E44
p63
aV0084B4
p64
aV0084B4
p65
aV0084B4
p66
aV0084B4
p67
aV0084B4
p68
aVE653DC
p69
aV038543
p70
aV0084B4
p71
aV0084B4
p72
aVCF72B6
p73
aV0084B4
p74
aVFF3300
p75
aV0084B4
p76
aV0084B4
p77
aV0084B4
p78
aV0084B4
p79
aVCF107C
p80
aV0084B4
p81
aV0084B4
p82
aVFF0000
p83
aV0084B4
p84
aV0084B4
p85
aV0084B4
p86
aV0084B4
p87
aV0084B4
p88
aV0084B4
p89
aV050708
p90
aV038543
p91
aV0084B4
p92
aV0084B4
p93
aV0084B4
p94
aV0084B4
p95
aV0084B4
p96
aV0084B4
p97
aV0084B4
p98
aV0084B4
p99
aV0084B4
p100
aV0084B4
p101
aVF00EB4
p102
aV2D0DE0
p103
aV0084B4
p104
aV0084B4
p105
aV0084B4
p106
aV0084B4
p107
aV0084B4
p108
aV0084B4
p109
aV0084B4
p110
aV009999
p111
aV0084B4
p112
aV0084B4
p113
aV0084B4
p114
aV0084B4
p115
aVEB6161
p116
aV0084B4
p117
aV0084B4
p118
aV0084B4
p119
aV0084B4
p120
aV0084B4
p121
aV0084B4
p122
aV0084B4
p123
aV0084B4
p124
aV474A4A
p125
aV0084B4
p126
aV0084B4
p127
aV53778A
p128
aV0084B4
p129
aV0084B4
p130
aV0084B4
p131
aV0084B4
p132
aVB30083
p133
aV0084B4
p134
aV0084B4
p135
aV0084B4
p136
aV0084B4
p137
aV0084B4
p138
aV0084B4
p139
aV0084B4
p140
aV0084B4
p141
aV0084B4
p142
aV000000
p143
aV0084B4
p144
aV0084B4
p145
aV0084B4
p146
aV0084B4
p147
aV0084B4
p148
aV0084B4
p149
aV0084B4
p150
aV0084B4
p151
aV0084B4
p152
aV0084B4
p153
aV0084B4
p154
aV0084B4
p155
aV02779E
p156
aV0084B4
p157
aV0084B4
p158
aV0084B4
p159
aV0084B4
p160
aV0084B4
p161
aV0084B4
p162
aVCC3366
p163
aVB3A400
p164
aV860411
p165
aV0084B4
p166
aV0084B4
p167
aV00FFCC
p168
aV0084B4
p169
aV0084B4
p170
aVFFCC4D
p171
aV0084B4
p172
aV0084B4
p173
aV0084B4
p174
aVEB2A87
p175
aV0084B4
p176
aV8F0606
p177
aV0084B4
p178
aV0084B4
p179
aV0084B4
p180
aV0084B4
p181
aVD02B55
p182
aV0084B4
p183
aV0084B4
p184
aV0084B4
p185
aV2FC2EF
p186
aV0084B4
p187
aV0084B4
p188
aV0084B4
p189
aV0084B4
p190
aV0084B4
p191
aV0084B4
p192
aV840171
p193
aV0084B4
p194
aV0084B4
p195
aV0084B4
p196
aV0084B4
p197
aV0084B4
p198
aV0084B4
p199
aV0084B4
p200
aV0084B4
p201
aV0084B4
p202
aV0084B4
p203
aV0084B4
p204
aV0084B4
p205
aV0084B4
p206
aV0084B4
p207
aVAD9B53
p208
aV0084B4
p209
aVFF0000
p210
aV0084B4
p211
aV0084B4
p212
aV0084B4
p213
aV9266CC
p214
aV0084B4
p215
aV0084B4
p216
aVFF0000
p217
aVDD2E44
p218
aV0084B4
p219
aV0084B4
p220
aV0084B4
p221
aV0084B4
p222
aV0084B4
p223
aV0084B4
p224
aV0084B4
p225
aVF7BEF0
p226
aV0084B4
p227
aV93A644
p228
aV0084B4
p229
aV0084B4
p230
aV0084B4
p231
aVF283CB
p232
aV0084B4
p233
aV0084B4
p234
aVB30024
p235
aV0084B4
p236
aV0084B4
p237
aV0084B4
p238
aV0084B4
p239
aV0084B4
p240
aV0084B4
p241
aV0084B4
p242
aV0084B4
p243
aV0084B4
p244
aV0084B4
p245
aV000000
p246
aV0084B4
p247
aV94D487
p248
aVABB8C2
p249
aVDD2E44
p250
aV0084B4
p251
aV0084B4
p252
aVABB8C2
p253
aV0084B4
p254
aV0084B4
p255
aV0084B4
p256
aV0084B4
p257
aV0084B4
p258
aVFF046C
p259
aV0084B4
p260
aV0084B4
p261
aV0084B4
p262
aV0084B4
p263
aV0084B4
p264
aV0084B4
p265
aV0084B4
p266
aV0084B4
p267
aV0084B4
p268
aV0084B4
p269
aVB40B43
p270
aV0084B4
p271
aV0084B4
p272
aV0084B4
p273
aV0084B4
p274
aVFF0000
p275
aV0084B4
p276
aV0099B9
p277
aV470647
p278
aV1C305C
p279
aV0084B4
p280
aVFF3300
p281
aV0084B4
p282
aV0084B4
p283
aV0084B4
p284
aV0084B4
p285
aV0084B4
p286
aV0084B4
p287
aV0084B4
p288
aV009999
p289
aV0084B4
p290
aV0084B4
p291
aV0084B4
p292
aV0084B4
p293
aV0084B4
p294
aV0084B4
p295
aV0084B4
p296
aV0084B4
p297
aV0084B4
p298
aV0084B4
p299
aV0084B4
p300
aV0084B4
p301
aV0099B9
p302
aV0084B4
p303
aV0084B4
p304
aV0084B4
p305
aV0084B4
p306
aV0084B4
p307
aV0084B4
p308
aV0084B4
p309
aVF4D09C
p310
aV0084B4
p311
aV0084B4
p312
aV0084B4
p313
aV0084B4
p314
aV0084B4
p315
aV0084B4
p316
aV0084B4
p317
aV0084B4
p318
aV0084B4
p319
aVB40B43
p320
aV0084B4
p321
aV0084B4
p322
aV29FC53
p323
aV0084B4
p324
aV0084B4
p325
aV0084B4
p326
aVD4D4D4
p327
aV0084B4
p328
aV0084B4
p329
aV0084B4
p330
aVF5ABB5
p331
aV0084B4
p332
aV0084B4
p333
aV0084B4
p334
aV0084B4
p335
aV0084B4
p336
aV0084B4
p337
aV0084B4
p338
aV0084B4
p339
aV0084B4
p340
aV0084B4
p341
aV0084B4
p342
aV038543
p343
aV0084B4
p344
aV0084B4
p345
aV0084B4
p346
aV0084B4
p347
aV0084B4
p348
aV0084B4
p349
aV0084B4
p350
aV0084B4
p351
aV0084B4
p352
aV0084B4
p353
aV0084B4
p354
aV0084B4
p355
aV0084B4
p356
aV4FDB7B
p357
aVD02B55
p358
aV0084B4
p359
aV0084B4
p360
aV0084B4
p361
aV0084B4
p362
aV0084B4
p363
aV0084B4
p364
aV0084B4
p365
aV0084B4
p366
aV0084B4
p367
aVFF0000
p368
aV0084B4
p369
aV0084B4
p370
aV0084B4
p371
aV0084B4
p372
aV0084B4
p373
aV0084B4
p374
aV0084B4
p375
aV0084B4
p376
aV0084B4
p377
aV0084B4
p378
aV0084B4
p379
aV0084B4
p380
aV0084B4
p381
aV0084B4
p382
aV0084B4
p383
aV0084B4
p384
aV0084B4
p385
aV0084B4
p386
aVF200FF
p387
aV0084B4
p388
aV0084B4
p389
aV0084B4
p390
aV0084B4
p391
aV0084B4
p392
aV0084B4
p393
aVFF0000
p394
aVFF0000
p395
aV0084B4
p396
aV0084B4
p397
aV0084B4
p398
aV0084B4
p399
aV0084B4
p400
aV0084B4
p401
aV0084B4
p402
aV0084B4
p403
aV0084B4
p404
aV0084B4
p405
aV7311D6
p406
aV0084B4
p407
aV0084B4
p408
aV0084B4
p409
aV0084B4
p410
aV0084B4
p411
aV0084B4
p412
aVD0E9F2
p413
aV0084B4
p414
aV0084B4
p415
aV0084B4
p416
aV0084B4
p417
aV0084B4
p418
aV009999
p419
aV0084B4
p420
aV0084B4
p421
aV0084B4
p422
aV0084B4
p423
aV0084B4
p424
aV0084B4
p425
aV0084B4
p426
aV0084B4
p427
aV0084B4
p428
aV0084B4
p429
aV0084B4
p430
aV0084B4
p431
aVFF0000
p432
aV0084B4
p433
aV0084B4
p434
aVFA03FA
p435
aV0084B4
p436
aV0084B4
p437
aV0084B4
p438
aV0084B4
p439
aV0084B4
p440
aV0084B4
p441
aV0084B4
p442
aV0084B4
p443
aV0084B4
p444
aV0084B4
p445
aV0084B4
p446
aV0084B4
p447
aV0084B4
p448
aV0084B4
p449
aV0084B4
p450
aV0084B4
p451
aVB00614
p452
aV1F98C7
p453
aV0084B4
p454
aV0028FD
p455
aV0084B4
p456
aV0084B4
p457
aV0084B4
p458
aV038543
p459
aV0084B4
p460
aV0084B4
p461
aV0084B4
p462
aV0084B4
p463
aV0084B4
p464
aV0084B4
p465
aV0084B4
p466
aV0084B4
p467
aV0084B4
p468
aV0084B4
p469
aV0084B4
p470
aV0084B4
p471
aV0084B4
p472
aV0084B4
p473
aV0084B4
p474
aV0084B4
p475
aV0084B4
p476
aV0084B4
p477
aV53F7F4
p478
aVB40B43
p479
aV9D582E
p480
aV0084B4
p481
aV0084B4
p482
aV0084B4
p483
aV0084B4
p484
aV0084B4
p485
aV0084B4
p486
aV0084B4
p487
aV0084B4
p488
aV038543
p489
aV0084B4
p490
aV0084B4
p491
aV0084B4
p492
aV0084B4
p493
aV0084B4
p494
aVE04B9C
p495
aV0084B4
p496
aVFF0000
p497
aV0084B4
p498
aV0084B4
p499
aV0084B4
p500
aV0084B4
p501
aV0084B4
p502
aV0084B4
p503
aV0084B4
p504
aV0084B4
p505
aVD02B55
p506
aV0084B4
p507
aV0084B4
p508
aV7CB827
p509
aV0084B4
p510
aV0084B4
p511
aV0084B4
p512
aV0084B4
p513
aV0084B4
p514
aV0084B4
p515
aV0084B4
p516
aV0084B4
p517
aV0084B4
p518
aV0084B4
p519
aV0084B4
p520
aV0084B4
p521
aV0084B4
p522
aV0084B4
p523
aV0084B4
p524
aV0084B4
p525
aV0084B4
p526
aV0084B4
p527
aV0084B4
p528
aV0084B4
p529
aV0084B4
p530
aVD02B55
p531
aV0084B4
p532
aV0084B4
p533
aV0084B4
p534
aV0084B4
p535
aV23363D
p536
aV0084B4
p537
aV0084B4
p538
aV0084B4
p539
aV0084B4
p540
aV0084B4
p541
aV0084B4
p542
aV0084B4
p543
aV0084B4
p544
aV0084B4
p545
aV0084B4
p546
aVD02B55
p547
aVCC3366
p548
aV0084B4
p549
aV0084B4
p550
aV0084B4
p551
aV0084B4
p552
aV0084B4
p553
aV0084B4
p554
aV0084B4
p555
aV0084B4
p556
aV0084B4
p557
aV0084B4
p558
aV0084B4
p559
aV0084B4
p560
aV0084B4
p561
aV0099CC
p562
aV0084B4
p563
aV0084B4
p564
aV0084B4
p565
aV000000
p566
aV0084B4
p567
aV0084B4
p568
aV009999
p569
aV0084B4
p570
aV0084B4
p571
aV0084B4
p572
aV0084B4
p573
aV0084B4
p574
aV0084B4
p575
aVF5ABB5
p576
aV0084B4
p577
aV0084B4
p578
aV0084B4
p579
aV0084B4
p580
aV0099CC
p581
aV0084B4
p582
aV2FC2EF
p583
aV0084B4
p584
aV0084B4
p585
aV0084B4
p586
aV0084B4
p587
aV0084B4
p588
aV0084B4
p589
aV0084B4
p590
aV0084B4
p591
aV0084B4
p592
aV0084B4
p593
aV0084B4
p594
aV0084B4
p595
aV0084B4
p596
aV0084B4
p597
aV2FC2EF
p598
aV0084B4
p599
aV0084B4
p600
aVEB598A
p601
aV038543
p602
aV0084B4
p603
aV0084B4
p604
aV9266CC
p605
aV2FC2EF
p606
aV0084B4
p607
aV0084B4
p608
aV0084B4
p609
aV0084B4
p610
aV0084B4
p611
aV0084B4
p612
aV0084B4
p613
aV2FC2EF
p614
aV0084B4
p615
aV0084B4
p616
aV0084B4
p617
aV0084B4
p618
aVFF0000
p619
aV0084B4
p620
aV0084B4
p621
aV0084B4
p622
aVA31733
p623
aV0084B4
p624
aV0084B4
p625
aV0084B4
p626
aV0084B4
p627
aV0084B4
p628
aV0084B4
p629
aV0084B4
p630
aV038543
p631
aV0084B4
p632
aV0084B4
p633
aV0084B4
p634
aV2FC2EF
p635
aV0084B4
p636
aV0084B4
p637
aV0084B4
p638
aV0084B4
p639
aV0084B4
p640
aV0084B4
p641
aV0084B4
p642
aV0084B4
p643
aV0084B4
p644
aV0084B4
p645
aV0084B4
p646
aV0084B4
p647
aV0084B4
p648
aV0084B4
p649
aV0084B4
p650
aV0084B4
p651
aV0084B4
p652
aV0084B4
p653
aV0084B4
p654
aV0084B4
p655
aV0084B4
p656
aV0084B4
p657
aV2B7BB9
p658
aV0084B4
p659
aV0084B4
p660
aV0084B4
p661
aV0084B4
p662
aV0084B4
p663
aV0084B4
p664
aV0084B4
p665
aV0084B4
p666
aV0084B4
p667
aV0084B4
p668
aV0084B4
p669
aV0084B4
p670
aV0084B4
p671
aV2B7BB9
p672
aV0084B4
p673
aV0084B4
p674
aV0084B4
p675
aV0084B4
p676
aV000000
p677
aV0084B4
p678
aV0084B4
p679
aV0084B4
p680
aVD02B55
p681
aV0084B4
p682
aV0084B4
p683
aV0084B4
p684
aV0084B4
p685
aV0084B4
p686
aV0084B4
p687
aV0FBFBF
p688
aV0084B4
p689
aV0084B4
p690
aV0084B4
p691
aV0084B4
p692
aV0084B4
p693
aV0084B4
p694
aV0084B4
p695
aV0084B4
p696
aV0084B4
p697
aV0084B4
p698
aV0084B4
p699
aV0084B4
p700
aV0084B4
p701
aV0084B4
p702
aV0084B4
p703
aV0084B4
p704
aV0084B4
p705
aV0084B4
p706
aV0084B4
p707
aV0084B4
p708
aV0084B4
p709
aV0084B4
p710
aV0084B4
p711
aV0084B4
p712
aV0084B4
p713
aV0084B4
p714
aV0084B4
p715
aV0084B4
p716
aV0084B4
p717
aV0084B4
p718
aV0084B4
p719
aV2FC2EF
p720
aV0084B4
p721
aV009999
p722
aV0084B4
p723
aV0084B4
p724
aV0084B4
p725
aV0084B4
p726
aV0084B4
p727
aV0084B4
p728
aV0084B4
p729
aVABB8C2
p730
aV0084B4
p731
aV0084B4
p732
aV0084B4
p733
aV0084B4
p734
aV0084B4
p735
aV0084B4
p736
aV0084B4
p737
aV0084B4
p738
aV0084B4
p739
aV0084B4
p740
aV0084B4
p741
aV0084B4
p742
aV0084B4
p743
aV0084B4
p744
aV0084B4
p745
aV0084B4
p746
aV0084B4
p747
aV0084B4
p748
aV0084B4
p749
aV0084B4
p750
aV0084B4
p751
aV0084B4
p752
aV0084B4
p753
aV0084B4
p754
aV0084B4
p755
aV0084B4
p756
aV0084B4
p757
aV0084B4
p758
aV0084B4
p759
aV2FC2EF
p760
aV0084B4
p761
aV0084B4
p762
aV0084B4
p763
aVB40B43
p764
aV0084B4
p765
aV0084B4
p766
aV0084B4
p767
aV0084B4
p768
aV0084B4
p769
aV0084B4
p770
aV0084B4
p771
aV0084B4
p772
aV0084B4
p773
aV0084B4
p774
aV0084B4
p775
aV0084B4
p776
aVABB8C2
p777
aV0084B4
p778
aV0084B4
p779
aV0084B4
p780
aV0084B4
p781
aV0084B4
p782
aV0084B4
p783
aV0084B4
p784
aV0084B4
p785
aV0084B4
p786
aV2B7BB9
p787
aV71C776
p788
aVB40B43
p789
aV0084B4
p790
aV0084B4
p791
aV0084B4
p792
aV000011
p793
aV0084B4
p794
aV0084B4
p795
aV0084B4
p796
aV0084B4
p797
aV0084B4
p798
aV0084B4
p799
aV2B7BB9
p800
aV0084B4
p801
aV0084B4
p802
aVEB7FAA
p803
aV0084B4
p804
aV0084B4
p805
aV0084B4
p806
aV0084B4
p807
aV0084B4
p808
aV0084B4
p809
aV0084B4
p810
aV0084B4
p811
aV0084B4
p812
aV0084B4
p813
aV0084B4
p814
aV0084B4
p815
aV0084B4
p816
aV0084B4
p817
aV0084B4
p818
aV0084B4
p819
aV0084B4
p820
aV0084B4
p821
aV0084B4
p822
aV0084B4
p823
aV0084B4
p824
aV0084B4
p825
aV0084B4
p826
aV0084B4
p827
aV0084B4
p828
aV0084B4
p829
aV0084B4
p830
aV0084B4
p831
aVFA8E94
p832
aV93E882
p833
aV0084B4
p834
aV0084B4
p835
aV0084B4
p836
aV0084B4
p837
aV0084B4
p838
aV0084B4
p839
aV2B7BB9
p840
aV2B7BB9
p841
aV0084B4
p842
aV0084B4
p843
aV0084B4
p844
aV0084B4
p845
aV0084B4
p846
aV0084B4
p847
aV0084B4
p848
aV0084B4
p849
aV0084B4
p850
aV0084B4
p851
aV0084B4
p852
aV0084B4
p853
aV0084B4
p854
aV0084B4
p855
aV0084B4
p856
aV912FED
p857
aV0084B4
p858
aV0084B4
p859
aV0084B4
p860
aV0084B4
p861
aV0084B4
p862
aV0084B4
p863
aV0084B4
p864
aV0084B4
p865
aV0084B4
p866
aV0084B4
p867
aV0084B4
p868
aV0084B4
p869
aV0084B4
p870
aV0084B4
p871
aV0084B4
p872
aV0084B4
p873
aV0084B4
p874
aV0084B4
p875
aV0084B4
p876
aV0084B4
p877
aV0084B4
p878
aV0084B4
p879
aV0084B4
p880
aV0084B4
p881
aV0084B4
p882
aV0084B4
p883
aV0084B4
p884
aV0084B4
p885
aVCC3366
p886
aV0084B4
p887
aV0084B4
p888
aV0084B4
p889
aV0084B4
p890
aV0084B4
p891
aV0084B4
p892
aVF5ABB5
p893
aV0084B4
p894
aVDB5883
p895
aV0084B4
p896
aV0084B4
p897
aV0084B4
p898
aV0084B4
p899
aV0084B4
p900
aV0084B4
p901
aV0084B4
p902
aV0084B4
p903
aV0084B4
p904
aV0084B4
p905
aV0084B4
p906
aV0084B4
p907
aV0084B4
p908
aV0084B4
p909
aV0084B4
p910
aVCC3366
p911
aV0084B4
p912
aV0084B4
p913
aVB05882
p914
aV0084B4
p915
aV0084B4
p916
aV0084B4
p917
aV0084B4
p918
aV0084B4
p919
aV0084B4
p920
aV0084B4
p921
aV0084B4
p922
aV1F98C7
p923
aV0084B4
p924
aV0084B4
p925
aV0084B4
p926
aV0084B4
p927
aV0084B4
p928
aVF5ABB5
p929
aV0084B4
p930
aV0084B4
p931
aV0084B4
p932
aV009999
p933
aV0084B4
p934
aV990000
p935
aV0084B4
p936
aV0084B4
p937
aV0084B4
p938
aV0084B4
p939
aV0084B4
p940
aV0084B4
p941
aVFF0000
p942
aV0084B4
p943
aV0084B4
p944
aV0084B4
p945
aV0084B4
p946
aV0084B4
p947
aV0084B4
p948
aV0084B4
p949
aV0084B4
p950
aV0084B4
p951
aV0084B4
p952
aV0084B4
p953
aV0084B4
p954
aV0084B4
p955
aV0084B4
p956
aV0084B4
p957
aV0084B4
p958
aV0084B4
p959
aVAF5F9E
p960
aV0084B4
p961
aV0084B4
p962
aVB3009E
p963
aV0084B4
p964
aV0084B4
p965
aV0084B4
p966
aVA6A7A8
p967
aV000000
p968
aV0084B4
p969
aV0084B4
p970
aV0084B4
p971
aV0084B4
p972
aV0084B4
p973
aV0084B4
p974
aV0084B4
p975
aV0084B4
p976
aV0084B4
p977
aV0084B4
p978
aV0084B4
p979
aV0084B4
p980
aV0084B4
p981
aV0084B4
p982
aVEB0561
p983
aV0084B4
p984
aV0084B4
p985
aV0084B4
p986
aV947974
p987
aV0084B4
p988
aV0084B4
p989
aV0084B4
p990
aV0084B4
p991
aV0084B4
p992
aV0084B4
p993
aVFF0000
p994
aV000000
p995
aV0084B4
p996
aV0084B4
p997
aV0084B4
p998
aVABB8C2
p999
aV0084B4
p1000
aV0084B4
p1001
aV0084B4
p1002
aV0084B4
p1003
aV0084B4
p1004
aV949494
p1005
aV0084B4
p1006
aV0084B4
p1007
aV0084B4
p1008
aV0084B4
p1009
aV0084B4
p1010
aV090A0A
p1011
aV0084B4
p1012
aV0084B4
p1013
aV0084B4
p1014
aV0084B4
p1015
aVB40B43
p1016
aV0084B4
p1017
aV0084B4
p1018
aV0084B4
p1019
aV0084B4
p1020
aV0084B4
p1021
aV0084B4
p1022
aV0084B4
p1023
aV0084B4
p1024
aV0099B9
p1025
aV0084B4
p1026
aV0084B4
p1027
aV0084B4
p1028
aV0084B4
p1029
aV0084B4
p1030
aV0084B4
p1031
aV0084B4
p1032
aV0084B4
p1033
aV088253
p1034
aV0084B4
p1035
aV0084B4
p1036
aV2B7BB9
p1037
aV0084B4
p1038
aV0084B4
p1039
aV0084B4
p1040
aV4A913C
p1041
aV0084B4
p1042
aV0084B4
p1043
aV0084B4
p1044
aV0084B4
p1045
aV2B7BB9
p1046
aV000000
p1047
aV990000
p1048
aV0084B4
p1049
aV553355
p1050
aV0084B4
p1051
aV0084B4
p1052
aV0084B4
p1053
aV0084B4
p1054
aV0084B4
p1055
aV0084B4
p1056
aV0084B4
p1057
aV9B9B9B
p1058
aVED1D58
p1059
aV13F034
p1060
aV0099CC
p1061
aV8F0042
p1062
aV0084B4
p1063
aV0084B4
p1064
aV0084B4
p1065
aV0084B4
p1066
aV786A55
p1067
aVFF70E2
p1068
aV0084B4
p1069
aV0084B4
p1070
aV038543
p1071
aV3B94D9
p1072
aV0084B4
p1073
aV0084B4
p1074
aV0084B4
p1075
aV3B2B32
p1076
aV0084B4
p1077
aV5400B3
p1078
aV1BAEDB
p1079
aV0084B4
p1080
aVABB8C2
p1081
aV0084B4
p1082
aV0084B4
p1083
aV0084B4
p1084
aV0084B4
p1085
aV9266CC
p1086
aVABB8C2
p1087
aV0084B4
p1088
aVF5ABB5
p1089
aV0084B4
p1090
aV0084B4
p1091
aV0084B4
p1092
aV0084B4
p1093
aV0084B4
p1094
aV0084B4
p1095
aV330127
p1096
aV0084B4
p1097
aV0084B4
p1098
aV0084B4
p1099
aV0084B4
p1100
aV0084B4
p1101
aV0084B4
p1102
aV32006B
p1103
aVFF3300
p1104
aV0084B4
p1105
aV0084B4
p1106
aV009999
p1107
aV0084B4
p1108
aV8F5B8D
p1109
aV0084B4
p1110
aV0084B4
p1111
aV9266CC
p1112
aVABB8C2
p1113
aV0084B4
p1114
aV0084B4
p1115
aV009999
p1116
aV0084B4
p1117
aV0084B4
p1118
aV0084B4
p1119
aV0084B4
p1120
aV0084B4
p1121
aVC4C4C4
p1122
aV838978
p1123
aV0084B4
p1124
aV0084B4
p1125
aVABB8C2
p1126
aV0084B4
p1127
aV660066
p1128
aV0084B4
p1129
aVFF0091
p1130
aV0084B4
p1131
aV0084B4
p1132
aV0084B4
p1133
aV0084B4
p1134
aV0084B4
p1135
aV9266CC
p1136
aV0084B4
p1137
aV038543
p1138
aV0084B4
p1139
aV0084B4
p1140
aVFF0066
p1141
aV0084B4
p1142
aV0084B4
p1143
aV0084B4
p1144
aV0084B4
p1145
aV5B158A
p1146
aV0084B4
p1147
aV0084B4
p1148
aVCC59D4
p1149
aV009999
p1150
aVABB8C2
p1151
aV0084B4
p1152
aV0084B4
p1153
aV0084B4
p1154
aV0084B4
p1155
aV2FC2EF
p1156
aV0084B4
p1157
aV0084B4
p1158
aV0084B4
p1159
aV0084B4
p1160
aVB30057
p1161
aV0084B4
p1162
aV0084B4
p1163
aV0084B4
p1164
aV0084B4
p1165
aV0084B4
p1166
aV0084B4
p1167
aV0084B4
p1168
aV0084B4
p1169
aV0084B4
p1170
aV0084B4
p1171
aV0084B4
p1172
aVFF0000
p1173
aV0084B4
p1174
aV0084B4
p1175
aV49EB69
p1176
aV0084B4
p1177
aV0084B4
p1178
aV0084B4
p1179
aV0084B4
p1180
aV0084B4
p1181
aV838978
p1182
aV0084B4
p1183
aV0084B4
p1184
aV0084B4
p1185
aV000000
p1186
aVCE7834
p1187
aV0084B4
p1188
aV0084B4
p1189
aV520E8A
p1190
aV0084B4
p1191
aV0084B4
p1192
aV0084B4
p1193
aV0084B4
p1194
aV0084B4
p1195
aV0084B4
p1196
aV0084B4
p1197
aV0084B4
p1198
aVA10ABF
p1199
aV0084B4
p1200
aV0084B4
p1201
aV0084B4
p1202
aV2B2A2B
p1203
aV0084B4
p1204
aV0084B4
p1205
aVD02B55
p1206
aV0084B4
p1207
aV0084B4
p1208
aV0084B4
p1209
aV0084B4
p1210
aV131124
p1211
aV0084B4
p1212
aV0084B4
p1213
aV0084B4
p1214
aV0084B4
p1215
aV0084B4
p1216
aV0084B4
p1217
aV009999
p1218
aVABB8C2
p1219
aVB30000
p1220
aV0084B4
p1221
aV3D3C3D
p1222
aV2FC2EF
p1223
aV0084B4
p1224
aVFF3300
p1225
aV93A644
p1226
aV0084B4
p1227
aV0084B4
p1228
aV0084B4
p1229
aV0084B4
p1230
aV0084B4
p1231
aV0084B4
p1232
aVE8B2CC
p1233
aV0084B4
p1234
aV0084B4
p1235
aV0084B4
p1236
aV0084B4
p1237
aVF5ABB5
p1238
aV0084B4
p1239
aV0084B4
p1240
aV0084B4
p1241
aV0084B4
p1242
aV0084B4
p1243
aV009999
p1244
aV0084B4
p1245
aV3B94D9
p1246
aV038543
p1247
aV0084B4
p1248
aV0084B4
p1249
aV0084B4
p1250
aV737D80
p1251
aV0084B4
p1252
aV0084B4
p1253
aVFF6709
p1254
aV009999
p1255
aV17406C
p1256
aV0084B4
p1257
aV0084B4
p1258
aV0084B4
p1259
aV0084B4
p1260
aV0084B4
p1261
aV0084B4
p1262
aV000000
p1263
aV2280A9
p1264
aV0084B4
p1265
aVBF0A0A
p1266
aV0084B4
p1267
aV0084B4
p1268
aV0084B4
p1269
aVFF3300
p1270
aVFF6699
p1271
aVCCCCFF
p1272
aV0084B4
p1273
aV89C9FA
p1274
aV0084B4
p1275
aV0084B4
p1276
aV0084B4
p1277
aV0084B4
p1278
aV0084B4
p1279
aV0084B4
p1280
aV0084B4
p1281
aV0084B4
p1282
aV0084B4
p1283
aV0084B4
p1284
aV0084B4
p1285
aV088253
p1286
aV000000
p1287
aV0084B4
p1288
aV0084B4
p1289
aV0084B4
p1290
aV592D6B
p1291
aVAD8C09
p1292
aV2FC2EF
p1293
aV0084B4
p1294
aV0084B4
p1295
aV0084B4
p1296
aV0084B4
p1297
aV0084B4
p1298
aV0084B4
p1299
aV0099CC
p1300
aV051C24
p1301
aV2FC2EF
p1302
aV0084B4
p1303
aV0084B4
p1304
aVFF0000
p1305
aV0084B4
p1306
aV14E0DD
p1307
aV0084B4
p1308
aV0084B4
p1309
aV0084B4
p1310
aVABB8C2
p1311
aV0084B4
p1312
aV0084B4
p1313
aV0084B4
p1314
aVCC3366
p1315
aVABB8C2
p1316
aV0084B4
p1317
aV0084B4
p1318
aV7A7878
p1319
aV0084B4
p1320
aV0084B4
p1321
aV0084B4
p1322
aV0084B4
p1323
aV010303
p1324
aV000000
p1325
aV0084B4
p1326
aV2FC2EF
p1327
aV1F98C7
p1328
aV0084B4
p1329
aV0084B4
p1330
aV0084B4
p1331
aV2B7BB9
p1332
aV0084B4
p1333
aV0084B4
p1334
aV0084B4
p1335
aV0084B4
p1336
aVB40B43
p1337
aV89C9FA
p1338
aV0084B4
p1339
aV0084B4
p1340
aV0084B4
p1341
aV009999
p1342
aV0084B4
p1343
aV05394A
p1344
aV0084B4
p1345
aV0084B4
p1346
aV0084B4
p1347
aV2F233B
p1348
aV0084B4
p1349
aV2FC2EF
p1350
aV0084B4
p1351
aVC40837
p1352
aV2B7BB9
p1353
aV0084B4
p1354
aV0084B4
p1355
aV0084B4
p1356
aV0084B4
p1357
aV0084B4
p1358
aV0084B4
p1359
aV0084B4
p1360
aVB40B43
p1361
aV0084B4
p1362
aV0084B4
p1363
aV750707
p1364
aV2FC2EF
p1365
aV0084B4
p1366
aV0084B4
p1367
aV0084B4
p1368
aV2FC2EF
p1369
aVD02B55
p1370
aV0084B4
p1371
aV0084B4
p1372
aV0084B4
p1373
aV0084B4
p1374
aV22E6E6
p1375
aV0084B4
p1376
aV0084B4
p1377
aV0084B4
p1378
aV0084B4
p1379
aV0084B4
p1380
aV0084B4
p1381
aV0084B4
p1382
aV0084B4
p1383
aV0084B4
p1384
aV0084B4
p1385
aV333333
p1386
aV0084B4
p1387
aV0084B4
p1388
aV0084B4
p1389
aV009999
p1390
aV0084B4
p1391
aV0084B4
p1392
aV009999
p1393
aV0084B4
p1394
aV0084B4
p1395
aVEC1DF0
p1396
aV0084B4
p1397
aVC8A1F5
p1398
aV0084B4
p1399
aV2FC2EF
p1400
aV0084B4
p1401
aV0084B4
p1402
aV0084B4
p1403
aV0084B4
p1404
aVBF889E
p1405
aV0084B4
p1406
aV0084B4
p1407
aV0084B4
p1408
aV2FC2EF
p1409
aV0084B4
p1410
aV0084B4
p1411
aV0084B4
p1412
aV0084B4
p1413
aV0084B4
p1414
aV0084B4
p1415
aV2FC2EF
p1416
aV0084B4
p1417
aVB40B43
p1418
aV038543
p1419
aV0084B4
p1420
aV0084B4
p1421
aV0084B4
p1422
aV9266CC
p1423
aV2B7BB9
p1424
aV0084B4
p1425
aV9266CC
p1426
aV0084B4
p1427
aV0084B4
p1428
aV0084B4
p1429
aV0084B4
p1430
aV0084B4
p1431
aV89C9FA
p1432
aV2B7BB9
p1433
aV0084B4
p1434
aV0084B4
p1435
aV0084B4
p1436
aV0084B4
p1437
aV9266CC
p1438
aV0084B4
p1439
aV0084B4
p1440
aV0084B4
p1441
aV0084B4
p1442
aV0084B4
p1443
aV0084B4
p1444
aVE63462
p1445
aV0084B4
p1446
aV2FC2EF
p1447
aV0084B4
p1448
aV2B7BB9
p1449
aVABB8C2
p1450
aV0084B4
p1451
aV0084B4
p1452
aV0084B4
p1453
aV0084B4
p1454
aV0084B4
p1455
aV0084B4
p1456
aV0084B4
p1457
aV0084B4
p1458
aV0084B4
p1459
aV0084B4
p1460
aV0084B4
p1461
aVF5B1ED
p1462
aV0084B4
p1463
aV0084B4
p1464
aV0084B4
p1465
aV0084B4
p1466
aV2B7BB9
p1467
aV0084B4
p1468
aV0084B4
p1469
aVF5ABB5
p1470
aV0084B4
p1471
aV0084B4
p1472
aV0084B4
p1473
aV0084B4
p1474
aV0084B4
p1475
aV009999
p1476
aV0084B4
p1477
aV0084B4
p1478
aV0084B4
p1479
aV000000
p1480
aV0084B4
p1481
aV0084B4
p1482
aV0084B4
p1483
aV0084B4
p1484
aV0084B4
p1485
aV0084B4
p1486
aV0084B4
p1487
aV0084B4
p1488
aV2B7BB9
p1489
aV0084B4
p1490
aV0084B4
p1491
aV0084B4
p1492
aV0084B4
p1493
aVF5ABB5
p1494
aV0084B4
p1495
aV0084B4
p1496
aV0084B4
p1497
aV0084B4
p1498
aV0084B4
p1499
aV0084B4
p1500
aV0084B4
p1501
aV0084B4
p1502
aV0084B4
p1503
aV0084B4
p1504
aV0084B4
p1505
aV442CCF
p1506
aV0084B4
p1507
aV0084B4
p1508
aV0084B4
p1509
aV0084B4
p1510
aV0084B4
p1511
aV0084B4
p1512
aV0084B4
p1513
aV0084B4
p1514
aV0084B4
p1515
aV0084B4
p1516
aV0084B4
p1517
aV0084B4
p1518
aV0084B4
p1519
aV0084B4
p1520
aV0084B4
p1521
aV000000
p1522
aV0084B4
p1523
aV0084B4
p1524
aV0084B4
p1525
aV0084B4
p1526
aV0084B4
p1527
aV0084B4
p1528
aV0084B4
p1529
aV0084B4
p1530
aV0084B4
p1531
aV0084B4
p1532
aV009999
p1533
aV0084B4
p1534
aV0084B4
p1535
aV0084B4
p1536
aV0084B4
p1537
aV0084B4
p1538
aVD6082B
p1539
aV5E412F
p1540
aV0084B4
p1541
aV0084B4
p1542
aV9266CC
p1543
aV6207AD
p1544
aV000000
p1545
aV0084B4
p1546
aV0084B4
p1547
aV0084B4
p1548
aV0084B4
p1549
aV0084B4
p1550
aV0084B4
p1551
aV0084B4
p1552
aV0084B4
p1553
aV0084B4
p1554
aV0084B4
p1555
aV0084B4
p1556
aV0084B4
p1557
aV0084B4
p1558
aV0084B4
p1559
aV0084B4
p1560
aV0084B4
p1561
aV0084B4
p1562
aV0084B4
p1563
aV0084B4
p1564
aV0084B4
p1565
aV0084B4
p1566
aV0084B4
p1567
aV0084B4
p1568
aV0084B4
p1569
aVFBB3D8
p1570
aV0084B4
p1571
aV0084B4
p1572
aV0084B4
p1573
aV0084B4
p1574
aV0084B4
p1575
aV0084B4
p1576
aV0084B4
p1577
aV0084B4
p1578
aV0084B4
p1579
aV0084B4
p1580
aV353738
p1581
aV0084B4
p1582
aV0084B4
p1583
aV0084B4
p1584
aV0084B4
p1585
aV0084B4
p1586
aV0084B4
p1587
aV0084B4
p1588
aV0084B4
p1589
aV0084B4
p1590
aV0084B4
p1591
aV0084B4
p1592
aV0084B4
p1593
aV0084B4
p1594
aV0084B4
p1595
aV0084B4
p1596
aV090408
p1597
aV0084B4
p1598
aV0084B4
p1599
aVF090FF
p1600
aV0084B4
p1601
aV0084B4
p1602
aV0084B4
p1603
aV0084B4
p1604
aV0084B4
p1605
aV0084B4
p1606
aV0084B4
p1607
aV0084B4
p1608
aV009999
p1609
aV5C5C5C
p1610
aV0084B4
p1611
aV0084B4
p1612
aV0084B4
p1613
aV0084B4
p1614
aV0084B4
p1615
aV0084B4
p1616
aV0084B4
p1617
aV0084B4
p1618
aV0084B4
p1619
aV0084B4
p1620
aV0084B4
p1621
aV0084B4
p1622
aV0084B4
p1623
aV0084B4
p1624
aV0084B4
p1625
aV0084B4
p1626
aVF5C1CE
p1627
aV0084B4
p1628
aV2FC2EF
p1629
aV0084B4
p1630
aV0084B4
p1631
aV0084B4
p1632
aV0084B4
p1633
aV2B7BB9
p1634
aV2B7BB9
p1635
aV0084B4
p1636
aV0084B4
p1637
aV0084B4
p1638
aV0084B4
p1639
aV009999
p1640
aV0084B4
p1641
aV0084B4
p1642
aV0084B4
p1643
aV0084B4
p1644
aV0084B4
p1645
aV0084B4
p1646
aV0084B4
p1647
aV0084B4
p1648
aVEB2821
p1649
aV0084B4
p1650
aV0084B4
p1651
aV0084B4
p1652
aVFF0000
p1653
aV0084B4
p1654
aV0084B4
p1655
aV0084B4
p1656
aV0084B4
p1657
aV0084B4
p1658
aV0084B4
p1659
aV0084B4
p1660
aV0084B4
p1661
aV0084B4
p1662
aV0084B4
p1663
aV0084B4
p1664
aV0084B4
p1665
aV0084B4
p1666
aV0084B4
p1667
aV0084B4
p1668
aV2FC2EF
p1669
aV0084B4
p1670
aV0084B4
p1671
aV0084B4
p1672
aV0084B4
p1673
aV0084B4
p1674
aV0084B4
p1675
aV0084B4
p1676
aV0084B4
p1677
aV0084B4
p1678
aV0084B4
p1679
aV2FC2EF
p1680
aV7D8A3A
p1681
aV0084B4
p1682
aV0084B4
p1683
aV0084B4
p1684
aV0084B4
p1685
aV0084B4
p1686
aV0084B4
p1687
aV0084B4
p1688
aV0084B4
p1689
aV0084B4
p1690
aV0084B4
p1691
aV0084B4
p1692
aV0084B4
p1693
aV0084B4
p1694
aV0084B4
p1695
aV080808
p1696
aV0084B4
p1697
aV0084B4
p1698
aV0084B4
p1699
aV0084B4
p1700
aV0084B4
p1701
aV0084B4
p1702
aV0084B4
p1703
aV0084B4
p1704
aV0084B4
p1705
aV0084B4
p1706
aV000000
p1707
aV0084B4
p1708
aV2B7BB9
p1709
aV0084B4
p1710
aV0084B4
p1711
aV8774BD
p1712
aV0084B4
p1713
aV0084B4
p1714
aV0084B4
p1715
aV0084B4
p1716
aVF0B2DA
p1717
aV89C9FA
p1718
aV0084B4
p1719
aV000203
p1720
aV0084B4
p1721
aV0084B4
p1722
aV0084B4
p1723
aV0084B4
p1724
aV0084B4
p1725
aV0084B4
p1726
aV0084B4
p1727
aV0084B4
p1728
aV0099CC
p1729
aV0084B4
p1730
aV0084B4
p1731
aV0084B4
p1732
aV0084B4
p1733
aV0084B4
p1734
aV0084B4
p1735
aV0084B4
p1736
aV0084B4
p1737
aV0084B4
p1738
aV0084B4
p1739
aV0084B4
p1740
aV0084B4
p1741
aV0084B4
p1742
aV0084B4
p1743
aV0084B4
p1744
aV0084B4
p1745
aV0084B4
p1746
aV0084B4
p1747
aV0084B4
p1748
aV0084B4
p1749
aV0084B4
p1750
aV0084B4
p1751
aVB58ECC
p1752
aV0084B4
p1753
aV2FC2EF
p1754
aV0084B4
p1755
aV0084B4
p1756
aV0084B4
p1757
aV0084B4
p1758
aV6200B3
p1759
aV0084B4
p1760
aV0084B4
p1761
aV0084B4
p1762
aV000000
p1763
aV0084B4
p1764
aV11998E
p1765
aV0084B4
p1766
aV0084B4
p1767
aV0084B4
p1768
aV0084B4
p1769
aV0084B4
p1770
aV0084B4
p1771
aV0084B4
p1772
aV333333
p1773
aV0084B4
p1774
aVFF9499
p1775
aVFA99EF
p1776
aV0084B4
p1777
aV0084B4
p1778
aV9D582E
p1779
aV0084B4
p1780
aV0084B4
p1781
aV009999
p1782
aV0084B4
p1783
aV513612
p1784
aV0084B4
p1785
aV0084B4
p1786
aVD065E0
p1787
aV0084B4
p1788
aV0084B4
p1789
aV0084B4
p1790
aV0084B4
p1791
aV0084B4
p1792
aV0084B4
p1793
aV0084B4
p1794
aV0084B4
p1795
aV0084B4
p1796
aV0084B4
p1797
aV009999
p1798
aV0084B4
p1799
aV0084B4
p1800
aV0084B4
p1801
aV0084B4
p1802
aV0084B4
p1803
aV0084B4
p1804
aV0084B4
p1805
aV0084B4
p1806
aV0084B4
p1807
aV0084B4
p1808
aV0084B4
p1809
aV0084B4
p1810
aV0084B4
p1811
aV0084B4
p1812
aV0084B4
p1813
aV0084B4
p1814
aV0A78FF
p1815
aV0084B4
p1816
aV0084B4
p1817
aV0084B4
p1818
aV0084B4
p1819
aVF2A9D5
p1820
aV0084B4
p1821
aV000000
p1822
aV9266CC
p1823
aV0084B4
p1824
aV0084B4
p1825
aV0084B4
p1826
aV0084B4
p1827
aV0084B4
p1828
aV0084B4
p1829
aV0084B4
p1830
aV0084B4
p1831
aV0084B4
p1832
aV0084B4
p1833
aV0084B4
p1834
aV0084B4
p1835
aV0084B4
p1836
aV0084B4
p1837
aV0084B4
p1838
aV0084B4
p1839
aVAA00B3
p1840
aV0084B4
p1841
aV0084B4
p1842
aV0084B4
p1843
aV0084B4
p1844
aV0084B4
p1845
aV0084B4
p1846
aV0084B4
p1847
aV0084B4
p1848
aV0084B4
p1849
aV0084B4
p1850
aV0084B4
p1851
aV0084B4
p1852
aV0084B4
p1853
aV0084B4
p1854
aV0084B4
p1855
aV0084B4
p1856
aV0084B4
p1857
aV0084B4
p1858
aV0084B4
p1859
aV0084B4
p1860
aV000000
p1861
aV0084B4
p1862
aVFF3378
p1863
aV0084B4
p1864
aV0084B4
p1865
aV0084B4
p1866
aV0084B4
p1867
aV0084B4
p1868
aV0084B4
p1869
aV0084B4
p1870
aV0084B4
p1871
aV0084B4
p1872
aV333333
p1873
aV0084B4
p1874
aV0084B4
p1875
aV0084B4
p1876
aVFF94E6
p1877
aV0084B4
p1878
aV0084B4
p1879
aV0084B4
p1880
aV0084B4
p1881
aV0084B4
p1882
aV2FC2EF
p1883
aV2FC2EF
p1884
aV0084B4
p1885
aV0084B4
p1886
aV0084B4
p1887
aV0084B4
p1888
aVD02B55
p1889
aV009999
p1890
aV0084B4
p1891
aV0084B4
p1892
aV0084B4
p1893
aV0084B4
p1894
aV0084B4
p1895
aV0084B4
p1896
aV0084B4
p1897
aV0084B4
p1898
aV0084B4
p1899
aV0084B4
p1900
aV038543
p1901
aVFABEFA
p1902
aV0084B4
p1903
aV0084B4
p1904
aV0084B4
p1905
aV0084B4
p1906
aV0084B4
p1907
aV0084B4
p1908
aV0084B4
p1909
aV0084B4
p1910
aV0084B4
p1911
aV0084B4
p1912
aV0084B4
p1913
aV0084B4
p1914
aV0084B4
p1915
aV0084B4
p1916
aV009999
p1917
aV0084B4
p1918
aVFF0000
p1919
aV0084B4
p1920
aV54008C
p1921
aV0084B4
p1922
aV0084B4
p1923
aV0084B4
p1924
aV0084B4
p1925
aV038543
p1926
aV0084B4
p1927
aV0084B4
p1928
aV0084B4
p1929
aV0084B4
p1930
aV0084B4
p1931
aVCE7834
p1932
aV60F7FC
p1933
aV0084B4
p1934
aV0084B4
p1935
aV663355
p1936
aV0084B4
p1937
aV0084B4
p1938
aV009999
p1939
aV0084B4
p1940
aV0084B4
p1941
aV0084B4
p1942
aV0084B4
p1943
aV0084B4
p1944
aV0084B4
p1945
aV0084B4
p1946
aV0084B4
p1947
aV0084B4
p1948
aV0084B4
p1949
aV0084B4
p1950
aV0084B4
p1951
aV0084B4
p1952
aV0084B4
p1953
aV0084B4
p1954
aV0084B4
p1955
aV0084B4
p1956
aV0084B4
p1957
aV0084B4
p1958
aV009999
p1959
aV0084B4
p1960
aV0084B4
p1961
aV0084B4
p1962
aV0084B4
p1963
aV0084B4
p1964
aV0084B4
p1965
aV0084B4
p1966
aV0084B4
p1967
aV009999
p1968
aV0084B4
p1969
aV0084B4
p1970
aV0084B4
p1971
aV0084B4
p1972
aV0084B4
p1973
aV0084B4
p1974
aV000808
p1975
aV0084B4
p1976
aV000000
p1977
aV0084B4
p1978
aV0084B4
p1979
aV0084B4
p1980
aV0084B4
p1981
aVAD1A4B
p1982
aV0084B4
p1983
aV0084B4
p1984
aV0084B4
p1985
aV2FC2EF
p1986
aV0084B4
p1987
aV0084B4
p1988
aV0084B4
p1989
aV0084B4
p1990
aV2FC2EF
p1991
aV0084B4
p1992
aV0084B4
p1993
aVB40B43
p1994
aV0084B4
p1995
aV0084B4
p1996
aV0084B4
p1997
aV0084B4
p1998
aV0084B4
p1999
aV0084B4
p2000
aV0084B4
p2001
aV0084B4
p2002
aV0084B4
p2003
aV0084B4
p2004
aV0084B4
p2005
aV0084B4
p2006
aV0084B4
p2007
aV0084B4
p2008
aV000000
p2009
aV0084B4
p2010
aV0084B4
p2011
aV0084B4
p2012
aVE02DA7
p2013
aV038543
p2014
aV0084B4
p2015
aV0084B4
p2016
aV0084B4
p2017
aV0084B4
p2018
aV0084B4
p2019
aV990000
p2020
aV7C5CB8
p2021
aV0084B4
p2022
aV2FC2EF
p2023
aVFF0000
p2024
aV0084B4
p2025
aV0084B4
p2026
aV0084B4
p2027
aV0084B4
p2028
aV0084B4
p2029
aV2B7BB9
p2030
aV94D487
p2031
aV000000
p2032
aV0084B4
p2033
aV0EBFE9
p2034
aV3300CC
p2035
aV0084B4
p2036
aV0084B4
p2037
aVFFCC4D
p2038
aV0084B4
p2039
aV0084B4
p2040
aV2FC2EF
p2041
aV0084B4
p2042
aV0084B4
p2043
aV0084B4
p2044
aV0084B4
p2045
aV0084B4
p2046
aV0084B4
p2047
aVDD2E44
p2048
aV0084B4
p2049
aV0084B4
p2050
aV0084B4
p2051
aVED1D1D
p2052
aV0084B4
p2053
aV0084B4
p2054
aV89C9FA
p2055
aV9266CC
p2056
aV2FC2EF
p2057
aV0084B4
p2058
aV0084B4
p2059
aV0084B4
p2060
aV2B7BB9
p2061
aVDD2E44
p2062
aV0084B4
p2063
aV009999
p2064
aV0084B4
p2065
aV0084B4
p2066
aV0084B4
p2067
aV0084B4
p2068
aV2B7BB9
p2069
aV0084B4
p2070
aV0084B4
p2071
aV0084B4
p2072
aV9266CC
p2073
aVF5ABB5
p2074
aV9266CC
p2075
aV2B7BB9
p2076
aV0084B4
p2077
aV3B94D9
p2078
aVD02B55
p2079
aV0084B4
p2080
aV0084B4
p2081
aV0084B4
p2082
aV1A1B1F
p2083
aV0084B4
p2084
aV610D2C
p2085
aV000000
p2086
aV9412B5
p2087
aV0084B4
p2088
aV0084B4
p2089
aV0084B4
p2090
aV0084B4
p2091
aV0084B4
p2092
aV0084B4
p2093
aV0084B4
p2094
aV0084B4
p2095
aVDD2E44
p2096
aV2B7BB9
p2097
aV0084B4
p2098
aV0084B4
p2099
aVABB8C2
p2100
aV1D0A12
p2101
aV4A913C
p2102
aV94D487
p2103
aV0084B4
p2104
aV0084B4
p2105
aV0084B4
p2106
aV0084B4
p2107
aV0084B4
p2108
aV0084B4
p2109
aV0084B4
p2110
aV0084B4
p2111
aV1C8CA8
p2112
aV009999
p2113
aV0084B4
p2114
aV175163
p2115
aVE01B53
p2116
aV0084B4
p2117
aV0084B4
p2118
aV0084B4
p2119
aV0084B4
p2120
aV0084B4
p2121
aV0084B4
p2122
aV0084B4
p2123
aVFF0000
p2124
aV0084B4
p2125
aV0084B4
p2126
aV0084B4
p2127
aV0084B4
p2128
aV0084B4
p2129
aVCF50AD
p2130
aV0084B4
p2131
aV780578
p2132
aV0084B4
p2133
aV0084B4
p2134
aV272829
p2135
aV0099B9
p2136
aV0084B4
p2137
aV0084B4
p2138
aV0084B4
p2139
aVDD2E44
p2140
aV0084B4
p2141
aV0084B4
p2142
aV0084B4
p2143
aV0084B4
p2144
aV0084B4
p2145
aVF5ABB5
p2146
aV9266CC
p2147
aV0084B4
p2148
aV0084B4
p2149
aV0084B4
p2150
aV0084B4
p2151
aV0084B4
p2152
aV2FC2EF
p2153
aV0084B4
p2154
aV0084B4
p2155
aV34495E
p2156
aV2FC2EF
p2157
aV0084B4
p2158
aV3E5B66
p2159
aVABB8C2
p2160
aV0084B4
p2161
aV2B7BB9
p2162
aV0084B4
p2163
aV9266CC
p2164
aV0084B4
p2165
aV0084B4
p2166
aV0099CC
p2167
aV0084B4
p2168
aVABB8C2
p2169
aV0084B4
p2170
aV89C9FA
p2171
aV0084B4
p2172
aV0084B4
p2173
aV0084B4
p2174
aV0084B4
p2175
aV0084B4
p2176
aV0084B4
p2177
aV0084B4
p2178
aV9266CC
p2179
aV3B94D9
p2180
aV0084B4
p2181
aV0084B4
p2182
aV0084B4
p2183
aV0084B4
p2184
aV0084B4
p2185
aV0084B4
p2186
aVF5ABB5
p2187
aV030004
p2188
aV0084B4
p2189
aV0084B4
p2190
aV0084B4
p2191
aV0084B4
p2192
aV0084B4
p2193
aVB30000
p2194
aV1269EB
p2195
aV0084B4
p2196
aV0084B4
p2197
aV0084B4
p2198
aV0084B4
p2199
aV0084B4
p2200
aV0084B4
p2201
aV0084B4
p2202
aV0084B4
p2203
aV9D582E
p2204
aVF5ABB5
p2205
aV0084B4
p2206
aV4A913C
p2207
aVF5ABB5
p2208
aV0084B4
p2209
aV0084B4
p2210
aV0084B4
p2211
aV0084B4
p2212
aV0084B4
p2213
aVDD2E44
p2214
aV0084B4
p2215
aV2B7BB9
p2216
aV0084B4
p2217
aV0084B4
p2218
aV0084B4
p2219
aV0084B4
p2220
aV0084B4
p2221
aV0084B4
p2222
aV0084B4
p2223
aV009999
p2224
aV0084B4
p2225
aV0084B4
p2226
aV0084B4
p2227
aV0084B4
p2228
aV0084B4
p2229
aV0084B4
p2230
aV009999
p2231
aV0084B4
p2232
aV0084B4
p2233
aV0084B4
p2234
aV0084B4
p2235
aVF266ED
p2236
aV0084B4
p2237
aV009999
p2238
aVDB34DB
p2239
aV0084B4
p2240
aV0084B4
p2241
aV0084B4
p2242
aV0084B4
p2243
aV0084B4
p2244
aV0084B4
p2245
aV2B7BB9
p2246
aV000000
p2247
aV088253
p2248
aV0084B4
p2249
aV0084B4
p2250
aV0084B4
p2251
aV0084B4
p2252
aV0084B4
p2253
aV0084B4
p2254
aV009999
p2255
aV0084B4
p2256
aV0084B4
p2257
aV0084B4
p2258
aV0084B4
p2259
aV088253
p2260
aV8EA2DE
p2261
aV0084B4
p2262
aV0084B4
p2263
aV0084B4
p2264
aVF20524
p2265
aV0084B4
p2266
aV0084B4
p2267
aV0084B4
p2268
aV0084B4
p2269
aV0084B4
p2270
aV009999
p2271
aV0084B4
p2272
aV0084B4
p2273
aV0084B4
p2274
aV0084B4
p2275
aV00B380
p2276
aV0084B4
p2277
aVC89B1E
p2278
aV9B0EED
p2279
aV0084B4
p2280
aV0084B4
p2281
aV0084B4
p2282
aV0084B4
p2283
aV000000
p2284
aV0084B4
p2285
aV0084B4
p2286
aV0084B4
p2287
aV0084B4
p2288
aV0084B4
p2289
aV038543
p2290
aV0084B4
p2291
aV0084B4
p2292
aV0084B4
p2293
aV0084B4
p2294
aV2B7BB9
p2295
aVABB8C2
p2296
aV0084B4
p2297
aV0084B4
p2298
aV9266CC
p2299
aV360303
p2300
aV0084B4
p2301
aV0084B4
p2302
aV0084B4
p2303
aV0084B4
p2304
aV0084B4
p2305
aV0084B4
p2306
aV89C9FA
p2307
aV0084B4
p2308
aV0084B4
p2309
aV0084B4
p2310
aV0084B4
p2311
aV0084B4
p2312
aV0084B4
p2313
aV0084B4
p2314
aV0084B4
p2315
aV0084B4
p2316
aV000000
p2317
aV0084B4
p2318
aV0084B4
p2319
aVF5ABB5
p2320
aV0084B4
p2321
aV0084B4
p2322
aV0084B4
p2323
aV0084B4
p2324
aV8209F2
p2325
aV611D78
p2326
aV0084B4
p2327
aV0084B4
p2328
aV000000
p2329
aV0084B4
p2330
aV0084B4
p2331
aVE50AF5
p2332
aV0084B4
p2333
aV0084B4
p2334
aV0084B4
p2335
aV0084B4
p2336
aV0084B4
p2337
aV0084B4
p2338
aV0084B4
p2339
aV0084B4
p2340
aV0084B4
p2341
aV0084B4
p2342
aV0084B4
p2343
aV0084B4
p2344
aV000000
p2345
aV0084B4
p2346
aV0084B4
p2347
aV0084B4
p2348
aV009999
p2349
aVFF0000
p2350
aV0084B4
p2351
aV8C1729
p2352
aVFF3300
p2353
aV0084B4
p2354
aV0084B4
p2355
aV0084B4
p2356
aV0084B4
p2357
aV0084B4
p2358
aV0084B4
p2359
aV0084B4
p2360
aV009999
p2361
aV0084B4
p2362
aV0084B4
p2363
aV0084B4
p2364
aV0084B4
p2365
aV0084B4
p2366
aV0084B4
p2367
aV7D7D7D
p2368
aV0084B4
p2369
aV0084B4
p2370
aV009999
p2371
aV0084B4
p2372
aV0084B4
p2373
aVCC3366
p2374
aV0084B4
p2375
aVE8590C
p2376
aVCE7834
p2377
aV0084B4
p2378
aV0084B4
p2379
aV0084B4
p2380
aV0084B4
p2381
aV696969
p2382
aV0084B4
p2383
aV0084B4
p2384
aV0084B4
p2385
aV0084B4
p2386
aV16B39E
p2387
aV0084B4
p2388
aV0084B4
p2389
aV0084B4
p2390
aV0084B4
p2391
aV0084B4
p2392
aV0084B4
p2393
aVAAAAAA
p2394
aV0084B4
p2395
aV0084B4
p2396
aV0084B4
p2397
aV0084B4
p2398
aV0084B4
p2399
aV0084B4
p2400
aV0084B4
p2401
aV0084B4
p2402
aV0084B4
p2403
aV009999
p2404
aV0084B4
p2405
aV0084B4
p2406
aV85F5E6
p2407
aV0084B4
p2408
aVB668F7
p2409
aV0084B4
p2410
aV0084B4
p2411
aV0084B4
p2412
aV0084B4
p2413
aV0084B4
p2414
aV0084B4
p2415
aV000000
p2416
aV0084B4
p2417
aV0084B4
p2418
aV0084B4
p2419
aV0084B4
p2420
aVF6CBFA
p2421
aV0084B4
p2422
aV0084B4
p2423
aV0084B4
p2424
aV115656
p2425
aV0099CC
p2426
aV0084B4
p2427
aV0084B4
p2428
aV0084B4
p2429
aV038543
p2430
aV0084B4
p2431
aV0084B4
p2432
aV0084B4
p2433
aV0084B4
p2434
aV038543
p2435
aV0084B4
p2436
aV0084B4
p2437
aVBF00FF
p2438
aV0084B4
p2439
aV2FC2EF
p2440
aV990008
p2441
aV0084B4
p2442
aV0084B4
p2443
aV0084B4
p2444
aV0084B4
p2445
aV94D487
p2446
aV0084B4
p2447
aV0084B4
p2448
aV5D8BA1
p2449
aV0084B4
p2450
aV0084B4
p2451
aV0084B4
p2452
aVB40B43
p2453
aV0084B4
p2454
aV0084B4
p2455
aV0084B4
p2456
aV0084B4
p2457
aV0084B4
p2458
aV0084B4
p2459
aV0084B4
p2460
aVFC0814
p2461
aV0084B4
p2462
aVFF0015
p2463
aV0084B4
p2464
aV0084B4
p2465
aV0084B4
p2466
aV0084B4
p2467
aV0084B4
p2468
aV2FC2EF
p2469
aV0084B4
p2470
aVABE3D6
p2471
aV0084B4
p2472
aV0084B4
p2473
aV0084B4
p2474
aVD9AC75
p2475
aV038543
p2476
aV0084B4
p2477
aV0084B4
p2478
aV0084B4
p2479
aV0084B4
p2480
aV0084B4
p2481
aV0084B4
p2482
aV0084B4
p2483
aV0084B4
p2484
aV2FC2EF
p2485
aVF5ABB5
p2486
aV0084B4
p2487
aV0084B4
p2488
aV0084B4
p2489
aV990000
p2490
aV333333
p2491
aVF575AF
p2492
aV0084B4
p2493
aV0084B4
p2494
aV0A0303
p2495
aV8F5BBA
p2496
aVFF3300
p2497
aVF26692
p2498
aV0084B4
p2499
aV0084B4
p2500
aV0084B4
p2501
aV0084B4
p2502
aV0084B4
p2503
aV739E9F
p2504
aVD02B55
p2505
aV0084B4
p2506
aV0084B4
p2507
aV0000FF
p2508
aV0084B4
p2509
aV0084B4
p2510
aV00E1FF
p2511
aV5882FA
p2512
aV1F98C7
p2513
aV0084B4
p2514
aV088253
p2515
aV0084B4
p2516
aV0084B4
p2517
aV8F00B3
p2518
aV0084B4
p2519
aV0084B4
p2520
aV0084B4
p2521
aV0084B4
p2522
aV0084B4
p2523
aV0084B4
p2524
aV0084B4
p2525
aV0084B4
p2526
aV540A63
p2527
aV0084B4
p2528
aV0084B4
p2529
aV0084B4
p2530
aV0084B4
p2531
aV0084B4
p2532
aV0084B4
p2533
aV0084B4
p2534
aV0084B4
p2535
aV0084B4
p2536
aV0084B4
p2537
aV2FC2EF
p2538
aV197B99
p2539
aV0084B4
p2540
aV0084B4
p2541
aVDA84EB
p2542
aV0084B4
p2543
aV0084B4
p2544
aV0084B4
p2545
aV0D0D0D
p2546
aVB32067
p2547
aV0084B4
p2548
aV0F0E0E
p2549
aV0084B4
p2550
aV24030F
p2551
aV0084B4
p2552
aV0084B4
p2553
aV2FC2EF
p2554
aV0084B4
p2555
aV0084B4
p2556
aV2FC2EF
p2557
aV0084B4
p2558
aV0084B4
p2559
aV0084B4
p2560
aVB40B43
p2561
aV0084B4
p2562
aV0084B4
p2563
aV0084B4
p2564
aV2FC2EF
p2565
aV0084B4
p2566
aV0084B4
p2567
aV0084B4
p2568
aV0084B4
p2569
aV0084B4
p2570
aV0084B4
p2571
aV0084B4
p2572
aV0084B4
p2573
aV0084B4
p2574
aV0084B4
p2575
aV0084B4
p2576
aV0084B4
p2577
aV0084B4
p2578
aV0084B4
p2579
aV0084B4
p2580
aV009999
p2581
aV0084B4
p2582
aVFF0000
p2583
aV0084B4
p2584
aV0099CC
p2585
aV0084B4
p2586
aV0084B4
p2587
aV0099CC
p2588
aV0084B4
p2589
aV0084B4
p2590
aV0084B4
p2591
aV0084B4
p2592
aV0084B4
p2593
aV0084B4
p2594
aV1F98C7
p2595
aV0084B4
p2596
aV0084B4
p2597
aV0084B4
p2598
aV0084B4
p2599
aV0084B4
p2600
aV0084B4
p2601
aV0084B4
p2602
aV2B7BB9
p2603
aV0084B4
p2604
aV000000
p2605
aVD4A1B2
p2606
aV0084B4
p2607
aV0084B4
p2608
aV0084B4
p2609
aV0084B4
p2610
aV0084B4
p2611
aV050505
p2612
aV0084B4
p2613
aV0084B4
p2614
aV0084B4
p2615
aV76914A
p2616
aV0084B4
p2617
aV0084B4
p2618
aV0084B4
p2619
aV0084B4
p2620
aVFF0000
p2621
aVFF00CC
p2622
aVE784F0
p2623
aV0084B4
p2624
aV0084B4
p2625
aV0084B4
p2626
aV0084B4
p2627
aV7E4EBD
p2628
aV0084B4
p2629
aV0084B4
p2630
aV0084B4
p2631
aV149E19
p2632
aV0DE0D5
p2633
aV0084B4
p2634
aV0084B4
p2635
aV0084B4
p2636
aV0084B4
p2637
aV0084B4
p2638
aV0084B4
p2639
aV0084B4
p2640
aV0084B4
p2641
aV0084B4
p2642
aV005EFF
p2643
aV67D642
p2644
aV0084B4
p2645
aV0084B4
p2646
aV0084B4
p2647
aV0084B4
p2648
aV0084B4
p2649
aV0084B4
p2650
aV0084B4
p2651
aV0084B4
p2652
aV038543
p2653
aV0084B4
p2654
aV0084B4
p2655
aV0084B4
p2656
aV0084B4
p2657
aV0084B4
p2658
aV0084B4
p2659
aV0084B4
p2660
aV0084B4
p2661
aV0084B4
p2662
aV0084B4
p2663
aV0084B4
p2664
aV0084B4
p2665
aV0084B4
p2666
aV0084B4
p2667
aV0084B4
p2668
aV0084B4
p2669
aV0084B4
p2670
aV0084B4
p2671
aV0084B4
p2672
aV2FC2EF
p2673
aVBCB099
p2674
aV0084B4
p2675
aV038543
p2676
aVFF0000
p2677
aV0084B4
p2678
aV0084B4
p2679
aVFF0000
p2680
aVCC3366
p2681
aV2FC2EF
p2682
aV0084B4
p2683
aV0084B4
p2684
aV0084B4
p2685
aV0084B4
p2686
aV0084B4
p2687
aV0084B4
p2688
aV0084B4
p2689
aV215666
p2690
aV1F98C7
p2691
aV1928CF
p2692
aV0084B4
p2693
aV8CCBDE
p2694
aV0084B4
p2695
aV990000
p2696
aVA63F3F
p2697
aV0099CC
p2698
aV940D24
p2699
aV0084B4
p2700
aV0084B4
p2701
aV0084B4
p2702
aVABB8C2
p2703
aV0084B4
p2704
aV0084B4
p2705
aV0084B4
p2706
aV0084B4
p2707
aV0084B4
p2708
aV0084B4
p2709
aV0084B4
p2710
aV0084B4
p2711
aV0084B4
p2712
aV0084B4
p2713
aVE0198D
p2714
aV0084B4
p2715
aV0084B4
p2716
aV0E2599
p2717
aV0084B4
p2718
aV0084B4
p2719
aV0084B4
p2720
aV0084B4
p2721
aV620BB3
p2722
aV0084B4
p2723
aV0084B4
p2724
aV0084B4
p2725
aV0084B4
p2726
aV0084B4
p2727
aV0084B4
p2728
aV8E1DCF
p2729
aV0084B4
p2730
aV041A0E
p2731
aV0084B4
p2732
aV0084B4
p2733
aV0084B4
p2734
aV0084B4
p2735
aV0084B4
p2736
aV0084B4
p2737
aV0084B4
p2738
aV0084B4
p2739
aV0084B4
p2740
aV009999
p2741
aV0084B4
p2742
aV0084B4
p2743
aV2FC2EF
p2744
aV0084B4
p2745
aV0084B4
p2746
aV0084B4
p2747
aV000000
p2748
aV0084B4
p2749
aV0084B4
p2750
aV0084B4
p2751
aV0084B4
p2752
aV0084B4
p2753
aV0084B4
p2754
aV0084B4
p2755
aV0084B4
p2756
aV0084B4
p2757
aV0084B4
p2758
aV0084B4
p2759
aV0084B4
p2760
aV0084B4
p2761
aV0084B4
p2762
aV0084B4
p2763
aV0084B4
p2764
aV0084B4
p2765
aV0084B4
p2766
aV9B9D9E
p2767
aV0084B4
p2768
aV0084B4
p2769
aV0084B4
p2770
aV0084B4
p2771
aV0084B4
p2772
aV0084B4
p2773
aV0084B4
p2774
aV0084B4
p2775
aV0084B4
p2776
aV5E412F
p2777
aV0084B4
p2778
aV009999
p2779
aV0084B4
p2780
aV0084B4
p2781
aV352266
p2782
aV0084B4
p2783
aV0084B4
p2784
aV0084B4
p2785
aV0084B4
p2786
aV0084B4
p2787
aV0084B4
p2788
aV0084B4
p2789
aV0084B4
p2790
aV0084B4
p2791
aV3617E8
p2792
aV0084B4
p2793
aV0084B4
p2794
aV0084B4
p2795
aV0084B4
p2796
aV610E4B
p2797
aV139E82
p2798
aV9D582E
p2799
aV0084B4
p2800
aV0084B4
p2801
aV0084B4
p2802
aV0084B4
p2803
aV0084B4
p2804
aV0099B9
p2805
aV0099B9
p2806
aV9500B3
p2807
aV0084B4
p2808
aV0084B4
p2809
aV8E61B3
p2810
aV0084B4
p2811
aV990000
p2812
aV0084B4
p2813
aV0084B4
p2814
aV0084B4
p2815
aV0084B4
p2816
aV0084B4
p2817
aV0084B4
p2818
aV0084B4
p2819
aV0084B4
p2820
aV0084B4
p2821
aV0084B4
p2822
aV0084B4
p2823
aV0084B4
p2824
aV0084B4
p2825
aV0084B4
p2826
aVC70092
p2827
aV0084B4
p2828
aVCE7834
p2829
aV0084B4
p2830
aV0084B4
p2831
aV0084B4
p2832
aV0084B4
p2833
aV0084B4
p2834
aV0084B4
p2835
aV0084B4
p2836
aV2FC2EF
p2837
aV0084B4
p2838
aV0084B4
p2839
aV0084B4
p2840
aV0084B4
p2841
aV0084B4
p2842
aV0084B4
p2843
aV0084B4
p2844
aV0084B4
p2845
aV0084B4
p2846
aV0084B4
p2847
aV0084B4
p2848
aV3B94D9
p2849
aVF5ABB5
p2850
aV94D487
p2851
aV0084B4
p2852
aV0084B4
p2853
aV0084B4
p2854
aVFFCC4D
p2855
aV2B7BB9
p2856
aV0084B4
p2857
aV0084B4
p2858
aV0084B4
p2859
aV0084B4
p2860
aV0084B4
p2861
aV0084B4
p2862
aV0084B4
p2863
aV0084B4
p2864
aV0084B4
p2865
aV4D4705
p2866
aV0084B4
p2867
aV0084B4
p2868
aV0084B4
p2869
aV0084B4
p2870
aVB850BA
p2871
aV0084B4
p2872
aV0084B4
p2873
aVB30033
p2874
aV0084B4
p2875
aV0084B4
p2876
aVFF0000
p2877
aV0084B4
p2878
aV0084B4
p2879
aV0084B4
p2880
aV0084B4
p2881
aV0084B4
p2882
aV0084B4
p2883
aV0084B4
p2884
aV0084B4
p2885
aV00FFF2
p2886
aV0084B4
p2887
aV0084B4
p2888
aV0084B4
p2889
aV0084B4
p2890
aV0084B4
p2891
aV0084B4
p2892
aV0084B4
p2893
aV0084B4
p2894
aV0084B4
p2895
aV0084B4
p2896
aV0084B4
p2897
aV0084B4
p2898
aV0084B4
p2899
aV0084B4
p2900
aVF28C9A
p2901
aVFF0000
p2902
aV0084B4
p2903
aV0084B4
p2904
aV0084B4
p2905
aV0084B4
p2906
aV2BFF00
p2907
aV0084B4
p2908
aV0084B4
p2909
aV0084B4
p2910
aV0084B4
p2911
aV0084B4
p2912
aV0084B4
p2913
aV0084B4
p2914
aV0084B4
p2915
aV009999
p2916
aV0084B4
p2917
aV0084B4
p2918
aV0084B4
p2919
aV0084B4
p2920
aV0084B4
p2921
aVC29DE3
p2922
aV0084B4
p2923
aV0084B4
p2924
aV0084B4
p2925
aVE0AFC7
p2926
aV0084B4
p2927
aVFA5555
p2928
aV0084B4
p2929
aV0084B4
p2930
aV0084B4
p2931
aV0084B4
p2932
aV000000
p2933
aV0084B4
p2934
aV0084B4
p2935
aV0084B4
p2936
aV0084B4
p2937
aV0084B4
p2938
aV2E232E
p2939
aV0084B4
p2940
aV0084B4
p2941
aV0084B4
p2942
aV0084B4
p2943
aV0084B4
p2944
aV0084B4
p2945
aVF0099F
p2946
aV088253
p2947
aV0084B4
p2948
aV009999
p2949
aV17406C
p2950
aVDE0DC6
p2951
aV0084B4
p2952
aV0084B4
p2953
aVC76469
p2954
aV0084B4
p2955
aV0084B4
p2956
aV0084B4
p2957
aV0084B4
p2958
aVB40B43
p2959
aVFF0000
p2960
aVB40B43
p2961
aVB40B43
p2962
aV0084B4
p2963
aV0084B4
p2964
aV2B7BB9
p2965
aV2B7BB9
p2966
aV990000
p2967
aV0084B4
p2968
aV0084B4
p2969
aV0084B4
p2970
aV2FC2EF
p2971
aV0084B4
p2972
aV0084B4
p2973
aV0084B4
p2974
aV0084B4
p2975
aV0084B4
p2976
aV0084B4
p2977
aV0084B4
p2978
aV0084B4
p2979
aVFF0000
p2980
aV363636
p2981
aV0084B4
p2982
aV0084B4
p2983
aV0084B4
p2984
aV0084B4
p2985
aV0084B4
p2986
aV0084B4
p2987
aV0084B4
p2988
aV0084B4
p2989
aVDF9DF5
p2990
aV0084B4
p2991
aV10F803
p2992
aV0084B4
p2993
aV0084B4
p2994
aV0084B4
p2995
aV0084B4
p2996
aV0084B4
p2997
aV0084B4
p2998
aV0084B4
p2999
aV0084B4
p3000
aV0084B4
p3001
aV0084B4
p3002
aV0084B4
p3003
aV0084B4
p3004
aV0084B4
p3005
aVCC3366
p3006
aV038543
p3007
aVF205AF
p3008
aV0084B4
p3009
aV0084B4
p3010
aV0084B4
p3011
aV0084B4
p3012
aV0084B4
p3013
aV0084B4
p3014
aV0084B4
p3015
aV0084B4
p3016
aVD02B55
p3017
aV0084B4
p3018
aV0084B4
p3019
aVE68A9C
p3020
aVC34242
p3021
aVD61138
p3022
aV0084B4
p3023
aV0084B4
p3024
aV000000
p3025
aV0084B4
p3026
aV0084B4
p3027
aV0084B4
p3028
aV0084B4
p3029
aV0084B4
p3030
aV0084B4
p3031
aV0084B4
p3032
aV0084B4
p3033
aV2B7BB9
p3034
aV0084B4
p3035
aV0084B4
p3036
aV0084B4
p3037
aV0084B4
p3038
aV0084B4
p3039
aV0084B4
p3040
aV0084B4
p3041
aV0084B4
p3042
aV0084B4
p3043
aV0084B4
p3044
aV0084B4
p3045
aV2FC2EF
p3046
aV0084B4
p3047
aV0084B4
p3048
aV0084B4
p3049
aV0084B4
p3050
aVCC3366
p3051
aV0084B4
p3052
aV0084B4
p3053
aVABB8C2
p3054
aV0084B4
p3055
aV0084B4
p3056
aV0084B4
p3057
aV0084B4
p3058
aV0084B4
p3059
aV0084B4
p3060
aV009999
p3061
aV2FC2EF
p3062
aV0084B4
p3063
aV0084B4
p3064
aV0084B4
p3065
aV9D582E
p3066
aV0084B4
p3067
aV808080
p3068
aVD02B55
p3069
aV0084B4
p3070
aVFF0000
p3071
aV0084B4
p3072
aV0084B4
p3073
aV0084B4
p3074
aV0084B4
p3075
aV0084B4
p3076
aV897193
p3077
aV0084B4
p3078
aV0084B4
p3079
aV0084B4
p3080
aV0084B4
p3081
aV0084B4
p3082
aV0084B4
p3083
aV0084B4
p3084
aV0084B4
p3085
aV0084B4
p3086
aV0084B4
p3087
aV0084B4
p3088
aV0084B4
p3089
aV0084B4
p3090
aVCC3366
p3091
aV0084B4
p3092
aV0084B4
p3093
aV009999
p3094
aV0084B4
p3095
aV0084B4
p3096
aV0084B4
p3097
aV0084B4
p3098
aV0084B4
p3099
aV0084B4
p3100
aV0084B4
p3101
aV2FC2EF
p3102
aV0084B4
p3103
aV0084B4
p3104
aV0084B4
p3105
aV0084B4
p3106
aV0084B4
p3107
aV038543
p3108
aV0084B4
p3109
aV0084B4
p3110
aV0084B4
p3111
aV485C3A
p3112
aV0084B4
p3113
aV0084B4
p3114
aV050505
p3115
aV0084B4
p3116
aV610303
p3117
aV0084B4
p3118
aV0084B4
p3119
aVFF0000
p3120
aV009999
p3121
aV0084B4
p3122
aV0084B4
p3123
aV0084B4
p3124
aV0084B4
p3125
aV0084B4
p3126
aV0084B4
p3127
aV0084B4
p3128
aVE42FED
p3129
aV0084B4
p3130
aV0084B4
p3131
aV0084B4
p3132
aV0084B4
p3133
aV0084B4
p3134
aV0084B4
p3135
aV0084B4
p3136
aV0084B4
p3137
aVAF1546
p3138
aV0084B4
p3139
aV0084B4
p3140
aV0084B4
p3141
aV0084B4
p3142
aV0084B4
p3143
aV0084B4
p3144
aV17EBC8
p3145
aV674DA8
p3146
aV0084B4
p3147
aV0084B4
p3148
aV0084B4
p3149
aV0084B4
p3150
aVFF3300
p3151
aV0084B4
p3152
aV0084B4
p3153
aV0084B4
p3154
aVFF0000
p3155
aV0084B4
p3156
aV0084B4
p3157
aV0084B4
p3158
aV0084B4
p3159
aV0084B4
p3160
aV0084B4
p3161
aV0084B4
p3162
aV8F878A
p3163
aV0084B4
p3164
aV0084B4
p3165
aV0084B4
p3166
aV0084B4
p3167
aV0084B4
p3168
aV0084B4
p3169
aV0084B4
p3170
aV0084B4
p3171
aV0084B4
p3172
aV0084B4
p3173
aV0084B4
p3174
aV0084B4
p3175
aV0099B9
p3176
aV0084B4
p3177
aV0084B4
p3178
aV977C61
p3179
aV0084B4
p3180
aV0084B4
p3181
aV0084B4
p3182
aV0084B4
p3183
aV0084B4
p3184
aV0084B4
p3185
aV60A8A8
p3186
aV0084B4
p3187
aV0084B4
p3188
aV0084B4
p3189
aV0084B4
p3190
aV0084B4
p3191
aV0084B4
p3192
aV0084B4
p3193
aV0084B4
p3194
aV0084B4
p3195
aV0084B4
p3196
aV0084B4
p3197
aV0084B4
p3198
aV2FC2EF
p3199
aV0084B4
p3200
aVABB8C2
p3201
aV0084B4
p3202
aV0084B4
p3203
aV2FC2EF
p3204
aV0084B4
p3205
aV0084B4
p3206
aV0084B4
p3207
aVFF0000
p3208
aV0084B4
p3209
aV038543
p3210
aV0084B4
p3211
aV0084B4
p3212
aV0084B4
p3213
aV0084B4
p3214
aV0084B4
p3215
aV0084B4
p3216
aV0084B4
p3217
aV0084B4
p3218
aV0084B4
p3219
aV0084B4
p3220
aV0084B4
p3221
aV2FC2EF
p3222
aV0084B4
p3223
aV0084B4
p3224
aV0084B4
p3225
aV0084B4
p3226
aV0084B4
p3227
aV0084B4
p3228
aV0084B4
p3229
aV5D30A1
p3230
aVB40B43
p3231
aV0084B4
p3232
aV0084B4
p3233
aV0084B4
p3234
aV0084B4
p3235
aV0084B4
p3236
aV0084B4
p3237
aV0084B4
p3238
aV0084B4
p3239
aVFBCFCF
p3240
aV0084B4
p3241
aV009999
p3242
aVFF3300
p3243
aV0084B4
p3244
aV0084B4
p3245
aV0084B4
p3246
aV0084B4
p3247
aV0084B4
p3248
aVB40B43
p3249
aV0084B4
p3250
aV998EDE
p3251
aVCC3366
p3252
aV9FC1EB
p3253
aVB40B43
p3254
aV0084B4
p3255
aV0084B4
p3256
aV038543
p3257
aV00940A
p3258
aV0084B4
p3259
aV0084B4
p3260
aV0084B4
p3261
aVFEA6A2
p3262
aV947194
p3263
aV038543
p3264
aV838978
p3265
aV0084B4
p3266
aV8C8C8C
p3267
aV229481
p3268
aV0084B4
p3269
aV2FC2EF
p3270
aVCC3366
p3271
aV1B22B3
p3272
aV0084B4
p3273
aV0084B4
p3274
aV0084B4
p3275
aV0084B4
p3276
aV0084B4
p3277
aV0084B4
p3278
aV0084B4
p3279
aV0B6356
p3280
aVB40B43
p3281
aV0084B4
p3282
aVF26493
p3283
aV0084B4
p3284
aV2FC2EF
p3285
aV0084B4
p3286
aV0084B4
p3287
aVC28C77
p3288
aV0084B4
p3289
aV0084B4
p3290
aV0084B4
p3291
aV0084B4
p3292
aV0084B4
p3293
aV0084B4
p3294
aV0084B4
p3295
aV0084B4
p3296
aVF58EA8
p3297
aV0084B4
p3298
aV0084B4
p3299
aV0084B4
p3300
aV0084B4
p3301
aV0084B4
p3302
aV0084B4
p3303
aV0084B4
p3304
aV0084B4
p3305
aV0084B4
p3306
aV0084B4
p3307
aV0084B4
p3308
aV0084B4
p3309
aV000000
p3310
aV009999
p3311
aV0084B4
p3312
aV0084B4
p3313
aV0084B4
p3314
aV0084B4
p3315
aV0084B4
p3316
aV0084B4
p3317
aV0084B4
p3318
aV0084B4
p3319
aV0084B4
p3320
aV0084B4
p3321
aVE358C3
p3322
aV0084B4
p3323
aV0084B4
p3324
aV0084B4
p3325
aV0084B4
p3326
aV0084B4
p3327
aV0084B4
p3328
aV0084B4
p3329
aV0084B4
p3330
aV0084B4
p3331
aV0084B4
p3332
aV0084B4
p3333
aV0084B4
p3334
aV03CDFF
p3335
aV0084B4
p3336
aV0084B4
p3337
aV0084B4
p3338
aV0084B4
p3339
aV0084B4
p3340
aV0084B4
p3341
aV2FC2EF
p3342
aV0084B4
p3343
aV447FF5
p3344
aVF5ABB5
p3345
aV0084B4
p3346
aV245466
p3347
aV0084B4
p3348
aV0084B4
p3349
aV0084B4
p3350
aV0084B4
p3351
aVF5ABB5
p3352
aV0084B4
p3353
aV0084B4
p3354
aV0084B4
p3355
aV0084B4
p3356
aV0084B4
p3357
aV0084B4
p3358
aV0084B4
p3359
aVAF50A1
p3360
aV0084B4
p3361
aV0084B4
p3362
aV038543
p3363
aV0084B4
p3364
aVB70001
p3365
aV0084B4
p3366
aV0084B4
p3367
aV0084B4
p3368
aV0084B4
p3369
aV009999
p3370
aV0099B9
p3371
aV0084B4
p3372
aV0084B4
p3373
aV0084B4
p3374
aV0084B4
p3375
aV0084B4
p3376
aV038543
p3377
aV2FC2EF
p3378
aV0084B4
p3379
a.