(lp0
VF5ABB5
p1
aV2FC2EF
p2
aV0084B4
p3
aV4A913C
p4
aV0084B4
p5
aV0084B4
p6
aV0084B4
p7
aV3B94D9
p8
aVABB8C2
p9
aVDD2E44
p10
aV0084B4
p11
aVC96D43
p12
aV2B7BB9
p13
aV4A913C
p14
aV009999
p15
aV4A913C
p16
aVFF0000
p17
aVB40B43
p18
aVFF0000
p19
aV0084B4
p20
aV89C9FA
p21
aVFF0000
p22
aV0084B4
p23
aV0084B4
p24
aV2B7BB9
p25
aV2B7BB9
p26
aV0084B4
p27
aV010508
p28
aV0084B4
p29
aV2B7BB9
p30
aV0084B4
p31
aV0084B4
p32
aV0084B4
p33
aV2B7BB9
p34
aV038543
p35
aV0084B4
p36
aVF513F5
p37
aV0084B4
p38
aV0084B4
p39
aVABB8C2
p40
aVDD2E44
p41
aVF5ABB5
p42
aV2FC2EF
p43
aV222BAB
p44
aV2B7BB9
p45
aV9266CC
p46
aV9266CC
p47
aV0084B4
p48
aV3375CC
p49
aV0084B4
p50
aVFF3300
p51
aV76B8B8
p52
aV0084B4
p53
aV3B94D9
p54
aV009999
p55
aV00DBD0
p56
aV0E0F0F
p57
aV0084B4
p58
aVCC3366
p59
aVE3DAE3
p60
aV002DB3
p61
aV0084B4
p62
aV0084B4
p63
aV0084B4
p64
aV2B7BB9
p65
aVF5ABB5
p66
aVB40404
p67
aV000000
p68
aV0084B4
p69
aVF5ABB5
p70
aVC269FE
p71
aV009999
p72
aV0084B4
p73
aV0084B4
p74
aV0084B4
p75
aV0084B4
p76
aV0084B4
p77
aV0084B4
p78
aV9266CC
p79
aV0084B4
p80
aV0099B9
p81
aV0084B4
p82
aV0084B4
p83
aV0084B4
p84
aVDD2E44
p85
aV0084B4
p86
aV0084B4
p87
aVFF0000
p88
aV0084B4
p89
aV131516
p90
aV0084B4
p91
aV0084B4
p92
aV2B7BB9
p93
aV27A7D6
p94
aV0084B4
p95
aVB40B43
p96
aV0084B4
p97
aV2B7BB9
p98
aVABB8C2
p99
aV2B7BB9
p100
aV2B7BB9
p101
aV8F5BBF
p102
aV000000
p103
aV2B7BB9
p104
aV0084B4
p105
aV0084B4
p106
aVFA4B9F
p107
aVFF0000
p108
aV0084B4
p109
aV0084B4
p110
aV2A692B
p111
aVEB57DD
p112
aV0084B4
p113
aVFA743E
p114
aV0084B4
p115
aVB30033
p116
aV0084B4
p117
aV0084B4
p118
aV0084B4
p119
aV0084B4
p120
aV9266CC
p121
aV009999
p122
aV2B7BB9
p123
aV007364
p124
aV4A913C
p125
aV000000
p126
aV999999
p127
aV0084B4
p128
aV0084B4
p129
aV0084B4
p130
aV111111
p131
aV0084B4
p132
aV0084B4
p133
aVFF0000
p134
aV0084B4
p135
aVDD2E44
p136
aV0084B4
p137
aV0084B4
p138
aV0084B4
p139
aVABB8C2
p140
aV101212
p141
aV0084B4
p142
aVFCD5D9
p143
aV0084B4
p144
aV1F98C7
p145
aV0084B4
p146
aVECC4C6
p147
aV0084B4
p148
aV9266CC
p149
aV9266CC
p150
aV0084B4
p151
aVE64E5B
p152
aV0084B4
p153
aV2B7BB9
p154
aV0084B4
p155
aV0084B4
p156
aV0084B4
p157
aV0084B4
p158
aV0084B4
p159
aV0084B4
p160
aV00BEA3
p161
aV877F63
p162
aV9266CC
p163
aVB40B43
p164
aV0084B4
p165
aV0084B4
p166
aVFF8FDB
p167
aV990000
p168
aVD02B55
p169
aV9266CC
p170
aV2FC2EF
p171
aV009999
p172
aV0084B4
p173
aV4E121E
p174
aV0084B4
p175
aV0084B4
p176
aV000000
p177
aV2B7BB9
p178
aVABB8C2
p179
aV181C70
p180
aV0084B4
p181
aVFF0000
p182
aVED0909
p183
aV2B7BB9
p184
aV333333
p185
aV009999
p186
aV4A913C
p187
aV9266CC
p188
aV038543
p189
aV2B7BB9
p190
aV009999
p191
aV94D487
p192
aVF05B92
p193
aV0084B4
p194
aV3B94D9
p195
aV1F98C7
p196
aV0084B4
p197
aVFA743E
p198
aVDD2E44
p199
aV0084B4
p200
aVB40B43
p201
aVE620E6
p202
aV2B7BB9
p203
aV0084B4
p204
aV8F501A
p205
aV0084B4
p206
aV00A6FF
p207
aV0084B4
p208
aV0084B4
p209
aV9266CC
p210
aV0084B4
p211
aV009999
p212
aV0084B4
p213
aVABB8C2
p214
aV2B7BB9
p215
aV0099B9
p216
aV0084B4
p217
aV2B7BB9
p218
aVABB8C2
p219
aV0084B4
p220
aV9266CC
p221
aV0084B4
p222
aV0084B4
p223
aV0084B4
p224
aV0084B4
p225
aV009999
p226
aV0084B4
p227
aV0084B4
p228
aV9266CC
p229
aV0084B4
p230
aVFA743E
p231
aV0084B4
p232
aV4A913C
p233
aV2B7BB9
p234
aV0084B4
p235
aV0084B4
p236
aVF5ABB5
p237
aV0084B4
p238
aV89C9FA
p239
aV0494D1
p240
aV0084B4
p241
aV038543
p242
aV0084B4
p243
aV2B7BB9
p244
aV0084B4
p245
aV0084B4
p246
aV3B94D9
p247
aV0084B4
p248
aV0084B4
p249
aV3E7A30
p250
aV2B7BB9
p251
aVCC3366
p252
aV0084B4
p253
aV0084B4
p254
aVFF3300
p255
aV0084B4
p256
aV009999
p257
aV2B7BB9
p258
aV0099B9
p259
aV0084B4
p260
aVF5ABB5
p261
aV2B7BB9
p262
aV0084B4
p263
aV5AAAFA
p264
aV0084B4
p265
aVFF0000
p266
aV0084B4
p267
aV9266CC
p268
aV0099CC
p269
aV0084B4
p270
aVD40FAD
p271
aV0084B4
p272
aV0084B4
p273
aV0084B4
p274
aV2B7BB9
p275
aV2B7BB9
p276
aV0084B4
p277
aV000000
p278
aVDD2E44
p279
aV0084B4
p280
aV0084B4
p281
aV0084B4
p282
aV0084B4
p283
aVDD2E44
p284
aV0084B4
p285
aV93A644
p286
aV666666
p287
aV9266CC
p288
aV009999
p289
aV94D487
p290
aV0084B4
p291
aVDD2E44
p292
aV0084B4
p293
aV0084B4
p294
aV22E3AF
p295
aV3B94D9
p296
aV0084B4
p297
aV0084B4
p298
aV0084B4
p299
aV700A20
p300
aVB40B43
p301
aV000000
p302
aV0084B4
p303
aV0084B4
p304
aV0000FF
p305
aV0084B4
p306
aV0084B4
p307
aVABB8C2
p308
aV0084B4
p309
aV0099CC
p310
aV2B7BB9
p311
aV0084B4
p312
aV0084B4
p313
aV2B7BB9
p314
aV981CEB
p315
aV0084B4
p316
aV62B9D1
p317
aV0084B4
p318
aV0084B4
p319
aV0084B4
p320
aV0084B4
p321
aV9266CC
p322
aVF5ABB5
p323
aV0084B4
p324
aV0084B4
p325
aVFF0000
p326
aV0084B4
p327
aV0084B4
p328
aV0084B4
p329
aV4A913C
p330
aV0084B4
p331
aV0084B4
p332
aV0084B4
p333
aV0084B4
p334
aV0084B4
p335
aV0084B4
p336
aV009999
p337
aV0084B4
p338
aVF5ABB5
p339
aVF5ABB5
p340
aV0084B4
p341
aV0084B4
p342
aV0084B4
p343
aV0084B4
p344
aV0084B4
p345
aV0084B4
p346
aV0084B4
p347
aVF5ABB5
p348
aVDD2E44
p349
aV0084B4
p350
aV0084B4
p351
aV0084B4
p352
aV0084B4
p353
aV0084B4
p354
aV0084B4
p355
aVABB8C2
p356
aV3B94D9
p357
aVFA743E
p358
aV0084B4
p359
aV0084B4
p360
aV0084B4
p361
aVDD2E44
p362
aV0084B4
p363
aV0084B4
p364
aV0084B4
p365
aV009999
p366
aV000000
p367
aV0084B4
p368
aV0084B4
p369
aV4800B3
p370
aVE6103B
p371
aV0084B4
p372
aV89C9FA
p373
aV3B94D9
p374
aV669C9C
p375
aVF5ABB5
p376
aVB40B43
p377
aV870DA6
p378
aV0084B4
p379
aV9266CC
p380
aV0099B9
p381
aV0084B4
p382
aV000000
p383
aV0084B4
p384
aV009999
p385
aV89C9FA
p386
aVDD2E44
p387
aV0084B4
p388
aV0084B4
p389
aV3B94D9
p390
aV2B7BB9
p391
aVFF0000
p392
aV038543
p393
aVED1396
p394
aV0084B4
p395
aV0084B4
p396
aVFF0000
p397
aV0084B4
p398
aV0084B4
p399
aV0084B4
p400
aV0084B4
p401
aV4BD6D6
p402
aV0084B4
p403
aVABB8C2
p404
aV2B7BB9
p405
aV89C9FA
p406
aV288F34
p407
aV000000
p408
aV2B7BB9
p409
aV0084B4
p410
aV0084B4
p411
aV0084B4
p412
aV0084B4
p413
aV0084B4
p414
aV0084B4
p415
aV0084B4
p416
aV722E9C
p417
aV0084B4
p418
aV642D8B
p419
aVE82A59
p420
aV2B7BB9
p421
aV0084B4
p422
aVFA003F
p423
aV0084B4
p424
aV494569
p425
aV0084B4
p426
aV000000
p427
aV0084B4
p428
aV0084B4
p429
aVDD2E44
p430
aV0084B4
p431
aV0084B4
p432
aV4A913C
p433
aV0084B4
p434
aV0084B4
p435
aV2B7BB9
p436
aV89C9FA
p437
aV0084B4
p438
aV0084B4
p439
aVB40B43
p440
aVF50A1D
p441
aV088253
p442
aV0084B4
p443
aV1137F2
p444
aV2FC2EF
p445
aVDD2E44
p446
aVEB5BE1
p447
aV2B7BB9
p448
aVA520D9
p449
aV0084B4
p450
aVB3007A
p451
aV0084B4
p452
aV2FC2EF
p453
aVFF3300
p454
aV2FC2EF
p455
aV088253
p456
aV0084B4
p457
aV0084B4
p458
aVFFCC4D
p459
aV0084B4
p460
aV2B7BB9
p461
aV0084B4
p462
aV0084B4
p463
aVABB8C2
p464
aV0084B4
p465
aV4A913C
p466
aV0084B4
p467
aV0084B4
p468
aV2B7BB9
p469
aV0084B4
p470
aV0084B4
p471
aV0084B4
p472
aV0084B4
p473
aV2B7BB9
p474
aVABB8C2
p475
aV2B7BB9
p476
aV002F5C
p477
aV0084B4
p478
aV000000
p479
aV89C9FA
p480
aV9266CC
p481
aV0084B4
p482
aV256098
p483
aV000000
p484
aVDC3522
p485
aV0084B4
p486
aVF5ABB5
p487
aVDD2E44
p488
aVFF0000
p489
aVF5ABB5
p490
aV0084B4
p491
aV0084B4
p492
aV0084B4
p493
aV2B60FF
p494
aV0084B4
p495
aV9266CC
p496
aV0084B4
p497
aV2B7BB9
p498
aV0084B4
p499
aV0084B4
p500
aV0084B4
p501
aV2B7BB9
p502
aV3B94D9
p503
aV0084B4
p504
aV0084B4
p505
aV0084B4
p506
aV12DCFF
p507
aV0084B4
p508
aV0084B4
p509
aV0084B4
p510
aVFF0000
p511
aV0084B4
p512
aV0084B4
p513
aV0084B4
p514
aV4A913C
p515
aVF0680E
p516
aV000000
p517
aV0084B4
p518
aVE388DA
p519
aV0084B4
p520
aV1C1F23
p521
aV0084B4
p522
aVE09BDE
p523
aV2B7BB9
p524
aV038543
p525
aVF5ABB5
p526
aV0084B4
p527
aV0084B4
p528
aV9266CC
p529
aVA362AD
p530
aV000000
p531
aV2B7BB9
p532
aV088253
p533
aVD69233
p534
aV000000
p535
aV0084B4
p536
aV0D0F0F
p537
aV0084B4
p538
aV0084B4
p539
aV0084B4
p540
aV0084B4
p541
aVCE7834
p542
aV038543
p543
aVDD2E44
p544
aV0084B4
p545
aV0084B4
p546
aVFF0000
p547
aV006656
p548
aVFA743E
p549
aVFF0000
p550
aV000000
p551
aV038543
p552
aV2B7BB9
p553
aVF00313
p554
aVE60E20
p555
aV0084B4
p556
aV0084B4
p557
aV2FC2EF
p558
aV0084B4
p559
aV5F1B9E
p560
aV0084B4
p561
aV050101
p562
aV4A913C
p563
aV0084B4
p564
aVEB506A
p565
aVF5ABB5
p566
aVFA743E
p567
aV0084B4
p568
aV0084B4
p569
aV0084B4
p570
aV0084B4
p571
aV2C4762
p572
aV2B7BB9
p573
aVEBB505
p574
aV2B7BB9
p575
aV0084B4
p576
aVDD2E44
p577
aV0084B4
p578
aVED1C24
p579
aVABB8C2
p580
aV16B7F2
p581
aV0084B4
p582
aV000000
p583
aV9266CC
p584
aV3B94D9
p585
aV0084B4
p586
aV0084B4
p587
aV0084B4
p588
aV0084B4
p589
aV0084B4
p590
aV9266CC
p591
aV0084B4
p592
aV3B94D9
p593
aVCC3366
p594
aV0084B4
p595
aV728A23
p596
aV0084B4
p597
aV9B21CC
p598
aV16450C
p599
aV2B7BB9
p600
aVDD2E44
p601
aV0084B4
p602
aV5D98BA
p603
aVF5ABB5
p604
aV088253
p605
aV2B7BB9
p606
aV2FC2EF
p607
aV0084B4
p608
aV0084B4
p609
aVF5ABB5
p610
aV0084B4
p611
aV0084B4
p612
aV0F33FF
p613
aV3B94D9
p614
aV0084B4
p615
aV0084B4
p616
aVC894EB
p617
aV0084B4
p618
aV0084B4
p619
aV2B7BB9
p620
aVDD2E44
p621
aV1F98C7
p622
aV0084B4
p623
aV2B7BB9
p624
aV0084B4
p625
aV9266CC
p626
aV0084B4
p627
aV2B7BB9
p628
aVEB2727
p629
aV0084B4
p630
aV9266CC
p631
aV0084B4
p632
aVCF2608
p633
aV048531
p634
aV3B94D9
p635
aV2B7BB9
p636
aVDD2E44
p637
aV0084B4
p638
aV2B7BB9
p639
aV2B7BB9
p640
aV0084B4
p641
aVFF3333
p642
aVFF0000
p643
aV2B7BB9
p644
aV0084B4
p645
aV6B066B
p646
aV0084B4
p647
aVE01616
p648
aV80007F
p649
aV0084B4
p650
aV0084B4
p651
aV009999
p652
aV0084B4
p653
aVDB6D9F
p654
aV0084B4
p655
aV0033B3
p656
aV0084B4
p657
aV0084B4
p658
aV9266CC
p659
aV0084B4
p660
aVABB8C2
p661
aV0084B4
p662
aV0084B4
p663
aV080207
p664
aV0084B4
p665
aV0084B4
p666
aV000000
p667
aV9266CC
p668
aV9266CC
p669
aV9266CC
p670
aVD911A4
p671
aV0084B4
p672
aV0084B4
p673
aV13F562
p674
aVEB12C0
p675
aV0084B4
p676
aV0084B4
p677
aV3B94D9
p678
aV0084B4
p679
aV3B94D9
p680
aV009999
p681
aV0084B4
p682
aV0084B4
p683
aV0084B4
p684
aV0084B4
p685
aV038543
p686
aVFA743E
p687
aV9266CC
p688
aV880039
p689
aV9266CC
p690
aV0084B4
p691
aVFF0000
p692
aV4A913C
p693
aV9D582E
p694
aV9266CC
p695
aVCCCCCC
p696
aV0084B4
p697
aVFF3300
p698
aV0084B4
p699
aV0084B4
p700
aV0084B4
p701
aV4A913C
p702
aV0084B4
p703
aV0084B4
p704
aVFFCC4D
p705
aV0084B4
p706
aV0084B4
p707
aV0084B4
p708
aV0084B4
p709
aV0084B4
p710
aV009999
p711
aV80084C
p712
aVFA0AEA
p713
aV2B7BB9
p714
aV0084B4
p715
aV0084B4
p716
aV3B94D9
p717
aVFF3300
p718
aV0084B4
p719
aVABB8C2
p720
aV0084B4
p721
aV000000
p722
aV0084B4
p723
aV0084B4
p724
aV0084B4
p725
aV0084B4
p726
aV0084B4
p727
aV802109
p728
aV0084B4
p729
aVABB8C2
p730
aV0084B4
p731
aV4A913C
p732
aV0084B4
p733
aV0084B4
p734
aV0099B9
p735
aV1F98C7
p736
aVFF0000
p737
aV0084B4
p738
aV0084B4
p739
aVFA743E
p740
aV0084B4
p741
aV0084B4
p742
aV2FC2EF
p743
aV0084B4
p744
aV0084B4
p745
aV0099B9
p746
aV94D487
p747
aVF5ABB5
p748
aV0084B4
p749
aV0084B4
p750
aV2B7BB9
p751
aV0084B4
p752
aV0084B4
p753
aV0084B4
p754
aVF01389
p755
aV0084B4
p756
aV2B7BB9
p757
aV2B7BB9
p758
aVF5ABB5
p759
aV2B7BB9
p760
aV0084B4
p761
aVFF0000
p762
aVF5ABB5
p763
aVFF3381
p764
aV9266CC
p765
aV0084B4
p766
aV0084B4
p767
aV0084B4
p768
aVF5ABB5
p769
aV0084B4
p770
aV0084B4
p771
aV0084B4
p772
aVDD2E44
p773
aV0084B4
p774
aV0084B4
p775
aVF5ABB5
p776
aV0084B4
p777
aV0084B4
p778
aV0084B4
p779
aVE63833
p780
aV0084B4
p781
aV2B7BB9
p782
aV000000
p783
aV0084B4
p784
aV038543
p785
aV0084B4
p786
aV0084B4
p787
aVF5ABB5
p788
aV0084B4
p789
aV0099CC
p790
aV0084B4
p791
aVCE7834
p792
aVFF0000
p793
aV0084B4
p794
aV9266CC
p795
aV0084B4
p796
aV0040FF
p797
aV0084B4
p798
aV0084B4
p799
aV2B7BB9
p800
aVDD2E44
p801
aV0084B4
p802
aV2B7BB9
p803
aV0084B4
p804
aV0084B4
p805
aV0099B9
p806
aV0084B4
p807
aV0084B4
p808
aV0A0A0A
p809
aV0084B4
p810
aV0084B4
p811
aV0084B4
p812
aV0084B4
p813
aV0084B4
p814
aV0084B4
p815
aV00DF30
p816
aV0099B9
p817
aVEB2F2F
p818
aV9266CC
p819
aVFF0000
p820
aVABB8C2
p821
aV3B94D9
p822
aV0084B4
p823
aVE80E0E
p824
aV9266CC
p825
aV0084B4
p826
aV234778
p827
aV088253
p828
aV0084B4
p829
aVA86060
p830
aV000000
p831
aVDD2E44
p832
aV0084B4
p833
aV0084B4
p834
aV2B7BB9
p835
aV8A0396
p836
aV140E10
p837
aV2FC2EF
p838
aV0084B4
p839
aV0084B4
p840
aV0084B4
p841
aV9266CC
p842
aV0084B4
p843
aV0084B4
p844
aV3B94D9
p845
aV0084B4
p846
aV5A489E
p847
aV009999
p848
aV038543
p849
aV7B0BD6
p850
aV0084B4
p851
aV0084B4
p852
aV2B7BB9
p853
aVFA743E
p854
aVFF00AE
p855
aV0084B4
p856
aV2FC2EF
p857
aV0084B4
p858
aV131516
p859
aV0084B4
p860
aV2B7BB9
p861
aV0084B4
p862
aV0084B4
p863
aVD8BFD8
p864
aV0084B4
p865
aV0084B4
p866
aVDD2E44
p867
aV009999
p868
aVF04DCA
p869
aV080D0F
p870
aV94D487
p871
aV666B63
p872
aV0F7837
p873
aV0084B4
p874
aVB40B43
p875
aV0084B4
p876
aV0084B4
p877
aV0084B4
p878
aV050000
p879
aV635F63
p880
aV89C9FA
p881
aV0084B4
p882
aV211F21
p883
aV0084B4
p884
aV0084B4
p885
aVFF0000
p886
aV2B7BB9
p887
aVF57ACE
p888
aV000000
p889
aVFF0000
p890
aVFF3300
p891
aV0084B4
p892
aV3B94D9
p893
aVFA14CC
p894
aV0084B4
p895
aVF934C5
p896
aV0084B4
p897
aV9266CC
p898
aVCC3366
p899
aV2B7BB9
p900
aV59E3C7
p901
aV2FC2EF
p902
aV4A913C
p903
aV0084B4
p904
aV009999
p905
aV009999
p906
aV0084B4
p907
aV0084B4
p908
aV22FFEE
p909
aV4A913C
p910
aV37610A
p911
aV0084B4
p912
aV0084B4
p913
aVFF8C00
p914
aV89C9FA
p915
aV0084B4
p916
aV89C9FA
p917
aV009999
p918
aV0084B4
p919
aV0084B4
p920
aVBB456A
p921
aVFFCC4D
p922
aV0084B4
p923
aV0084B4
p924
aV2B7BB9
p925
aV0084B4
p926
aV3B94D9
p927
aV0099B9
p928
aV0084B4
p929
aV3B94D9
p930
aV038543
p931
aVDD2E44
p932
aV0084B4
p933
aV2B7BB9
p934
aV89C9FA
p935
aV0084B4
p936
aV0084B4
p937
aV810DAB
p938
aV0084B4
p939
aVDD2E44
p940
aV0084B4
p941
aVF3E2A0
p942
aV009999
p943
aV0084B4
p944
aV0084B4
p945
aV0084B4
p946
aV0084B4
p947
aV00BEA3
p948
aVFA743E
p949
aV0084B4
p950
aV26FF05
p951
aV0084B4
p952
aV0084B4
p953
aV3B94D9
p954
aV009999
p955
aV0A0A0A
p956
aV19CF86
p957
aV088253
p958
aV0084B4
p959
aV0084B4
p960
aV0084B4
p961
aV0084B4
p962
aV3E3E45
p963
aV0084B4
p964
aV0084B4
p965
aVABB8C2
p966
aV0084B4
p967
aV0084B4
p968
aV35FF3F
p969
aV0084B4
p970
aVFFCC4D
p971
aV0084B4
p972
aVF5ABB5
p973
aV8C00B3
p974
aV0084B4
p975
aVDD2E44
p976
aV0084B4
p977
aVFF0099
p978
aV0084B4
p979
aVF0C0E6
p980
aV0084B4
p981
aV464A41
p982
aV9266CC
p983
aV0084B4
p984
aV28B8A5
p985
aV0084B4
p986
aVABB8C2
p987
aV088253
p988
aV888888
p989
aV0084B4
p990
aV00FFCC
p991
aV0084B4
p992
aV0084B4
p993
aV0084B4
p994
aVDD2E44
p995
aV0084B4
p996
aV009999
p997
aV009999
p998
aV0084B4
p999
aV2B7BB9
p1000
aVDD2E44
p1001
aV0084B4
p1002
aVF5ABB5
p1003
aV0084B4
p1004
aV0084B4
p1005
aV89C9FA
p1006
aV2B7BB9
p1007
aVDD2E44
p1008
aV0084B4
p1009
aV0084B4
p1010
aV0084B4
p1011
aV0084B4
p1012
aV0084B4
p1013
aV0084B4
p1014
aV0084B4
p1015
aV000000
p1016
aV0084B4
p1017
aV2FC2EF
p1018
aV0084B4
p1019
aV0084B4
p1020
aV0084B4
p1021
aV4A913C
p1022
aVFF0000
p1023
aV2FC2EF
p1024
aV0084B4
p1025
aV0F0F0F
p1026
aVDD2E44
p1027
aV2B7BB9
p1028
aV0084B4
p1029
aV1C161C
p1030
aV3B94D9
p1031
aVCF3E19
p1032
aV0084B4
p1033
aV0084B4
p1034
aV0084B4
p1035
aV0084B4
p1036
aV0084B4
p1037
aV0084B4
p1038
aV9D582E
p1039
aV2B7BB9
p1040
aV0084B4
p1041
aV94D487
p1042
aVABB8C2
p1043
aV0084B4
p1044
aV9266CC
p1045
aV0084B4
p1046
aV0084B4
p1047
aV89C9FA
p1048
aV0084B4
p1049
aV2E2D11
p1050
aV0084B4
p1051
aV0084B4
p1052
aV89C9FA
p1053
aV0084B4
p1054
aV0084B4
p1055
aV0084B4
p1056
aV2B7BB9
p1057
aVF5ABB5
p1058
aV2B7BB9
p1059
aV8F15D6
p1060
aV0084B4
p1061
aV000405
p1062
aV0084B4
p1063
aV0084B4
p1064
aVFF0000
p1065
aV0084B4
p1066
aV4A913C
p1067
aV2D2D2D
p1068
aVF5ABB5
p1069
aV009CF0
p1070
aV0099B9
p1071
aVFF0000
p1072
aV088253
p1073
aV3B94D9
p1074
aV009999
p1075
aV0084B4
p1076
aV0084B4
p1077
aV0084B4
p1078
aV0084B4
p1079
aVD02B55
p1080
aVABB8C2
p1081
aV131516
p1082
aV0084B4
p1083
aV0084B4
p1084
aVC3C3E5
p1085
aV0099B9
p1086
aV0084B4
p1087
aV0084B4
p1088
aV0084B4
p1089
aVFFCC4D
p1090
aV0084B4
p1091
aV000000
p1092
aV0084B4
p1093
aV0084B4
p1094
aVE05F2F
p1095
aV3B94D9
p1096
aV0084B4
p1097
aVABB8C2
p1098
aV0084B4
p1099
aV0084B4
p1100
aV0084B4
p1101
aV0084B4
p1102
aV2B7BB9
p1103
aVAF0FFF
p1104
aVDD2E44
p1105
aV990000
p1106
aV0084B4
p1107
aV0084B4
p1108
aVCC3366
p1109
aVABB8C2
p1110
aV2B7BB9
p1111
aV82167E
p1112
aV0084B4
p1113
aVD58807
p1114
aV94D487
p1115
aV0084B4
p1116
aV0099CC
p1117
aV0084B4
p1118
aV0084B4
p1119
aV0084B4
p1120
aV2B7BB9
p1121
aV2B7BB9
p1122
aV0084B4
p1123
aV000000
p1124
aV0084B4
p1125
aV4A913C
p1126
aV4A913C
p1127
aVABB8C2
p1128
aV38118C
p1129
aV2B7BB9
p1130
aV0084B4
p1131
aV1100FF
p1132
aVF5ABB5
p1133
aV0084B4
p1134
aV0084B4
p1135
aVABB8C2
p1136
aV0084B4
p1137
aV93A644
p1138
aV0099B9
p1139
aVABB8C2
p1140
aV0084B4
p1141
aV0084B4
p1142
aV9266CC
p1143
aV0084B4
p1144
aV0084B4
p1145
aV2B7BB9
p1146
aV3B94D9
p1147
aV2B7BB9
p1148
aV4A913C
p1149
aV0084B4
p1150
aV0084B4
p1151
aVF5ABB5
p1152
aV0084B4
p1153
aV0084B4
p1154
aV9E2E88
p1155
aV0084B4
p1156
aVED9696
p1157
aVF58EA8
p1158
aV9B4FFF
p1159
aV2B7BB9
p1160
aV2B7BB9
p1161
aV0084B4
p1162
aV94D487
p1163
aV8037AB
p1164
aV080D4D
p1165
aV009999
p1166
aV0084B4
p1167
aVFA743E
p1168
aV0084B4
p1169
aV009999
p1170
aV0084B4
p1171
aV0084B4
p1172
aV94D487
p1173
aV6B24C7
p1174
aV2B7BB9
p1175
aV0084B4
p1176
aV0084B4
p1177
aV000000
p1178
aV0099B9
p1179
aV0084B4
p1180
aV2B7BB9
p1181
aV038543
p1182
aV0084B4
p1183
aV0084B4
p1184
aV0084B4
p1185
aV0084B4
p1186
aV0084B4
p1187
aV05F705
p1188
aV0084B4
p1189
aV0084B4
p1190
aV3B94D9
p1191
aVF063CF
p1192
aV139EBD
p1193
aV0084B4
p1194
aVFA743E
p1195
aV0084B4
p1196
aV0099B9
p1197
aV0084B4
p1198
aVE81C4F
p1199
aV4D5254
p1200
aV000000
p1201
aV0084B4
p1202
aV0084B4
p1203
aV44C0D1
p1204
aV0084B4
p1205
aV0084B4
p1206
aV0084B4
p1207
aV0099CC
p1208
aV0084B4
p1209
aVD81A1A
p1210
aV142B11
p1211
aV0084B4
p1212
aV0084B4
p1213
aVFF3300
p1214
aV0099B9
p1215
aVABB8C2
p1216
aV0084B4
p1217
aV9266CC
p1218
aVF5ABB5
p1219
aVABB8C2
p1220
aV3B94D9
p1221
aV0084B4
p1222
aVBA0B17
p1223
aVD02B55
p1224
aV0084B4
p1225
aVC6E5D9
p1226
aV94D487
p1227
aVF5ACA8
p1228
aV0084B4
p1229
aV3B94D9
p1230
aV0084B4
p1231
aV16F0F7
p1232
aVABB8C2
p1233
aV8B0000
p1234
aV0084B4
p1235
aV0084B4
p1236
aVF5ABB5
p1237
aV0084B4
p1238
aV0084B4
p1239
aV9266CC
p1240
aV008DCA
p1241
aV000000
p1242
aV112288
p1243
aVDD2E44
p1244
aVFF0000
p1245
aV0084B4
p1246
aV2B7BB9
p1247
aV0084B4
p1248
aV0084B4
p1249
aV0084B4
p1250
aV0084B4
p1251
aV0084B4
p1252
aV0084B4
p1253
aV0084B4
p1254
aVDD2E44
p1255
aV0084B4
p1256
aV2B7BB9
p1257
aV0084B4
p1258
aVDD2E44
p1259
aVFF0000
p1260
aV19156F
p1261
aV0084B4
p1262
aV675C7A
p1263
aVF01880
p1264
aV0000FF
p1265
aVABB8C2
p1266
aV0084B4
p1267
aV319143
p1268
aV0084B4
p1269
aVFF0000
p1270
aVEB2FE5
p1271
aVABB8C2
p1272
aV444444
p1273
aV0084B4
p1274
aV0084B4
p1275
aV6D3B3D
p1276
aV009999
p1277
aV0084B4
p1278
aVFA743E
p1279
aV0084B4
p1280
aV0084B4
p1281
aV3B94D9
p1282
aV0084B4
p1283
aVDE6C1B
p1284
aV4A913C
p1285
aVDD2E44
p1286
aV2B7BB9
p1287
aV0084B4
p1288
aV9266CC
p1289
aV0084B4
p1290
aV21B5EB
p1291
aV001122
p1292
aV2B7BB9
p1293
aVCC0000
p1294
aV2B7BB9
p1295
aV0099B9
p1296
aV0084B4
p1297
aV2B7BB9
p1298
aV009999
p1299
aV0084B4
p1300
aV009999
p1301
aV0084B4
p1302
aV3B94D9
p1303
aV3B94D9
p1304
aVDD2E44
p1305
aV0084B4
p1306
aVF5ABB5
p1307
aVF58EA8
p1308
aV0084B4
p1309
aV0084B4
p1310
aV4A913C
p1311
aV088253
p1312
aV0084B4
p1313
aV2B7BB9
p1314
aV0084B4
p1315
aV4A913C
p1316
aVF5ABB5
p1317
aV9266CC
p1318
aV0084B4
p1319
aV0084B4
p1320
aVD02B55
p1321
aVFF0000
p1322
aVFF0000
p1323
aV0084B4
p1324
aV0084B4
p1325
aV2B7BB9
p1326
aV4A913C
p1327
aV4A913C
p1328
aV000000
p1329
aV2B7BB9
p1330
aV0084B4
p1331
aV009999
p1332
aV0084B4
p1333
aVDE0D15
p1334
aV0084B4
p1335
aV0084B4
p1336
aV088253
p1337
aV0084B4
p1338
aV0084B4
p1339
aV0084B4
p1340
aV009999
p1341
aVA171A8
p1342
aV0FA7C2
p1343
aV0021B3
p1344
aV0084B4
p1345
aV981CEB
p1346
aVAA00B3
p1347
aV3B94D9
p1348
aVD02B55
p1349
aV0084B4
p1350
aV8B47AD
p1351
aV2FC2EF
p1352
aV969696
p1353
aV2B7BB9
p1354
aV0084B4
p1355
aV0084B4
p1356
aV2B7BB9
p1357
aVB40B43
p1358
aVB40B44
p1359
aV1AA4D6
p1360
aV0084B4
p1361
aV0084B4
p1362
aVDD2E44
p1363
aV0084B4
p1364
aVBF3EFF
p1365
aV0084B4
p1366
aV0084B4
p1367
aV0084B4
p1368
aV4A913C
p1369
aVBD1740
p1370
aV2FC2EF
p1371
aV89C9FA
p1372
aV0084B4
p1373
aV0084B4
p1374
aV0084B4
p1375
aV0084B4
p1376
aV3B94D9
p1377
aV3B94D9
p1378
aV3B94D9
p1379
aV0084B4
p1380
aV0084B4
p1381
aVFF0000
p1382
aV0084B4
p1383
aVF56708
p1384
aV0084B4
p1385
aV2B7BB9
p1386
aV3B94D9
p1387
aVF5ABB5
p1388
aV3B94D9
p1389
aV0084B4
p1390
aV0084B4
p1391
aV89C9FA
p1392
aVD02B55
p1393
aV0084B4
p1394
aV0084B4
p1395
aVDD2E44
p1396
aVB64CE0
p1397
aV2D3538
p1398
aV0084B4
p1399
aV0084B4
p1400
aV0084B4
p1401
aV0084B4
p1402
aV0084B4
p1403
aV0084B4
p1404
aV0084B4
p1405
aVF5ABB5
p1406
aV009999
p1407
aV0084B4
p1408
aVFFCC4D
p1409
aVA37C2D
p1410
aV0084B4
p1411
aV0084B4
p1412
aVD02B55
p1413
aV0000CC
p1414
aVDE3D18
p1415
aV0084B4
p1416
aV0084B4
p1417
aV3B94D9
p1418
aV094D7C
p1419
aVFF3300
p1420
aV68090F
p1421
aVFF0000
p1422
aV0084B4
p1423
aV3B94D9
p1424
aV1F98C7
p1425
aV0084B4
p1426
aV89C9FA
p1427
aV0084B4
p1428
aV0084B4
p1429
aV0084B4
p1430
aV0084B4
p1431
aV0084B4
p1432
aV0084B4
p1433
aV0084B4
p1434
aV754182
p1435
aV0084B4
p1436
aV0084B4
p1437
aV0084B4
p1438
aV0084B4
p1439
aV990000
p1440
aV038543
p1441
aVABB8C2
p1442
aVF7EFEF
p1443
aV000000
p1444
aV0084B4
p1445
aVAFA69A
p1446
aV000000
p1447
aV267322
p1448
aV9266CC
p1449
aV000000
p1450
aV000000
p1451
aV0084B4
p1452
aV009999
p1453
aV0084B4
p1454
aV35CCA6
p1455
aV009999
p1456
aV0084B4
p1457
aV3B94D9
p1458
aVFF0083
p1459
aV2B7BB9
p1460
aV0084B4
p1461
aV990000
p1462
aV000000
p1463
aVFA0505
p1464
aV0084B4
p1465
aV0084B4
p1466
aV0084B4
p1467
aV5B6375
p1468
aV0084B4
p1469
aV0099CC
p1470
aV0084B4
p1471
aV0084B4
p1472
aVB3AA00
p1473
aVABB8C2
p1474
aVA80526
p1475
aV0084B4
p1476
aV0084B4
p1477
aV0084B4
p1478
aV0084B4
p1479
aV0084B4
p1480
aVF5ABB5
p1481
aV0084B4
p1482
aV0084B4
p1483
aVFF0000
p1484
aV0084B4
p1485
aV0084B4
p1486
aV0084B4
p1487
aV0084B4
p1488
aVFFCC4D
p1489
aVDD2E44
p1490
aVDD2E44
p1491
aV0084B4
p1492
aV9D582E
p1493
aV1F98C7
p1494
aV0084B4
p1495
aV0084B4
p1496
aV009999
p1497
aV0B36A1
p1498
aV0084B4
p1499
aV0084B4
p1500
aV9D582E
p1501
aV0E171A
p1502
aV00B377
p1503
aVDD2E44
p1504
aV0084B4
p1505
aV2FC2EF
p1506
aVDD2E44
p1507
aV981CEB
p1508
aVFA743E
p1509
aV0084B4
p1510
aV0084B4
p1511
aVFF00FF
p1512
aV0084B4
p1513
aVB40B43
p1514
aVDD2E44
p1515
aV0084B4
p1516
aV3B94D9
p1517
aVFF00FF
p1518
aV0084B4
p1519
aV0FACDB
p1520
aV0084B4
p1521
aV0084B4
p1522
aV0084B4
p1523
aV570D47
p1524
aV0084B4
p1525
aV0084B4
p1526
aV0084B4
p1527
aV0084B4
p1528
aV0084B4
p1529
aV2FC2EF
p1530
aV225588
p1531
aVF5ABB5
p1532
aV0084B4
p1533
aV4A913C
p1534
aV0084B4
p1535
aV0084B4
p1536
aV0084B4
p1537
aV0084B4
p1538
aV2FC2EF
p1539
aV3B94D9
p1540
aV2E85C2
p1541
aVD9BF18
p1542
aV0084B4
p1543
aV3B94D9
p1544
aV0084B4
p1545
aVB40B43
p1546
aV0084B4
p1547
aV0084B4
p1548
aVDD2E44
p1549
aV0084B4
p1550
aV0099CC
p1551
aV0084B4
p1552
aV0084B4
p1553
aV0084B4
p1554
aV0084B4
p1555
aV0084B4
p1556
aV40CADD
p1557
aV0084B4
p1558
aV0084B4
p1559
aV0084B4
p1560
aV009999
p1561
aV0084B4
p1562
aVF5ABB5
p1563
aV0084B4
p1564
aVFF0000
p1565
aV0084B4
p1566
aV0084B4
p1567
aV73EBC3
p1568
aV990000
p1569
aV0084B4
p1570
aVB30000
p1571
aV0084B4
p1572
aV0084B4
p1573
aV0084B4
p1574
aV990000
p1575
aV0084B4
p1576
aV0084B4
p1577
aVF5ABB5
p1578
aVFC056C
p1579
aV2B6267
p1580
aV0B2161
p1581
aV0084B4
p1582
aV000000
p1583
aVABB8C2
p1584
aVF5ABB5
p1585
aVF00C32
p1586
aV0084B4
p1587
aV09A1A1
p1588
aV0084B4
p1589
aVE60C5C
p1590
aVD02B55
p1591
aVABB8C2
p1592
aV0084B4
p1593
aV0084B4
p1594
aVDD2E44
p1595
aVDD2E44
p1596
aVFAB81E
p1597
aVFA743E
p1598
aV36B3C9
p1599
aV44C7A6
p1600
aV0099B9
p1601
aV3B94D9
p1602
aV0084B4
p1603
aV2FC2EF
p1604
aV0084B4
p1605
aV000000
p1606
aV0084B4
p1607
aV0084B4
p1608
aV0084B4
p1609
aV0084B4
p1610
aV17406C
p1611
aV94D487
p1612
aV7D27B3
p1613
aV0084B4
p1614
aV000000
p1615
aV2B7BB9
p1616
aV2B7BB9
p1617
aV009999
p1618
aV9266CC
p1619
aV2FC2EF
p1620
aV00BF13
p1621
aV2B7BB9
p1622
aV0084B4
p1623
aV3B94D9
p1624
aV0084B4
p1625
aV0084B4
p1626
aV94D487
p1627
aV0084B4
p1628
aV009999
p1629
aV0084B4
p1630
aV2FC2EF
p1631
aV0084B4
p1632
aV0084B4
p1633
aV0084B4
p1634
aV0084B4
p1635
aV0084B4
p1636
aV0084B4
p1637
aV0084B4
p1638
aV0084B4
p1639
aV0084B4
p1640
aV0084B4
p1641
aV0084B4
p1642
aV2B7BB9
p1643
aV0084B4
p1644
aV0084B4
p1645
aV0084B4
p1646
aV0084B4
p1647
aV2B7BB9
p1648
aV89C9FA
p1649
aV0084B4
p1650
aV0084B4
p1651
aV9266CC
p1652
aV0084B4
p1653
aVFA743E
p1654
aV2B7BB9
p1655
aV0084B4
p1656
aVF5ABB5
p1657
aV3B94D9
p1658
aVFF0000
p1659
aV9266CC
p1660
aVABB8C2
p1661
aV0084B4
p1662
aV89C9FA
p1663
aV2B7BB9
p1664
aV0084B4
p1665
aV6906BA
p1666
aV080101
p1667
aVB40B43
p1668
aV0099B9
p1669
aV0084B4
p1670
aV0084B4
p1671
aV0084B4
p1672
aV0084B4
p1673
aV009999
p1674
aVDD2E44
p1675
aV5C5507
p1676
aV0084B4
p1677
aV0084B4
p1678
aV0084B4
p1679
aV0084B4
p1680
aVABB8C2
p1681
aVF5ABB5
p1682
aV009999
p1683
aV0084B4
p1684
aVD02B55
p1685
aV0084B4
p1686
aVE01010
p1687
aV3AA89C
p1688
aV0084B4
p1689
aV0084B4
p1690
aV3D062A
p1691
aV0084B4
p1692
aVDD2E44
p1693
aV0084B4
p1694
aV0084B4
p1695
aV0084B4
p1696
aVB300AD
p1697
aV0084B4
p1698
aV0084B4
p1699
aVE81C4F
p1700
aV9266CC
p1701
aV0084B4
p1702
aV0084B4
p1703
aV795F6E
p1704
aV2FC2EF
p1705
aV0084B4
p1706
aV0084B4
p1707
aV0084B4
p1708
aV2FC2EF
p1709
aV0084B4
p1710
aV0084B4
p1711
aV552255
p1712
aVB40B43
p1713
aV00ADB3
p1714
aV0084B4
p1715
aV0084B4
p1716
aV0084B4
p1717
aVFF0000
p1718
aV4A913C
p1719
aV0084B4
p1720
aV0084B4
p1721
aV2B7BB9
p1722
aV0084B4
p1723
aV0B0101
p1724
aV0084B4
p1725
aV0084B4
p1726
aVB3A400
p1727
aV5100FF
p1728
aV0084B4
p1729
aVD60000
p1730
aV9266CC
p1731
aV0084B4
p1732
aV2B7BB9
p1733
aV0084B4
p1734
aV000000
p1735
aV0084B4
p1736
aV0084B4
p1737
aV0084B4
p1738
aV2FC2EF
p1739
aVD02B55
p1740
aV0084B4
p1741
aV0084B4
p1742
aV89C9FA
p1743
aV009999
p1744
aV3B94D9
p1745
aVF5ABB5
p1746
aV008080
p1747
aV0084B4
p1748
aV3B94D9
p1749
aV9266CC
p1750
aV0084B4
p1751
aV9266CC
p1752
aV4A913C
p1753
aV0084B4
p1754
aV990000
p1755
aV4A913C
p1756
aVBF0D0D
p1757
aV0084B4
p1758
aV0084B4
p1759
aV0084B4
p1760
aV3B94D9
p1761
aV0084B4
p1762
aVFA6CE9
p1763
aV0084B4
p1764
aV0084B4
p1765
aVE80523
p1766
aV0084B4
p1767
aV2FC2EF
p1768
aV2B7BB9
p1769
aV0084B4
p1770
aVFF6600
p1771
aV0084B4
p1772
aV8F8C8F
p1773
aV0084B4
p1774
aV445566
p1775
aV0084B4
p1776
aVDD2E44
p1777
aV17AFE6
p1778
aV009999
p1779
aV0084B4
p1780
aVFF0000
p1781
aV0084B4
p1782
aV2FC2EF
p1783
aV000000
p1784
aV0084B4
p1785
aV0084B4
p1786
aVDE17E8
p1787
aV2FC2EF
p1788
aV000000
p1789
aVF58EA8
p1790
aV9D582E
p1791
aV0084B4
p1792
aV0084B4
p1793
aV0084B4
p1794
aV0084B4
p1795
aV0084B4
p1796
aV89C9FA
p1797
aV0084B4
p1798
aV0084B4
p1799
aV94D487
p1800
aVA1CAE6
p1801
aV0084B4
p1802
aV6B0382
p1803
aVFFD2F5
p1804
aV0084B4
p1805
aV0084B4
p1806
aV0084B4
p1807
aV0084B4
p1808
aV2B7BB9
p1809
aV0084B4
p1810
aV038543
p1811
aV187BC7
p1812
aVF58EA8
p1813
aV4A913C
p1814
aVABB8C2
p1815
aV0099CC
p1816
aV4AA89A
p1817
aV0084B4
p1818
aV040500
p1819
aV2B7BB9
p1820
aV4BEACF
p1821
aV0084B4
p1822
aV0084B4
p1823
aV29D9D6
p1824
aV0084B4
p1825
aV009999
p1826
aV9D582E
p1827
aV0084B4
p1828
aV0084B4
p1829
aV990000
p1830
aV0084B4
p1831
aVF58EA8
p1832
aVC2A771
p1833
aV0084B4
p1834
aV0084B4
p1835
aV08F508
p1836
aV0084B4
p1837
aVABB8C2
p1838
aVDD2E44
p1839
aVF5ABB5
p1840
aV4A913C
p1841
aVB3001E
p1842
aV0084B4
p1843
aV0084B4
p1844
aV4A913C
p1845
aVABB8C2
p1846
aV000000
p1847
aV0084B4
p1848
aV0084B4
p1849
aV0084B4
p1850
aV0084B4
p1851
aV0084B4
p1852
aV005AB3
p1853
aV0084B4
p1854
aV000000
p1855
aV2B7BB9
p1856
aV0084B4
p1857
aVF03BFF
p1858
aV0084B4
p1859
aV0084B4
p1860
aV0A090A
p1861
aV2B7BB9
p1862
aVDD2E44
p1863
aV131478
p1864
aV0084B4
p1865
aV0084B4
p1866
aVABB8C2
p1867
aVEE2200
p1868
aV4A913C
p1869
aV000000
p1870
aV0084B4
p1871
aVFF4444
p1872
aVAA88AA
p1873
aV0084B4
p1874
aV0084B4
p1875
aV0084B4
p1876
aV0084B4
p1877
aVABB8C2
p1878
aV2B7BB9
p1879
aV2B7BB9
p1880
aV0084B4
p1881
aV0084B4
p1882
aV2FC2EF
p1883
aVE81C4F
p1884
aV0084B4
p1885
aV4A913C
p1886
aV2B7BB9
p1887
aV2DB300
p1888
aV038543
p1889
aV000000
p1890
aV2B7BB9
p1891
aV4DD119
p1892
aV0084B4
p1893
aV0084B4
p1894
aV0084B4
p1895
aV0084B4
p1896
aV0084B4
p1897
aV0084B4
p1898
aV89C9FA
p1899
aV0084B4
p1900
aV0084B4
p1901
aV3B94D9
p1902
aV0084B4
p1903
aV0084B4
p1904
aVF005B9
p1905
aV0084B4
p1906
aV0084B4
p1907
aV009999
p1908
aV109093
p1909
aV595B8C
p1910
aVFF0000
p1911
aV0084B4
p1912
aV0084B4
p1913
aV2FC2EF
p1914
aVB3009E
p1915
aV0084B4
p1916
aV0084B4
p1917
aV0084B4
p1918
aV6B199E
p1919
aV000022
p1920
aV0084B4
p1921
aV0084B4
p1922
aV000000
p1923
aV0084B4
p1924
aV4A913C
p1925
aV9266CC
p1926
aVB40B43
p1927
aV0084B4
p1928
aV131516
p1929
aV0084B4
p1930
aV0084B4
p1931
aV038543
p1932
aV08686B
p1933
aV0084B4
p1934
aV9266CC
p1935
aV0084B4
p1936
aV0084B4
p1937
aV0084B4
p1938
aV0084B4
p1939
aV0084B4
p1940
aVF01AA5
p1941
aVDD2E44
p1942
aV000000
p1943
aV0084B4
p1944
aV005EC7
p1945
aV0084B4
p1946
aV0099CC
p1947
aV9266CC
p1948
aVFA743E
p1949
aV0084B4
p1950
aV0084B4
p1951
aV0084B4
p1952
aV0084B4
p1953
aV3B94D9
p1954
aV5E412F
p1955
aVB30E87
p1956
aV038543
p1957
aVE60CDF
p1958
aV89C9FA
p1959
aV2B7BB9
p1960
aV0084B4
p1961
aV4A913C
p1962
aV0084B4
p1963
aV94D487
p1964
aV2EACC2
p1965
aV696969
p1966
aV009999
p1967
aV4A913C
p1968
aV0084B4
p1969
aV0084B4
p1970
aV2E2E2E
p1971
aV0084B4
p1972
aVFF691F
p1973
aV0084B4
p1974
aV0084B4
p1975
aV0084B4
p1976
aV0A29F7
p1977
aV000000
p1978
aV0018B3
p1979
aVB33000
p1980
aV40A8A8
p1981
aV0084B4
p1982
aV3B94D9
p1983
aVF6D26D
p1984
aV000000
p1985
aV0084B4
p1986
aV2B7BB9
p1987
aV0084B4
p1988
aV4A913C
p1989
aV0FC8CF
p1990
aV0084B4
p1991
aVD37095
p1992
aVFF0000
p1993
aV2B7BB9
p1994
aV2B7BB9
p1995
aVD60741
p1996
aVFF3300
p1997
aV2B7BB9
p1998
aV0084B4
p1999
aV0084B4
p2000
aV0084B4
p2001
aV4A913C
p2002
aV0084B4
p2003
aV0099CC
p2004
aV088253
p2005
aV2B7BB9
p2006
aVFA743E
p2007
aV0084B4
p2008
aV0084B4
p2009
aVF5ABB5
p2010
aV0084B4
p2011
aV9266CC
p2012
aVDD2E44
p2013
aV0084B4
p2014
aV000000
p2015
aV0084B4
p2016
aV0084B4
p2017
aV0084B4
p2018
aV000000
p2019
aV0084B4
p2020
aV2B7BB9
p2021
aV0084B4
p2022
aV0084B4
p2023
aVF5ABB5
p2024
aV990000
p2025
aV3B94D9
p2026
aVABB8C2
p2027
aVF5ABB5
p2028
aV000000
p2029
aVFFCC4D
p2030
aV14BB1C
p2031
aVF0AF69
p2032
aV0084B4
p2033
aV0084B4
p2034
aV9D61C4
p2035
aVDD2E44
p2036
aV3B94D9
p2037
aV2B7BB9
p2038
aV1DCF9D
p2039
aVB5903F
p2040
aVED092F
p2041
aV3B94D9
p2042
aV0084B4
p2043
aVFFCBA4
p2044
aV0EEDCF
p2045
aV3B94D9
p2046
aV2B7BB9
p2047
aV009999
p2048
aV93A644
p2049
aV0084B4
p2050
aV0084B4
p2051
aV030303
p2052
aV000000
p2053
aV0084B4
p2054
aV35BDB6
p2055
aVDD2E44
p2056
aV0084B4
p2057
aV0F4742
p2058
aV2FC2EF
p2059
aV0084B4
p2060
aV2B7BB9
p2061
aVABB8C2
p2062
aVED03ED
p2063
aVDD2E44
p2064
aV0099CC
p2065
aVD02B55
p2066
aV55C0E7
p2067
aV0084B4
p2068
aV0084B4
p2069
aV0084B4
p2070
aV9266CC
p2071
aV000000
p2072
aV0084B4
p2073
aVF5ABB5
p2074
aV2FC2EF
p2075
aV0084B4
p2076
aV0929A0
p2077
aVB40B43
p2078
aV0084B4
p2079
aV8F00B3
p2080
aV0084B4
p2081
aV4A913C
p2082
aV0084B4
p2083
aV0084B4
p2084
aVBD537D
p2085
aV009999
p2086
aV009999
p2087
aV2B7BB9
p2088
aV8F7E7F
p2089
aV0A0000
p2090
aV0084B4
p2091
aV0084B4
p2092
aVABB8C2
p2093
aV0084B4
p2094
aV0084B4
p2095
aV009999
p2096
aV0084B4
p2097
aV7FDBB6
p2098
aVDD2E44
p2099
aVFA743E
p2100
aV0084B4
p2101
aVF5ABB5
p2102
aV6E9C9E
p2103
aV0084B4
p2104
aV000000
p2105
aV89C9FA
p2106
aV9266CC
p2107
aV0084B4
p2108
aV0084B4
p2109
aV0084B4
p2110
aV0084B4
p2111
aV0084B4
p2112
aV2B7BB9
p2113
aV0084B4
p2114
aV12EBFA
p2115
aV0084B4
p2116
aVF5ABB5
p2117
aV0084B4
p2118
aV0084B4
p2119
aVD02B55
p2120
aV0084B4
p2121
aV0099CC
p2122
aV0084B4
p2123
aV009999
p2124
aVF5ABB5
p2125
aV0084B4
p2126
aV000000
p2127
aV0000FF
p2128
aV0084B4
p2129
aV3B94D9
p2130
aV0084B4
p2131
aVB40B43
p2132
aV0084B4
p2133
aV985472
p2134
aV0084B4
p2135
aVBA6815
p2136
aVABB8C2
p2137
aV0084B4
p2138
aVB40B43
p2139
aV7AC143
p2140
aV0084B4
p2141
aVF5ABB5
p2142
aV0084B4
p2143
aV160230
p2144
aV0084B4
p2145
aV0084B4
p2146
aV0084B4
p2147
aV0084B4
p2148
aV0084B4
p2149
aV0084B4
p2150
aV0084B4
p2151
aV000000
p2152
aV0099B9
p2153
aV4A913C
p2154
aV0084B4
p2155
aV0084B4
p2156
aVFF0000
p2157
aVCC3366
p2158
aV0084B4
p2159
aV6A3409
p2160
aV009999
p2161
aVCC33A8
p2162
aV0084B4
p2163
aV0084B4
p2164
aVDD2E44
p2165
aVABB8C2
p2166
aV9266CC
p2167
aV0099B9
p2168
aV0084B4
p2169
aV0084B4
p2170
aV0084B4
p2171
aV0084B4
p2172
aV94D487
p2173
aV0099B9
p2174
aV0084B4
p2175
aVABB8C2
p2176
aV2B7BB9
p2177
aV0084B4
p2178
aV0084B4
p2179
aV0084B4
p2180
aV0084B4
p2181
aV3B94D9
p2182
aV2B7BB9
p2183
aV9266CC
p2184
aV3B94D9
p2185
aV0084B4
p2186
aV0084B4
p2187
aV0084B4
p2188
aV0084B4
p2189
aV11DB1F
p2190
aVABB8C2
p2191
aV0084B4
p2192
aV0084B4
p2193
aV0084B4
p2194
aV0084B4
p2195
aV038543
p2196
aV0084B4
p2197
aV0084B4
p2198
aV0084B4
p2199
aV000000
p2200
aV0084B4
p2201
aV0084B4
p2202
aV2B7BB9
p2203
aV0084B4
p2204
aVFF0000
p2205
aV0084B4
p2206
aV0084B4
p2207
aV1F98C7
p2208
aVB40B43
p2209
aV9266CC
p2210
aV088253
p2211
aV0084B4
p2212
aVABB8C2
p2213
aV0084B4
p2214
aV000000
p2215
aV000000
p2216
aV0084B4
p2217
aV9266CC
p2218
aV0084B4
p2219
aV3B94D9
p2220
aV0084B4
p2221
aVF5ABB5
p2222
aV009999
p2223
aV0084B4
p2224
aV0084B4
p2225
aV0084B4
p2226
aV0084B4
p2227
aV0084B4
p2228
aVAA0000
p2229
aV990000
p2230
aV2FC2EF
p2231
aV3B94D9
p2232
aV038543
p2233
aV0084B4
p2234
aVFA9696
p2235
aV2B7BB9
p2236
aV000000
p2237
aV0084B4
p2238
aV89C9FA
p2239
aVACA095
p2240
aV0084B4
p2241
aV2B7BB9
p2242
aV0084B4
p2243
aVF5ABB5
p2244
aV0084B4
p2245
aV0084B4
p2246
aV0084B4
p2247
aV0084B4
p2248
aV2B7BB9
p2249
aV9266CC
p2250
aV4A913C
p2251
aV89C9FA
p2252
aVF5ABB5
p2253
aV0084B4
p2254
aV000000
p2255
aVFF0000
p2256
aV0084B4
p2257
aVFF2FF6
p2258
aV000000
p2259
aV3B94D9
p2260
aVFF0000
p2261
aV4A913C
p2262
aV244BE3
p2263
aV0084B4
p2264
aV89C9FA
p2265
aVDD2E44
p2266
aV2B7BB9
p2267
aV0084B4
p2268
aV2B7BB9
p2269
aV0084B4
p2270
aV0084B4
p2271
aV0084B4
p2272
aV91C11E
p2273
aV0084B4
p2274
aV2B7BB9
p2275
aVF5ABB5
p2276
aVFF00CE
p2277
aVFF0303
p2278
aV0084B4
p2279
aV4A913C
p2280
aV4A913C
p2281
aV1C2626
p2282
aV0084B4
p2283
aV2B7BB9
p2284
aV0084B4
p2285
aV0084B4
p2286
aV009999
p2287
aV00B30C
p2288
aV0084B4
p2289
aV0084B4
p2290
aV2FC2EF
p2291
aV9800B3
p2292
aV0084B4
p2293
aVBE0000
p2294
aVB40404
p2295
aV0084B4
p2296
aV0084B4
p2297
aV94D487
p2298
aV0084B4
p2299
aV94D487
p2300
aV9C0063
p2301
aV8F0042
p2302
aVCFB53B
p2303
aV0084B4
p2304
aV0084B4
p2305
aV0084B4
p2306
aV0084B4
p2307
aV7B68EE
p2308
aV1B95E0
p2309
aV0084B4
p2310
aV0084B4
p2311
aV0084B4
p2312
aVD51C4C
p2313
aV038543
p2314
aV0084B4
p2315
aV14FFF3
p2316
aV4A913C
p2317
aV0084B4
p2318
aV0084B4
p2319
aV0084B4
p2320
aV9918AD
p2321
aV0084B4
p2322
aV009999
p2323
aV067070
p2324
aV2B7BB9
p2325
aVAD7B30
p2326
aVDD2E44
p2327
aV0084B4
p2328
aV0084B4
p2329
aV0084B4
p2330
aVEF2E25
p2331
aV3B94D9
p2332
aV0084B4
p2333
aVFA8459
p2334
aV0084B4
p2335
aV2FC2EF
p2336
aVFF0000
p2337
aV0084B4
p2338
aV3B94D9
p2339
aV2FC2EF
p2340
aV0084B4
p2341
aV0084B4
p2342
aV0084B4
p2343
aV0084B4
p2344
aV0084B4
p2345
aV3B94D9
p2346
aVFF0000
p2347
aV990000
p2348
aV088253
p2349
aV088253
p2350
aV2B7BB9
p2351
aV0084B4
p2352
aV038543
p2353
aV0084B4
p2354
aV0084B4
p2355
aV0099B9
p2356
aV0084B4
p2357
aV3B94D9
p2358
aV0099B9
p2359
aVD1B576
p2360
aVAA0000
p2361
aV0084B4
p2362
aV222E75
p2363
aV3B94D9
p2364
aV2B7BB9
p2365
aV0A33FF
p2366
aV0099B9
p2367
aV0084B4
p2368
aV0084B4
p2369
aV0084B4
p2370
aV0084B4
p2371
aV3B94D9
p2372
aVFF0000
p2373
aVFF1D8E
p2374
aV088253
p2375
aV0084B4
p2376
aVE9DFDA
p2377
aV0084B4
p2378
aVDD2E44
p2379
aV0084B4
p2380
aVBF9D52
p2381
aV0084B4
p2382
aVF5ABB5
p2383
aV4A913C
p2384
aV229EC7
p2385
aV0084B4
p2386
aV0084B4
p2387
aV2FC2EF
p2388
aV0084B4
p2389
aV0084B4
p2390
aV0084B4
p2391
aV9266CC
p2392
aV9266CC
p2393
aV0084B4
p2394
aVCC3366
p2395
aV0084B4
p2396
aV750D0E
p2397
aV89C9FA
p2398
aVAAAAAA
p2399
aV93A644
p2400
aV0099B9
p2401
aV0084B4
p2402
aV0084B4
p2403
aV0084B4
p2404
aVCC3366
p2405
aV3B94D9
p2406
aV0084B4
p2407
aVABB8C2
p2408
aV0084B4
p2409
aV0084B4
p2410
aV0084B4
p2411
aV3B94D9
p2412
aV0084B4
p2413
aV0084B4
p2414
aV0084B4
p2415
aV0084B4
p2416
aV0084B4
p2417
aV0084B4
p2418
aV1C114A
p2419
aV0084B4
p2420
aV19C425
p2421
aV0084B4
p2422
aV0084B4
p2423
aVFFCC4D
p2424
aV0084B4
p2425
aV0084B4
p2426
aV0A635F
p2427
aVF5ABB5
p2428
aV990000
p2429
aV0084B4
p2430
aV0084B4
p2431
aV2FC2EF
p2432
aV0084B4
p2433
aV0084B4
p2434
aV0084B4
p2435
aV000000
p2436
aV990000
p2437
aV506C49
p2438
aV0ECCED
p2439
aV3B94D9
p2440
aV0084B4
p2441
aV0084B4
p2442
aV0084B4
p2443
aV009999
p2444
aV2D5385
p2445
aV0084B4
p2446
aV0084B4
p2447
aV7B352B
p2448
aVABB8C2
p2449
aV0084B4
p2450
aV009999
p2451
aV0084B4
p2452
aV2B7BB9
p2453
aV0084B4
p2454
aVDD2E44
p2455
aV038543
p2456
aVFA743E
p2457
aV0084B4
p2458
aV2FC2EF
p2459
aVABB8C2
p2460
aVDD2E44
p2461
aV0084B4
p2462
aV0084B4
p2463
aV0084B4
p2464
aV9266CC
p2465
aV0084B4
p2466
aV0084B4
p2467
aV0084B4
p2468
aV2B7BB9
p2469
aV0084B4
p2470
aVFA743E
p2471
aV485C3A
p2472
aV0084B4
p2473
aV388AA1
p2474
aVFF0000
p2475
aV3B94D9
p2476
aV0084B4
p2477
aV0084B4
p2478
aV0084B4
p2479
aV0084B4
p2480
aV3B94D9
p2481
aV2B7BB9
p2482
aVABB8C2
p2483
aV9266CC
p2484
aV0099CC
p2485
aV0084B4
p2486
aVABB8C2
p2487
aV9266CC
p2488
aV2B7BB9
p2489
aV0084B4
p2490
aVDD2E44
p2491
aV8D9188
p2492
aV0084B4
p2493
aV6A0E8F
p2494
aV0084B4
p2495
aV0084B4
p2496
aV1E26D1
p2497
aV3B94D9
p2498
aV0084B4
p2499
aV2B7BB9
p2500
aV0084B4
p2501
aV2B7BB9
p2502
aV3B94D9
p2503
aVDD2E44
p2504
aV0084B4
p2505
aVFF0000
p2506
aV0084B4
p2507
aV0084B4
p2508
aV2FC2EF
p2509
aV0084B4
p2510
aVCC3366
p2511
aV0084B4
p2512
aV0084B4
p2513
aV0084B4
p2514
aV0084B4
p2515
aV0084B4
p2516
aVABB8C2
p2517
aV2FC2EF
p2518
aV0033B3
p2519
aV0084B4
p2520
aV0084B4
p2521
aV93A644
p2522
aV000000
p2523
aV0084B4
p2524
aVFF0000
p2525
aV9266CC
p2526
aV0084B4
p2527
aV0084B4
p2528
aV0084B4
p2529
aV1B95E0
p2530
aV52555C
p2531
aV2B7BB9
p2532
aV4A913C
p2533
aVDD2E44
p2534
aVFF0000
p2535
aV0C3E53
p2536
aV0084B4
p2537
aV0084B4
p2538
aV0084B4
p2539
aV0084B4
p2540
aV000000
p2541
aV0084B4
p2542
aV9266CC
p2543
aV0084B4
p2544
aV47B037
p2545
aV3B94D9
p2546
aVD90F08
p2547
aV0084B4
p2548
aV0084B4
p2549
aV088253
p2550
aV0084B4
p2551
aV4A913C
p2552
aV2FC2EF
p2553
aV2B7BB9
p2554
aV009999
p2555
aV0084B4
p2556
aV5190FC
p2557
aV414F4B
p2558
aV088253
p2559
aV00A3AA
p2560
aV0084B4
p2561
aV0084B4
p2562
aVFF0000
p2563
aV0084B4
p2564
aV0084B4
p2565
aV0084B4
p2566
aV009999
p2567
aV0084B4
p2568
aV0084B4
p2569
aV000000
p2570
aV009999
p2571
aV0099CC
p2572
aV0084B4
p2573
aV0084B4
p2574
aV0E50F5
p2575
aV0084B4
p2576
aV8A19F9
p2577
aVF556D5
p2578
aVDD2E44
p2579
aV0084B4
p2580
aVDD2E44
p2581
aV0084B4
p2582
aV0084B4
p2583
aV0084B4
p2584
aV0084B4
p2585
aV0084B4
p2586
aV2B7BB9
p2587
aV0084B4
p2588
aV000000
p2589
aV0084B4
p2590
aV2FC2EF
p2591
aV2B7BB9
p2592
aV0084B4
p2593
aV0084B4
p2594
aV0084B4
p2595
aVF53B0C
p2596
aV003366
p2597
aV0084B4
p2598
aVF5ABB5
p2599
aV7622D6
p2600
aV0084B4
p2601
aV0084B4
p2602
aV9266CC
p2603
aV0084B4
p2604
aV3333FF
p2605
aV2FC2EF
p2606
aV0084B4
p2607
aV4A913C
p2608
aVFF3300
p2609
aV0084B4
p2610
aVEB8536
p2611
aV0084B4
p2612
aV0084B4
p2613
aV0099CC
p2614
aV0084B4
p2615
aV0084B4
p2616
aV0048B3
p2617
aV19CF86
p2618
aV3B94D9
p2619
aV0084B4
p2620
aV009999
p2621
aV0084B4
p2622
aV0084B4
p2623
aV009999
p2624
aV0084B4
p2625
aV9266CC
p2626
aV0084B4
p2627
aV7A0EB8
p2628
aV0084B4
p2629
aVDD2E44
p2630
aVFFCC4D
p2631
aV0084B4
p2632
aV4A913C
p2633
aV0084B4
p2634
aV009999
p2635
aVFF0099
p2636
aVFA743E
p2637
aV0084B4
p2638
aV4CC0FF
p2639
aVB30009
p2640
aV038543
p2641
aVB40B43
p2642
aVF508E5
p2643
aV0084B4
p2644
aV0084B4
p2645
aV0A66A3
p2646
aV0084B4
p2647
aV13B9F5
p2648
aV0084B4
p2649
aV0084B4
p2650
aV0084B4
p2651
aV990000
p2652
aV0084B4
p2653
aV0084B4
p2654
aV9266CC
p2655
aV0084B4
p2656
aVFF0000
p2657
aVD02B55
p2658
aV0084B4
p2659
aVDD2E44
p2660
aV0084B4
p2661
aV0084B4
p2662
aV184FBD
p2663
aV2FC2EF
p2664
aV0084B4
p2665
aV0084B4
p2666
aV0084B4
p2667
aV0084B4
p2668
aV0084B4
p2669
aV0099B9
p2670
aV3B94D9
p2671
aV085380
p2672
aV0084B4
p2673
aV050505
p2674
aV0084B4
p2675
aV0A0A0A
p2676
aV000000
p2677
aV1F98C7
p2678
aV0084B4
p2679
aV0084B4
p2680
aV0F0F0F
p2681
aV0084B4
p2682
aV4A665B
p2683
aV0084B4
p2684
aV0084B4
p2685
aV0084B4
p2686
aV030303
p2687
aV000000
p2688
aVF5ABB5
p2689
aV0084B4
p2690
aV036564
p2691
aV0084B4
p2692
aV0084B4
p2693
aVED1C24
p2694
aV9266CC
p2695
aV0084B4
p2696
aVFF0000
p2697
aV0084B4
p2698
aV438FAD
p2699
aV0084B4
p2700
aVABB8C2
p2701
aV3B94D9
p2702
aVFC3F68
p2703
aVE4C2C6
p2704
aV0084B4
p2705
aV0084B4
p2706
aV0084B4
p2707
aV9266CC
p2708
aV0084B4
p2709
aV810101
p2710
aVFF0000
p2711
aV3B94D9
p2712
aV0084B4
p2713
aV000000
p2714
aVDD2E44
p2715
aV0084B4
p2716
aV0084B4
p2717
aV0084B4
p2718
aV1D62ED
p2719
aV000000
p2720
aVFF3300
p2721
aV088253
p2722
aVF5ABB5
p2723
aV0084B4
p2724
aVF5ABB5
p2725
aV9266CC
p2726
aVABB8C2
p2727
aV0084B4
p2728
aVF2AFF2
p2729
aVABB8C2
p2730
aV009999
p2731
aV9266CC
p2732
aV0084B4
p2733
aVFFCC4D
p2734
aV0084B4
p2735
aVDD2E44
p2736
aV47FFDA
p2737
aV0084B4
p2738
aV0084B4
p2739
aV485566
p2740
aV3B94D9
p2741
aV0084B4
p2742
aVBD1C95
p2743
aV9C0303
p2744
aV0084B4
p2745
aV0084B4
p2746
aV0084B4
p2747
aV0084B4
p2748
aV0084B4
p2749
aV0084B4
p2750
aVF542B6
p2751
aV2FC2EF
p2752
aV0084B4
p2753
aV0084B4
p2754
aV990000
p2755
aV0084B4
p2756
aV9D582E
p2757
aV2FC2EF
p2758
aV000000
p2759
aV990000
p2760
aV0084B4
p2761
aV190AF5
p2762
aV0084B4
p2763
aV0084B4
p2764
aV0984F0
p2765
aVD9D025
p2766
aV0084B4
p2767
aV088253
p2768
aV121414
p2769
aV0099CC
p2770
aV038543
p2771
aV0084B4
p2772
aV0084B4
p2773
aVABB8C2
p2774
aV9D582E
p2775
aVDD2E44
p2776
aV94D487
p2777
aV2FEDD4
p2778
aV2DE3F0
p2779
aV1B1DA3
p2780
aV038543
p2781
aV110000
p2782
aV3B94D9
p2783
aV009999
p2784
aV0084B4
p2785
aVFF0000
p2786
aVFA743E
p2787
aVEA4F6C
p2788
aV94D487
p2789
aV0084B4
p2790
aV009999
p2791
aVCCB231
p2792
aVABB8C2
p2793
aV0084B4
p2794
aV4A913C
p2795
aVF52E9C
p2796
aV009999
p2797
aVF5ABB5
p2798
aV3B94D9
p2799
aV2FC2EF
p2800
aV7700B3
p2801
aV009999
p2802
aV0084B4
p2803
aV3B94D9
p2804
aV0084B4
p2805
aV0084B4
p2806
aV3B94D9
p2807
aV0084B4
p2808
aVFFCC4D
p2809
aV0084B4
p2810
aV0084B4
p2811
aV73BE73
p2812
aV088A85
p2813
aV038543
p2814
aVF5ABB5
p2815
aVABB8C2
p2816
aV96882C
p2817
aV0084B4
p2818
aV9266CC
p2819
aV0084B4
p2820
aV0084B4
p2821
aV0084B4
p2822
aV2B7BB9
p2823
aV000000
p2824
aVABB8C2
p2825
aV2FC2EF
p2826
aV0084B4
p2827
aV0084B4
p2828
aVF1DDFC
p2829
aV4CE682
p2830
aV088253
p2831
aV4A913C
p2832
aV000000
p2833
aVB40B43
p2834
aV0084B4
p2835
aVF5ABB5
p2836
aV3B94D9
p2837
aV0084B4
p2838
aVFF3300
p2839
aV0084B4
p2840
aV02254A
p2841
aVABB8C2
p2842
aV0084B4
p2843
aV0084B4
p2844
aV93A644
p2845
aV0084B4
p2846
aV0084B4
p2847
aV0099CC
p2848
aV0084B4
p2849
aV94D487
p2850
aVABB8C2
p2851
aV009999
p2852
aV0084B4
p2853
aV0084B4
p2854
aVDD2E44
p2855
aVABB8C2
p2856
aV3E94F0
p2857
aV153FE8
p2858
aV0084B4
p2859
aV0084B4
p2860
aV9266CC
p2861
aV0084B4
p2862
aV0099B9
p2863
aVCC3366
p2864
aV0084B4
p2865
aV0084B4
p2866
aVD02B55
p2867
aVABB8C2
p2868
aVF5ABB5
p2869
aVDD2E44
p2870
aV0084B4
p2871
aV0084B4
p2872
aV0084B4
p2873
aV0084B4
p2874
aV2FC2EF
p2875
aV0084B4
p2876
aV651DEB
p2877
aV4A913C
p2878
aV0084B4
p2879
aVFF0000
p2880
aV6E150E
p2881
aV0084B4
p2882
aVD02B55
p2883
aV000000
p2884
aV89C9FA
p2885
aV0084B4
p2886
aV0084B4
p2887
aVE0144E
p2888
aVFF3300
p2889
aV0084B4
p2890
aVF50808
p2891
aVF5930A
p2892
aV2FC2EF
p2893
aV0084B4
p2894
aVFF55AA
p2895
aV0084B4
p2896
aV0084B4
p2897
aVB30DAD
p2898
aV897193
p2899
aV0084B4
p2900
aVABB8C2
p2901
aV138A13
p2902
aV9266CC
p2903
aV000000
p2904
aVF5ABB5
p2905
aV0084B4
p2906
aV0084B4
p2907
aV0084B4
p2908
aVAE0000
p2909
aV0084B4
p2910
aV0084B4
p2911
aV0084B4
p2912
aVF5ABB5
p2913
aV0084B4
p2914
aV0084B4
p2915
aV0084B4
p2916
aVB40B43
p2917
aV0084B4
p2918
aVCC3366
p2919
aV0084B4
p2920
aV0084B4
p2921
aV0084B4
p2922
aV000000
p2923
aV0099B9
p2924
aV3B94D9
p2925
aVB30048
p2926
aV3B94D9
p2927
aV0084B4
p2928
aV964296
p2929
aVED2FD7
p2930
aV3B94D9
p2931
aV0084B4
p2932
aV814DF0
p2933
aVF5ABB5
p2934
aVAAA1A1
p2935
aV4169E1
p2936
aV3B94D9
p2937
aVF5ABB5
p2938
aV0084B4
p2939
aV0084B4
p2940
aV10E84A
p2941
aVE30000
p2942
aV3B94D9
p2943
aV009999
p2944
aV89C9FA
p2945
aV331845
p2946
aV038543
p2947
aV0084B4
p2948
aV0084B4
p2949
aV0084B4
p2950
aV2B7BB9
p2951
aV0084B4
p2952
aV3C4042
p2953
aV0099B9
p2954
aVABB8C2
p2955
aV0084B4
p2956
aVFF0000
p2957
aV0099B9
p2958
aV0084B4
p2959
aV0084B4
p2960
aV0084B4
p2961
aVFF3C00
p2962
aV0084B4
p2963
aV0084B4
p2964
aV0084B4
p2965
aV9266CC
p2966
aVFF1F1F
p2967
aV0084B4
p2968
aV0084B4
p2969
aV0084B4
p2970
aV0084B4
p2971
aVEB6F41
p2972
aV0084B4
p2973
aV000000
p2974
aVEB67B6
p2975
aV3B94D9
p2976
aVF5ABB5
p2977
aV9266CC
p2978
aV000000
p2979
aV0084B4
p2980
aV0084B4
p2981
aV0084B4
p2982
aV2B7BB9
p2983
aVD02B55
p2984
aVC01CC9
p2985
aV2B7BB9
p2986
aV0084B4
p2987
aVFF0000
p2988
aV39BD91
p2989
aV0084B4
p2990
aV0084B4
p2991
aV93A644
p2992
aVC705A0
p2993
aVFF26A8
p2994
aV0084B4
p2995
aV0084B4
p2996
aV0084B4
p2997
aV0084B4
p2998
aVB30024
p2999
aV0084B4
p3000
aVABB8C2
p3001
aV0084B4
p3002
aV0084B4
p3003
aV05080D
p3004
aVABB8C2
p3005
aV0084B4
p3006
aV2B7BB9
p3007
aV0084B4
p3008
aV0084B4
p3009
aV1A1B1F
p3010
aV000405
p3011
aV0084B4
p3012
aV23C2BA
p3013
aV0084B4
p3014
aVEB12EB
p3015
aV0084B4
p3016
aV0084B4
p3017
aV0084B4
p3018
aV0084B4
p3019
aV4A913C
p3020
aV0084B4
p3021
aV3B94D9
p3022
aVFF3300
p3023
aV0084B4
p3024
aV0084B4
p3025
aVCC2671
p3026
aVC4002A
p3027
aV23DCF5
p3028
aV0084B4
p3029
aV0084B4
p3030
aV268CAB
p3031
aV0079FA
p3032
aVF5ABB5
p3033
aV000000
p3034
aV94D487
p3035
aV0084B4
p3036
aV2FC2EF
p3037
aV0084B4
p3038
aVF70330
p3039
aV0084B4
p3040
aV000000
p3041
aVFF0000
p3042
aV0084B4
p3043
aVF008A6
p3044
aV0084B4
p3045
aVF5ABB5
p3046
aVABB8C2
p3047
aV0084B4
p3048
aVEDC2E2
p3049
aVABB8C2
p3050
aV0022FF
p3051
aV323E4C
p3052
aVF5ABB5
p3053
aVBE0505
p3054
aV08090A
p3055
aVABB8C2
p3056
aV42BACC
p3057
aV0084B4
p3058
aV038543
p3059
aVF5ABB5
p3060
aVFF0000
p3061
aV00E1FF
p3062
aV9266CC
p3063
aV0084B4
p3064
aV162E19
p3065
aV94D487
p3066
aV0084B4
p3067
aV000794
p3068
aVFF0000
p3069
aV0084B4
p3070
aV0084B4
p3071
aV0084B4
p3072
aV0084B4
p3073
aV0084B4
p3074
aV3A2394
p3075
aVFF0000
p3076
aV9266CC
p3077
aVEB0000
p3078
aV0084B4
p3079
aV0084B4
p3080
aV0084B4
p3081
aV0F0B0D
p3082
aV9266CC
p3083
aV0084B4
p3084
aV59058A
p3085
aV0084B4
p3086
aVF5ABB5
p3087
aV0084B4
p3088
aV2B7BB9
p3089
aV0084B4
p3090
aV009999
p3091
aV2B7BB9
p3092
aV9D582E
p3093
aV0084B4
p3094
aV0084B4
p3095
aV0084B4
p3096
aVABB8C2
p3097
aV0084B4
p3098
aV0084B4
p3099
aV0084B4
p3100
aV0084B4
p3101
aV0084B4
p3102
aV555555
p3103
aV0084B4
p3104
aV000DFF
p3105
aV9266CC
p3106
aVF5ABB9
p3107
aV0084B4
p3108
aV0084B4
p3109
aV0084B4
p3110
aV0084B4
p3111
aV669F3B
p3112
aV0084B4
p3113
aVCCCCCC
p3114
aVF5ABB5
p3115
aV0084B4
p3116
aV0084B4
p3117
aV0084B4
p3118
aV0084B4
p3119
aV0084B4
p3120
aVDD2E44
p3121
aV0084B4
p3122
aVDD2E44
p3123
aV0084B4
p3124
aV000000
p3125
aV0084B4
p3126
aV0084B4
p3127
aV0084B4
p3128
aV0084B4
p3129
aVF5ABB5
p3130
aV89C9FA
p3131
aV0084B4
p3132
aV0084B4
p3133
aV0084B4
p3134
aV2B7BB9
p3135
aV94D487
p3136
aV2B7BB9
p3137
aV0084B4
p3138
aV89C9FA
p3139
aV009999
p3140
aVDD2E44
p3141
aV0084B4
p3142
aV0084B4
p3143
aV2FC2EF
p3144
aV0084B4
p3145
aV4A913C
p3146
aVDD2E44
p3147
aVB40B43
p3148
aV1F98C7
p3149
aV2B7BB9
p3150
aV0084B4
p3151
aV0084B4
p3152
aV2B7BB9
p3153
aV336699
p3154
aV0099B9
p3155
aV3649AD
p3156
aV000000
p3157
aV2B7BB9
p3158
aV4A913C
p3159
aV0084B4
p3160
aV0084B4
p3161
aV93A644
p3162
aV0084B4
p3163
aV89C9FA
p3164
aV0084B4
p3165
aV0084B4
p3166
aV0084B4
p3167
aV0084B4
p3168
aV0084B4
p3169
aV0084B4
p3170
aV0084B4
p3171
aV9266CC
p3172
aV0084B4
p3173
aV364B71
p3174
aV0084B4
p3175
aV0084B4
p3176
aV0084B4
p3177
aV0084B4
p3178
aV0084B4
p3179
aVC0D61C
p3180
aV9D582E
p3181
aVABB8C2
p3182
aV0084B4
p3183
aV0084B4
p3184
aV0084B4
p3185
aV0DA8E0
p3186
aVF70D18
p3187
aVF5ABB5
p3188
aV0084B4
p3189
aV0084B4
p3190
aV0084B4
p3191
aV0084B4
p3192
aVFF0000
p3193
aV000000
p3194
aVF5ABB5
p3195
aVF58EA8
p3196
aV2B7BB9
p3197
aV0084B4
p3198
aV0084B4
p3199
aV009999
p3200
aV00A7C8
p3201
aV0084B4
p3202
aV2B7BB9
p3203
aV0084B4
p3204
aV2B7BB9
p3205
aV0084B4
p3206
aV2B7BB9
p3207
aV0084B4
p3208
aV2B7BB9
p3209
aV0084B4
p3210
aV0084B4
p3211
aV0084B4
p3212
aV0084B4
p3213
aV0084B4
p3214
aV0084B4
p3215
aV0084B4
p3216
aV0084B4
p3217
aV4A913C
p3218
aV0084B4
p3219
aV0084B4
p3220
aV00BCE6
p3221
aV0084B4
p3222
aVDD2E44
p3223
aV0084B4
p3224
aV0099CC
p3225
aV2B7BB9
p3226
aV0084B4
p3227
aV0084B4
p3228
aV0084B4
p3229
aV0015FF
p3230
aV2B7BB9
p3231
aV0084B4
p3232
aV0084B4
p3233
aV0084B4
p3234
aV0084B4
p3235
aV0084B4
p3236
aV0084B4
p3237
aV2B7BB9
p3238
aV0084B4
p3239
aV0084B4
p3240
aV2B7BB9
p3241
aV0084B4
p3242
aV0084B4
p3243
aV0084B4
p3244
aV0084B4
p3245
aV0084B4
p3246
aVE81C4F
p3247
aV0084B4
p3248
aV0084B4
p3249
aV0084B4
p3250
aV2B7BB9
p3251
aVDD2E44
p3252
aV0084B4
p3253
aV0084B4
p3254
aV2B7BB9
p3255
aV2FC2EF
p3256
aV2B7BB9
p3257
aV3B94D9
p3258
aV0084B4
p3259
aV0084B4
p3260
aV9266CC
p3261
aV0084B4
p3262
aV0084B4
p3263
aV0084B4
p3264
aV0084B4
p3265
aV000000
p3266
aV0084B4
p3267
aV0084B4
p3268
aV0084B4
p3269
aV2B7BB9
p3270
aV0084B4
p3271
aV0084B4
p3272
aV0084B4
p3273
aV0084B4
p3274
aV0084B4
p3275
aV3B94D9
p3276
aV0084B4
p3277
aVFF0078
p3278
aV2B7BB9
p3279
aV242829
p3280
aV009999
p3281
aV0084B4
p3282
aV0084B4
p3283
aV0084B4
p3284
aV0084B4
p3285
aV1B95E0
p3286
aV2B7BB9
p3287
aV2B7BB9
p3288
aVFF0066
p3289
aV0084B4
p3290
aVF5ABB5
p3291
aVFF0000
p3292
aVD02B55
p3293
aV0084B4
p3294
aV2B7BB9
p3295
aV2B7BB9
p3296
aVABB8C2
p3297
aV94D487
p3298
aV0084B4
p3299
aV0084B4
p3300
aV2CCF57
p3301
aV0084B4
p3302
aV2B7BB9
p3303
aVABB8C2
p3304
aV0084B4
p3305
aV2B7BB9
p3306
aV0084B4
p3307
aV2B7BB9
p3308
aV0084B4
p3309
aV4A913C
p3310
aV9266CC
p3311
aV2B7BB9
p3312
aV2B7BB9
p3313
aV0084B4
p3314
aV2B7BB9
p3315
aV0084B4
p3316
aV0084B4
p3317
aV2B7BB9
p3318
aV2B7BB9
p3319
aV2B7BB9
p3320
aV0084B4
p3321
aV0084B4
p3322
aV0084B4
p3323
aV0084B4
p3324
aV0084B4
p3325
aV0084B4
p3326
aV0084B4
p3327
aV0084B4
p3328
aV2B7BB9
p3329
aV4A913C
p3330
aV0084B4
p3331
aV0084B4
p3332
aV0084B4
p3333
aV0084B4
p3334
aV0084B4
p3335
aV0084B4
p3336
aVABB8C2
p3337
aVF58EA8
p3338
aV0084B4
p3339
aVC439BB
p3340
aV0084B4
p3341
aV0084B4
p3342
aVABB8C2
p3343
aV0084B4
p3344
aV0084B4
p3345
aV0084B4
p3346
aV0084B4
p3347
aV0084B4
p3348
aVDD2E44
p3349
aV0084B4
p3350
aV0084B4
p3351
aV0084B4
p3352
aV0084B4
p3353
aV0084B4
p3354
aV0084B4
p3355
aV0084B4
p3356
aV0084B4
p3357
aV009999
p3358
aV3B94D9
p3359
aV0084B4
p3360
aV009999
p3361
aV0084B4
p3362
aV006738
p3363
aV2B7BB9
p3364
aV0084B4
p3365
aV2FC2EF
p3366
aV0084B4
p3367
aV2B7BB9
p3368
aV66D60B
p3369
aV0084B4
p3370
aV0084B4
p3371
aV0084B4
p3372
aVFA743E
p3373
aV2B7BB9
p3374
aV2B7BB9
p3375
aV000088
p3376
aV7FBA00
p3377
aV0084B4
p3378
aV0084B4
p3379
aV0084B4
p3380
aV0084B4
p3381
aV0084B4
p3382
aV0084B4
p3383
aVDD2E44
p3384
aV2B7BB9
p3385
aV0084B4
p3386
aV0084B4
p3387
aV2B7BB9
p3388
aVFF691F
p3389
aV0084B4
p3390
aV1F98C7
p3391
a.