(lp0
V0084B4
p1
aV0084B4
p2
aV0084B4
p3
aV0084B4
p4
aV0084B4
p5
aV2B7BB9
p6
aVABB8C2
p7
aV990000
p8
aV0084B4
p9
aV2B7BB9
p10
aVF5ABB5
p11
aV0084B4
p12
aV0084B4
p13
aV4A913C
p14
aV0084B4
p15
aV0A0909
p16
aV0084B4
p17
aV0084B4
p18
aV009999
p19
aV0084B4
p20
aV89C9FA
p21
aV0084B4
p22
aV0084B4
p23
aV0084B4
p24
aV0084B4
p25
aV09F2F2
p26
aV981CEB
p27
aV131516
p28
aV0084B4
p29
aV2B7BB9
p30
aV009999
p31
aVABB8C2
p32
aV0084B4
p33
aVB40B43
p34
aVDD2E44
p35
aV9266CC
p36
aV0084B4
p37
aV89C9FA
p38
aV009999
p39
aV0084B4
p40
aV0084B4
p41
aV9266CC
p42
aV2B7BB9
p43
aV4A913C
p44
aV0084B4
p45
aV0084B4
p46
aV0084B4
p47
aV9266CC
p48
aV0084B4
p49
aV4A913C
p50
aV0084B4
p51
aVFFCC4D
p52
aVE81C4F
p53
aVFF0000
p54
aV0084B4
p55
aV0084B4
p56
aV0084B4
p57
aV8A838A
p58
aV8C0099
p59
aV94D487
p60
aV9266CC
p61
aVFF0000
p62
aVDD2E44
p63
aV0084B4
p64
aVF00E0E
p65
aV0084B4
p66
aV000000
p67
aV0084B4
p68
aV0084B4
p69
aV2B7BB9
p70
aV131516
p71
aV0084B4
p72
aV0084B4
p73
aV0084B4
p74
aV9266CC
p75
aV0084B4
p76
aV9266CC
p77
aV3B94D9
p78
aV0084B4
p79
aV2B7BB9
p80
aV0084B4
p81
aV000000
p82
aVCC3366
p83
aV0084B4
p84
aV0084B4
p85
aV00B300
p86
aV000000
p87
aV0084B4
p88
aV3FA8D2
p89
aV89C9FA
p90
aV0084B4
p91
aVFFCC4D
p92
aV0084B4
p93
aV0084B4
p94
aV0084B4
p95
aV9266CC
p96
aVDD2E44
p97
aV088253
p98
aV0084B4
p99
aV0084B4
p100
aVFF0000
p101
aV2B7BB9
p102
aV54BAE3
p103
aVDD2E44
p104
aVF5ABB5
p105
aV00FFFF
p106
aV088253
p107
aV0084B4
p108
aV0084B4
p109
aV0084B4
p110
aVCC3366
p111
aV0D9ADB
p112
aV0084B4
p113
aV2B7BB9
p114
aV0084B4
p115
aV000000
p116
aV2B7BB9
p117
aVF5ABB5
p118
aVCC6666
p119
aV94D487
p120
aVE01E1E
p121
aV0084B4
p122
aV3B94D9
p123
aVF5ABB5
p124
aV0084B4
p125
aV0084B4
p126
aV404040
p127
aV0084B4
p128
aV708090
p129
aV9266CC
p130
aV990000
p131
aVB40B43
p132
aV9266CC
p133
aV9266CC
p134
aV0084B4
p135
aV009999
p136
aV0084B4
p137
aV9266CC
p138
aV2B7BB9
p139
aV000000
p140
aVCC3366
p141
aV009999
p142
aVFF0000
p143
aV0084B4
p144
aV088A85
p145
aVDD2E44
p146
aVF5ABB5
p147
aV0084B4
p148
aV0084B4
p149
aV0084B4
p150
aVF5ABB5
p151
aV0084B4
p152
aVFF0088
p153
aV10063C
p154
aV990000
p155
aV1B95E0
p156
aV3B94D9
p157
aV0099B9
p158
aV0084B4
p159
aV89C9FA
p160
aVFDD7E4
p161
aV2B7BB9
p162
aVABB8C2
p163
aV050505
p164
aVDD2E44
p165
aV0084B4
p166
aV93A644
p167
aVDD2E44
p168
aV0084B4
p169
aVE84707
p170
aVD02B55
p171
aV0084B4
p172
aV0084B4
p173
aV94D487
p174
aV0084B4
p175
aVF58EA8
p176
aV0084B4
p177
aV0084B4
p178
aVF5ABB5
p179
aV0084B4
p180
aV088253
p181
aV1652A2
p182
aV0084B4
p183
aV0084B4
p184
aV0084B4
p185
aV0084B4
p186
aV0084B4
p187
aV0084B4
p188
aV0084B4
p189
aV0084B4
p190
aV0084B4
p191
aV0099CC
p192
aV0084B4
p193
aV0084B4
p194
aV0084B4
p195
aV0084B4
p196
aV009999
p197
aVB40B43
p198
aVFF0000
p199
aVABB8C2
p200
aV3B94D9
p201
aV009999
p202
aV3B94D9
p203
aVABB8C2
p204
aV0084B4
p205
aV2B7BB9
p206
aV3B94D9
p207
aV009999
p208
aVFF0000
p209
aV2B7BB9
p210
aVDD2E44
p211
aV0084B4
p212
aV0084B4
p213
aV0084B4
p214
aV0084B4
p215
aVB3008F
p216
aV0084B4
p217
aVF5ABB5
p218
aV3B94D9
p219
aV0084B4
p220
aV1F98C7
p221
aV131516
p222
aV0084B4
p223
aV0084B4
p224
aV9266CC
p225
aVB40B43
p226
aVFF0091
p227
aVB40B43
p228
aV3B94D9
p229
aV0084B4
p230
aVAB241D
p231
aV0084B4
p232
aVDD2E44
p233
aV243A04
p234
aV1F98C7
p235
aV0084B4
p236
aV0084B4
p237
aV2B7BB9
p238
aV3584AB
p239
aVE60E4B
p240
aV0084B4
p241
aV0099B9
p242
aVA177C7
p243
aV39BD91
p244
aV2B7BB9
p245
aV17406C
p246
aV89C9FA
p247
aVB40B43
p248
aV1F98C7
p249
aV0084B4
p250
aV0084B4
p251
aV0084B4
p252
aV94D487
p253
aV0084B4
p254
aVFA743E
p255
aV9266CC
p256
aV0084B4
p257
aV2FC2EF
p258
aV94D487
p259
aV2FC2EF
p260
aVFF0000
p261
aV0084B4
p262
aVB40B43
p263
aVABB8C2
p264
aVABB8C2
p265
aV1F98C7
p266
aV9266CC
p267
aV0084B4
p268
aV9266CC
p269
aV3B94D9
p270
aV0084B4
p271
aV0099B9
p272
aVF5ABB5
p273
aV0084B4
p274
aV0A3D80
p275
aV0084B4
p276
aV0084B4
p277
aV188F71
p278
aVF5ABB5
p279
aVFF2E2E
p280
aVFFCC4D
p281
aV0084B4
p282
aV0084B4
p283
aV0084B4
p284
aV0099B9
p285
aV13BAED
p286
aV0084B4
p287
aV2B7BB9
p288
aV0084B4
p289
aV990096
p290
aV0084B4
p291
aV0099B9
p292
aV2B7BB9
p293
aVFF0000
p294
aV94D487
p295
aV0084B4
p296
aV2B7BB9
p297
aV0084B4
p298
aV9D582E
p299
aV0084B4
p300
aVFF4400
p301
aVF5ABB5
p302
aVF5ABB5
p303
aVF5ABB5
p304
aV050505
p305
aVABB8C2
p306
aV981CEB
p307
aV180778
p308
aV0084B4
p309
aVDD2E44
p310
aV3B94D9
p311
aV0084B4
p312
aV1997BD
p313
aVABB8C2
p314
aV2FC2EF
p315
aV0084B4
p316
aVF53D90
p317
aV19BBE3
p318
aV0084B4
p319
aV0084B4
p320
aV0084B4
p321
aV038543
p322
aV2B7BB9
p323
aV0084B4
p324
aV0084B4
p325
aV0084B4
p326
aV009999
p327
aV0084B4
p328
aV799694
p329
aV0084B4
p330
aV0084B4
p331
aV0084B4
p332
aVDCAAD6
p333
aV0084B4
p334
aV000000
p335
aVCC3366
p336
aV0084B4
p337
aV2FC2EF
p338
aV088253
p339
aV0084B4
p340
aVD10000
p341
aV2B7BB9
p342
aV0084B4
p343
aV0084B4
p344
aV0084B4
p345
aV0084B4
p346
aV0084B4
p347
aV0084B4
p348
aVF58EA8
p349
aVFF6633
p350
aV0084B4
p351
aV0099CC
p352
aV0084B4
p353
aV0084B4
p354
aVE304A8
p355
aV3B94D9
p356
aVF5ABB5
p357
aV2B7BB9
p358
aV9266CC
p359
aVABB8C2
p360
aV9266CC
p361
aV0084B4
p362
aV2B7BB9
p363
aV123498
p364
aV0084B4
p365
aV0084B4
p366
aV0084B4
p367
aV0084B4
p368
aV0084B4
p369
aVB31DA1
p370
aV0099B9
p371
aV0084B4
p372
aV0084B4
p373
aV0084B4
p374
aV0084B4
p375
aV4A913C
p376
aV94D487
p377
aVE01030
p378
aVE06991
p379
aV060B00
p380
aV0084B4
p381
aV2B7BB9
p382
aVFF0000
p383
aV0084B4
p384
aVF5ABB5
p385
aV666666
p386
aVE81C4F
p387
aVDBA5F5
p388
aV0084B4
p389
aV70993B
p390
aVDD2E44
p391
aV3073AB
p392
aV2B7BB9
p393
aV4A913C
p394
aVEB127B
p395
aV0084B4
p396
aV0084B4
p397
aV0084B4
p398
aVABB8C2
p399
aV0099CC
p400
aV0099B9
p401
aV0084B4
p402
aV0F0702
p403
aV0084B4
p404
aV009999
p405
aV94D487
p406
aV0084B4
p407
aV0084B4
p408
aV5C00B3
p409
aV0084B4
p410
aV0099B9
p411
aV2FC2EF
p412
aV0084B4
p413
aV2B7BB9
p414
aV0084B4
p415
aV9266CC
p416
aV2B7BB9
p417
aV009999
p418
aV0084B4
p419
aV0084B4
p420
aV0084B4
p421
aVB3001B
p422
aV2B7BB9
p423
aV0084B4
p424
aV333333
p425
aV000000
p426
aV038543
p427
aV00FFEA
p428
aVF5ABB5
p429
aV0084B4
p430
aVDD2E44
p431
aV000000
p432
aV00FFF2
p433
aVF5ABB5
p434
aVF5ABB5
p435
aV672DE3
p436
aVABB8C2
p437
aV3B94D9
p438
aV088253
p439
aV0084B4
p440
aVF5ABB5
p441
aVB40B43
p442
aV0084B4
p443
aVFF0000
p444
aVFF0000
p445
aV2B7BB9
p446
aV82167E
p447
aVE77471
p448
aV03E05B
p449
aV009999
p450
aVE63C74
p451
aV0084B4
p452
aV0084B4
p453
aV0084B4
p454
aV9266CC
p455
aV0084B4
p456
aV0084B4
p457
aV009999
p458
aV0084B4
p459
aVABB8C2
p460
aVABB8C2
p461
aV2B7BB9
p462
aVFF0000
p463
aV2FC2EF
p464
aV2B7BB9
p465
aV0084B4
p466
aV4A913C
p467
aV0084B4
p468
aV0084B4
p469
aV0084B4
p470
aV0084B4
p471
aV757575
p472
aV0084B4
p473
aV0084B4
p474
aV990000
p475
aV0084B4
p476
aV006BB3
p477
aV0084B4
p478
aV0084B4
p479
aV0084B4
p480
aV3B94D9
p481
aV0084B4
p482
aVFA743E
p483
aV0084B4
p484
aV5A5247
p485
aV3B94D9
p486
aV000000
p487
aV2B7BB9
p488
aV0084B4
p489
aVABB8C2
p490
aVDD2E44
p491
aVF58EA8
p492
aVF4ABB3
p493
aV89C9FA
p494
aV3B94D9
p495
aV360436
p496
aV0084B4
p497
aVFF1212
p498
aV2B7BB9
p499
aVD68017
p500
aV0084B4
p501
aVFF00FF
p502
aV0084B4
p503
aV0084B4
p504
aV2FC2EF
p505
aV0084B4
p506
aV088253
p507
aV4A913C
p508
aV0084B4
p509
aV009999
p510
aVF37E31
p511
aVF5ABB5
p512
aV000000
p513
aV0084B4
p514
aV110000
p515
aV0084B4
p516
aV0084B4
p517
aVD1C37B
p518
aV268CAB
p519
aV0084B4
p520
aV0084B4
p521
aV0084B4
p522
aV038543
p523
aV9D582E
p524
aVC7920C
p525
aV0084B4
p526
aV0084B4
p527
aV0084B4
p528
aV0084B4
p529
aV0084B4
p530
aVEDDFDF
p531
aVF5ABB5
p532
aV0084B4
p533
aVF5ABB5
p534
aVF5ABB5
p535
aVDD2E44
p536
aV0084B4
p537
aV0084B4
p538
aV4A913C
p539
aV4A913C
p540
aV0084B4
p541
aV0084B4
p542
aVFA743E
p543
aV000000
p544
aV0084B4
p545
aV2B7BB9
p546
aV0084B4
p547
aV151B54
p548
aV2FC2EF
p549
aVD02B55
p550
aVF5ABB5
p551
aV0084B4
p552
aV2FC2EF
p553
aV0084B4
p554
aVD471E3
p555
aVFA743E
p556
aV89C9FA
p557
aV0084B4
p558
aVFF0000
p559
aV000000
p560
aV000000
p561
aV0099B9
p562
aV000000
p563
aV0084B4
p564
aV0084B4
p565
aV6C1680
p566
aV0084B4
p567
aV0084B4
p568
aV263326
p569
aV0084B4
p570
aV0084B4
p571
aV990000
p572
aV0084B4
p573
aVABB8C2
p574
aV3B94D9
p575
aV0084B4
p576
aVF5ABB5
p577
aVDD2E44
p578
aVFA743E
p579
aV4A913C
p580
aV0084B4
p581
aV89C9FA
p582
aV0084B4
p583
aV0084B4
p584
aV4A913C
p585
aV0084B4
p586
aV0084B4
p587
aV4A913C
p588
aV9D582E
p589
aVDD2E44
p590
aV0084B4
p591
aV0084B4
p592
aVABB8C2
p593
aV0084B4
p594
aV0084B4
p595
aV2B7BB9
p596
aV977766
p597
aV0084B4
p598
aV0084B4
p599
aV0084B4
p600
aVF5ABB5
p601
aV0084B4
p602
aV0084B4
p603
aV009999
p604
aVABB8C2
p605
aVDD2E44
p606
aV000000
p607
aV0084B4
p608
aV3B94D9
p609
aV0084B4
p610
aV0084B4
p611
aVFF0000
p612
aVF705C3
p613
aVF5ABB5
p614
aV0084B4
p615
aV3B94D9
p616
aV0084B4
p617
aV25E014
p618
aV0084B4
p619
aV9266CC
p620
aV000000
p621
aVAB0404
p622
aV0084B4
p623
aV2B7BB9
p624
aV010514
p625
aV0084B4
p626
aVF5ABB5
p627
aV0084B4
p628
aV0084B4
p629
aV3B94D9
p630
aV0084B4
p631
aV0084B4
p632
aV009999
p633
aVF5ABB5
p634
aVE52786
p635
aV0084B4
p636
aV0084B4
p637
aV0084B4
p638
aV0084B4
p639
aV2B7BB9
p640
aVFAA3D1
p641
aV2B7BB9
p642
aV2B7BB9
p643
aV0084B4
p644
aV0084B4
p645
aVF58EA8
p646
aV0099CC
p647
aV1F98C7
p648
aV0084B4
p649
aV0084B4
p650
aV09AD76
p651
aV0084B4
p652
aV0084B4
p653
aVABB8C2
p654
aV89C9FA
p655
aVF5ABB5
p656
aV0084B4
p657
aV0084B4
p658
aV0084B4
p659
aVB40B43
p660
aV0084B4
p661
aV0084B4
p662
aV0084B4
p663
aV0084B4
p664
aV0084B4
p665
aV0084B4
p666
aVFF0000
p667
aV0084B4
p668
aVF5ABB5
p669
aVFA377E
p670
aV0084B4
p671
aV131516
p672
aV0084B4
p673
aV000000
p674
aV9266CC
p675
aVDD2E44
p676
aV009999
p677
aV3B94D9
p678
aVCC3366
p679
aVFA057B
p680
aVDB645A
p681
aV0078F9
p682
aV0084B4
p683
aV0084B4
p684
aV0084B4
p685
aVDD2E44
p686
aVF5ABB5
p687
aV0084B4
p688
aV0084B4
p689
aV0084B4
p690
aV000000
p691
aV0084B4
p692
aVF0CC00
p693
aV0084B4
p694
aV7E7C94
p695
aVABB8C2
p696
aVF50505
p697
aV80213C
p698
aV000000
p699
aV0084B4
p700
aV4A913C
p701
aV0084B4
p702
aV0084B4
p703
aV2B7BB9
p704
aV0101DF
p705
aV0084B4
p706
aVB40B43
p707
aV0E0F0E
p708
aV9266CC
p709
aV89C9FA
p710
aVFFCC4D
p711
aVFF0000
p712
aVFA0303
p713
aV4A913C
p714
aVAABBBB
p715
aV2B7BB9
p716
aV0099B9
p717
aV0084B4
p718
aVABB8C2
p719
aV0084B4
p720
aV0084B4
p721
aV2FC2EF
p722
aVDD2E44
p723
aV003366
p724
aVF5ABB5
p725
aV000000
p726
aV1F98C7
p727
aV0084B4
p728
aV0099B9
p729
aVB40B43
p730
aV2B7BB9
p731
aV2B7BB9
p732
aV0084B4
p733
aV0084B4
p734
aV0084B4
p735
aVABB8C2
p736
aV0084B4
p737
aV9266CC
p738
aV0084B4
p739
aV191970
p740
aVDD2E44
p741
aV0CF014
p742
aVF5ABB5
p743
aV0084B4
p744
aV2B7BB9
p745
aVF5ABB5
p746
aV0000FF
p747
aVF200FF
p748
aV93A644
p749
aV0084B4
p750
aV0084B4
p751
aVF5ABB5
p752
aVB03449
p753
aVD02B55
p754
aV0084B4
p755
aV2B7BB9
p756
aV0084B4
p757
aV0084B4
p758
aVABB8C2
p759
aV0084B4
p760
aV0084B4
p761
aV0084B4
p762
aVFF0000
p763
aV0084B4
p764
aVDD2E44
p765
aV0084B4
p766
aV5D0A5D
p767
aV0084B4
p768
aV0084B4
p769
aV0084B4
p770
aV0084B4
p771
aV0084B4
p772
aV0084B4
p773
aV0084B4
p774
aV0084B4
p775
aV0084B4
p776
aV0084B4
p777
aV0084B4
p778
aV0084B4
p779
aV0084B4
p780
aV0084B4
p781
aV0084B4
p782
aV2B7BB9
p783
aV8DEB12
p784
aV2FC2EF
p785
aV000000
p786
aV0099B9
p787
aVBA375C
p788
aV0084B4
p789
aV0084B4
p790
aVF5ABB5
p791
aV0084B4
p792
aV0084B4
p793
aVABB8C2
p794
aV0084B4
p795
aVB40B43
p796
aVD02B55
p797
aVFFFFFF
p798
aV9D582E
p799
aV9266CC
p800
aV080002
p801
aVFFC2EF
p802
aVFA743E
p803
aV1B95E0
p804
aV0084B4
p805
aVD02B55
p806
aVCF3290
p807
aV0084B4
p808
aV0084B4
p809
aVFF0000
p810
aVCC0063
p811
aVF5ABB5
p812
aVB40B43
p813
aV0084B4
p814
aV89C9FA
p815
aV0084B4
p816
aV009999
p817
aVFF0000
p818
aV3B94D9
p819
aVDE1185
p820
aV0084B4
p821
aV0084B4
p822
aV0099B9
p823
aV0084B4
p824
aV0084B4
p825
aV0084B4
p826
aVFA743E
p827
aV009999
p828
aV0084B4
p829
aV89C9FA
p830
aV009999
p831
aV2B7BB9
p832
aV3B94D9
p833
aV0084B4
p834
aV009999
p835
aV946C21
p836
aV0084B4
p837
aV6E0EEB
p838
aV4A913C
p839
aV0084B4
p840
aV0084B4
p841
aV0084B4
p842
aVDD2E44
p843
aVD90D2F
p844
aV038543
p845
aVFF3300
p846
aVABB8C2
p847
aV89C9FA
p848
aVC0C0C0
p849
aV0084B4
p850
aV0084B4
p851
aV0084B4
p852
aV009999
p853
aV0084B4
p854
aV0084B4
p855
aV000D99
p856
aV098439
p857
aV009999
p858
aV0084B4
p859
aV0084B4
p860
aV0084B4
p861
aV9266CC
p862
aV0084B4
p863
aV1D7DF2
p864
aV2FC2EF
p865
aV01DFA5
p866
aVFA743E
p867
aV2FC2EF
p868
aV9266CC
p869
aV002B80
p870
aVFFCC4D
p871
aV0084B4
p872
aV3ABDFA
p873
aV0084B4
p874
aVDD2E44
p875
aV0084B4
p876
aV0084B4
p877
aV0084B4
p878
aV0D2121
p879
aV0084B4
p880
aV991F00
p881
aVFA419D
p882
aV6B2FED
p883
aV3B94D9
p884
aV0099B9
p885
aV009999
p886
aV009999
p887
aV0084B4
p888
aV000000
p889
aVFF8400
p890
aV969696
p891
aV0084B4
p892
aV000203
p893
aVE82E7C
p894
aV0084B4
p895
aV088253
p896
aVD10214
p897
aV000000
p898
aVFFF2F2
p899
aV89C9FA
p900
aV94D487
p901
aV9266CC
p902
aV615CE6
p903
aV0084B4
p904
aV0084B4
p905
aVFF4400
p906
aV0084B4
p907
aV0084B4
p908
aV0084B4
p909
aV0084B4
p910
aV0084B4
p911
aV0084B4
p912
aV0084B4
p913
aV0000FF
p914
aVCC3366
p915
aV0084B4
p916
aV2B7BB9
p917
aV2FC2EF
p918
aV000D82
p919
aV0A0F0B
p920
aV0084B4
p921
aV3B94D9
p922
aV94D487
p923
aV0084B4
p924
aV000000
p925
aV0D0C0C
p926
aVABB8C2
p927
aVD90D0D
p928
aV89C9FA
p929
aV0066FF
p930
aV0000FF
p931
aV0084B4
p932
aV1E20B1
p933
aV2B7BB9
p934
aV0084B4
p935
aV2FC2EF
p936
aV9266CC
p937
aV0084B4
p938
aV0084B4
p939
aV0084B4
p940
aVD1BB3E
p941
aV2B7BB9
p942
aV0084B4
p943
aV6699FF
p944
aVCC3366
p945
aV0084B4
p946
aV3B94D9
p947
aV2B7BB9
p948
aV4A913C
p949
aV0084B4
p950
aV2FC2EF
p951
aV0084B4
p952
aV2B7BB9
p953
aVABB8C2
p954
aV00ADB3
p955
aV0084B4
p956
aV0084B4
p957
aV2B7BB9
p958
aV004652
p959
aV4A913C
p960
aV0084B4
p961
aV2FC2EF
p962
aVFF0000
p963
aV0084B4
p964
aVD02B55
p965
aV009999
p966
aVF5B5B3
p967
aV0099B9
p968
aVE6A910
p969
aV990000
p970
aV0018B3
p971
aV000000
p972
aV0084B4
p973
aVFF6600
p974
aVCC2508
p975
aVBEA8D6
p976
aV1F98C7
p977
aV0084B4
p978
aV0084B4
p979
aV111111
p980
aV46F02B
p981
aV009999
p982
aVF5ABB5
p983
aV0084B4
p984
aV0084B4
p985
aV333333
p986
aV89C9FA
p987
aV2B7BB9
p988
aV0084B4
p989
aVC51342
p990
aV0084B4
p991
aVA900FF
p992
aVDD2E44
p993
aV0084B4
p994
aV0084B4
p995
aV0084B4
p996
aV990000
p997
aVDD2E44
p998
aVD02B55
p999
aV009999
p1000
aV0084B4
p1001
aV000000
p1002
aV0084B4
p1003
aV9D582E
p1004
aV99001A
p1005
aV0084B4
p1006
aV0084B4
p1007
aV89C9FA
p1008
aVB40B43
p1009
aVFF0505
p1010
aV2B7BB9
p1011
aV4A913C
p1012
aVD11E74
p1013
aV0062B3
p1014
aV0084B4
p1015
aV0084B4
p1016
aV0084B4
p1017
aVDD2E44
p1018
aV235DD1
p1019
aV0084B4
p1020
aV0084B4
p1021
aVFF0091
p1022
aV2B7BB9
p1023
aVFF0F0F
p1024
aV0084B4
p1025
aVB40B43
p1026
aV0084B4
p1027
aV030303
p1028
aV3B94D9
p1029
aV0084B4
p1030
aV0084B4
p1031
aVCC3300
p1032
aV9873C7
p1033
aV139E41
p1034
aV0084B4
p1035
aV9266CC
p1036
aV0084B4
p1037
aV0084B4
p1038
aVD02B55
p1039
aV0084B4
p1040
aV0084B4
p1041
aVEB091C
p1042
aV0084B4
p1043
aVFF69B4
p1044
aV72B9BF
p1045
aVD02B55
p1046
aVDD2E44
p1047
aV0084B4
p1048
aV00B306
p1049
aVB30009
p1050
aVCC3366
p1051
aV0084B4
p1052
aV0084B4
p1053
aV2B7BB9
p1054
aV0084B4
p1055
aV0084B4
p1056
aV0084B4
p1057
aV0084B4
p1058
aVABB8C2
p1059
aV0084B4
p1060
aV0084B4
p1061
aV0084B4
p1062
aV0084B4
p1063
aVFF0000
p1064
aV0099B9
p1065
aV0084B4
p1066
aVFF00A6
p1067
aV2B7BB9
p1068
aV0084B4
p1069
aVA121CC
p1070
aVABB8C2
p1071
aV0084B4
p1072
aV038543
p1073
aVABB8C2
p1074
aVF5ABB5
p1075
aV0084B4
p1076
aVDD2E44
p1077
aV0084B4
p1078
aV000000
p1079
aV2B7BB9
p1080
aV2B7BB9
p1081
aV0084B4
p1082
aV2B7BB9
p1083
aV0084B4
p1084
aV0084B4
p1085
aV2B7BB9
p1086
aV2B7BB9
p1087
aV2B7BB9
p1088
aV0084B4
p1089
aV0084B4
p1090
aV2B7BB9
p1091
aV0084B4
p1092
aV89C9FA
p1093
aV0A090A
p1094
aV0084B4
p1095
aV48D1CC
p1096
aVFF0000
p1097
aV0084B4
p1098
aV0084B4
p1099
aV0084B4
p1100
aV0084B4
p1101
aV0084B4
p1102
aV0084B4
p1103
aV0084B4
p1104
aV640F96
p1105
aV2FC2EF
p1106
aV0084B4
p1107
aVFFCC4D
p1108
aVCC3366
p1109
aV0084B4
p1110
aV3CD6AF
p1111
aVABB8C2
p1112
aV0084B4
p1113
aVFF0000
p1114
aV0099B9
p1115
aV0084B4
p1116
aV0000EE
p1117
aV3B94D9
p1118
aV514456
p1119
aV0084B4
p1120
aV0099CC
p1121
aV0084B4
p1122
aV990000
p1123
aV0084B4
p1124
aV0084B4
p1125
aV0084B4
p1126
aV009999
p1127
aVABB8C2
p1128
aV93A644
p1129
aV0084B4
p1130
aV0084B4
p1131
aV7A10E3
p1132
aV0084B4
p1133
aVAAAAAA
p1134
aV89C9FA
p1135
aV009999
p1136
aV2B7BB9
p1137
aVDD2E44
p1138
aVDD2E44
p1139
aVDD2E44
p1140
aVED11A0
p1141
aV0084B4
p1142
aV0084B4
p1143
aV0084B4
p1144
aVF5ABB5
p1145
aV0084B4
p1146
aV990000
p1147
aV4A913C
p1148
aV89C9FA
p1149
aV920C0F
p1150
aV8F00B3
p1151
aV16665F
p1152
aV94D487
p1153
aVABB8C2
p1154
aV4A913C
p1155
aV2F3294
p1156
aV1C76BF
p1157
aV0084B4
p1158
aV0084B4
p1159
aVCC3366
p1160
aV0084B4
p1161
aV4A913C
p1162
aV94D487
p1163
aV0084B4
p1164
aV2B7BB9
p1165
aV2B7BB9
p1166
aV0084B4
p1167
aV990000
p1168
aV2B7BB9
p1169
aV0084B4
p1170
aV2B7BB9
p1171
aVF5ABB5
p1172
aV0084B4
p1173
aV2FC2EF
p1174
aV0084B4
p1175
aV0084B4
p1176
aV000000
p1177
aV0084B4
p1178
aVD02B55
p1179
aV2B7BB9
p1180
aV0099B9
p1181
aV9266CC
p1182
aVFF005A
p1183
aVFF0000
p1184
aV0084B4
p1185
aV0084B4
p1186
aV244DA4
p1187
aV9D582E
p1188
aV0084B4
p1189
aV0084B4
p1190
aV0084B4
p1191
aV0084B4
p1192
aVF58208
p1193
aV9266CC
p1194
aV0084B4
p1195
aV0084B4
p1196
aV0084B4
p1197
aV0084B4
p1198
aV0084B4
p1199
aVB40B43
p1200
aV990000
p1201
aVABB8C2
p1202
aV0084B4
p1203
aV009999
p1204
aV0084B4
p1205
aV0084B4
p1206
aVEC7E22
p1207
aV1F98C7
p1208
aV007ACC
p1209
aVFF0022
p1210
aV0093B8
p1211
aV0084B4
p1212
aV9500B3
p1213
aV2B7BB9
p1214
aVF5ABB5
p1215
aV9266CC
p1216
aV0084B4
p1217
aV0084B4
p1218
aVF5ABB5
p1219
aV0099B9
p1220
aV22C2F2
p1221
aV5D5E77
p1222
aVFF0000
p1223
aV89C9FA
p1224
aV000000
p1225
aV038543
p1226
aV330033
p1227
aV0084B4
p1228
aV1D5A49
p1229
aV812C17
p1230
aV0084B4
p1231
aVB30089
p1232
aVFFCC4D
p1233
aV0084B4
p1234
aV0084B4
p1235
aV0084B4
p1236
aV28A30D
p1237
aV0084B4
p1238
aVDD2E44
p1239
aV000000
p1240
aV000899
p1241
aVDD2E44
p1242
aVF5ABB5
p1243
aVF5ABB5
p1244
aV0084B4
p1245
aV0084B4
p1246
aV0084B4
p1247
aV880000
p1248
aV0084B4
p1249
aV0084B4
p1250
aV0084B4
p1251
aV0099B9
p1252
aV1A191C
p1253
aVABB8C2
p1254
aV0084B4
p1255
aV009999
p1256
aV0084B4
p1257
aV111212
p1258
aV0099B9
p1259
aVE89CAA
p1260
aVF279CC
p1261
aV0084B4
p1262
aV0084B4
p1263
aV0084B4
p1264
aV0084B4
p1265
aV009999
p1266
aV3B94D9
p1267
aVABB8C2
p1268
aVE80E9C
p1269
aV0084B4
p1270
aV0084B4
p1271
aV0084B4
p1272
aV0084B4
p1273
aVB16B6B
p1274
aVDD2E44
p1275
aV108DE0
p1276
aV0084B4
p1277
aV0084B4
p1278
aV0084B4
p1279
aV0084B4
p1280
aV0084B4
p1281
aVDD2E44
p1282
aVB50909
p1283
aVFF0000
p1284
aV4A913C
p1285
aV9266CC
p1286
aV038543
p1287
aV0084B4
p1288
aV2B7BB9
p1289
aV088253
p1290
aV0084B4
p1291
aV0084B4
p1292
aV000000
p1293
aVFFCC4D
p1294
aV2B7BB9
p1295
aV9266CC
p1296
aV0084B4
p1297
aVCE7834
p1298
aV1E10E6
p1299
aVE067C2
p1300
aVFAB81E
p1301
aV0084B4
p1302
aV0084B4
p1303
aVF00EA1
p1304
aV0084B4
p1305
aVB30048
p1306
aV0084B4
p1307
aVFA3200
p1308
aV9266CC
p1309
aVABB8C2
p1310
aVDD2E44
p1311
aVFF0000
p1312
aVDD2E44
p1313
aV0084B4
p1314
aVBD5779
p1315
aV0084B4
p1316
aV9266CC
p1317
aV9266CC
p1318
aV0084B4
p1319
aV2FC2EF
p1320
aV0084B4
p1321
aV891CE3
p1322
aV0084B4
p1323
aV3B94D9
p1324
aV0084B4
p1325
aV0084B4
p1326
aV000000
p1327
aVDD2E44
p1328
aV0084B4
p1329
aV000000
p1330
aV009999
p1331
aV038543
p1332
aV009999
p1333
aV0084B4
p1334
aV0084B4
p1335
aV0084B4
p1336
aVD02B55
p1337
aV2FC2EF
p1338
aV0084B4
p1339
aV0084B4
p1340
aV0084B4
p1341
aV0084B4
p1342
aV0084B4
p1343
aV374569
p1344
aV0084B4
p1345
aV0084B4
p1346
aV2F55ED
p1347
aV0084B4
p1348
aV0084B4
p1349
aV4A913C
p1350
aV13F562
p1351
aV0084B4
p1352
aV0084B4
p1353
aV111A33
p1354
aVFF784E
p1355
aV0BA0D6
p1356
aVFF0000
p1357
aV2FC2EF
p1358
aVF5ABB5
p1359
aV6633CC
p1360
aV0084B4
p1361
aVF50C10
p1362
aV1F98C7
p1363
aV79107D
p1364
aV0084B4
p1365
aV0084B4
p1366
aV2B7BB9
p1367
aVABB8C2
p1368
aVFF0000
p1369
aV0084B4
p1370
aVF02409
p1371
aV11A800
p1372
aVABB8C2
p1373
aV0084B4
p1374
aV0084B4
p1375
aVF5ABB5
p1376
aVEB0964
p1377
aV89C9FA
p1378
aV0084B4
p1379
aVDD2E44
p1380
aV0084B4
p1381
aV3B94D9
p1382
aV038543
p1383
aV0084B4
p1384
aV2B7BB9
p1385
aV0084B4
p1386
aV4A913C
p1387
aVF5ABB5
p1388
aV009999
p1389
aV0084B4
p1390
aV0084B4
p1391
aV2FC2EF
p1392
aV0084B4
p1393
aVABB8C2
p1394
aV3B94D9
p1395
aV89C9FA
p1396
aV0084B4
p1397
aV0084B4
p1398
aV0084B4
p1399
aV6FD9A7
p1400
aVDB4B4B
p1401
aV4A913C
p1402
aV0084B4
p1403
aVABB8C2
p1404
aVABB8C2
p1405
aV0084B4
p1406
aV89C9FA
p1407
aVDD2E44
p1408
aV0084B4
p1409
aV0909ED
p1410
aV0033B3
p1411
aV9266CC
p1412
aV0084B4
p1413
aV0084B4
p1414
aV0084B4
p1415
aVFA743E
p1416
aV666666
p1417
aVABB8C2
p1418
aV9266CC
p1419
aV038543
p1420
aV9266CC
p1421
aVF5ABB5
p1422
aVE81C4F
p1423
aV7FDBB6
p1424
aV2B7BB9
p1425
aV087FFF
p1426
aVFF0000
p1427
aV0084B4
p1428
aVABB8C2
p1429
aV088253
p1430
aVF5ABB5
p1431
aV0084B4
p1432
aVABB8C2
p1433
aV000000
p1434
aVFA127A
p1435
aV000000
p1436
aVE6CA3C
p1437
aV180000
p1438
aV0099CC
p1439
aV0084B4
p1440
aV8523A6
p1441
aV0084B4
p1442
aV0084B4
p1443
aV0084B4
p1444
aVF58EA8
p1445
aV038543
p1446
aV0084B4
p1447
aV0084B4
p1448
aV9266CC
p1449
aV0084B4
p1450
aVB4D6D3
p1451
aV0084B4
p1452
aV0084B4
p1453
aV7529CC
p1454
aV477D0A
p1455
aV000000
p1456
aV9266CC
p1457
aV0084B4
p1458
aVD6BEBC
p1459
aV0084B4
p1460
aV0084B4
p1461
aV2B7BB9
p1462
aV8FBC8F
p1463
aV0084B4
p1464
aV000000
p1465
aV0084B4
p1466
aV009999
p1467
aV0084B4
p1468
aV0000FF
p1469
aV0084B4
p1470
aV404040
p1471
aVF0B4D1
p1472
aV0084B4
p1473
aV0084B4
p1474
aVB40B43
p1475
aV9BA5A8
p1476
aV0084B4
p1477
aV4A913C
p1478
aV62863C
p1479
aV4A9DC9
p1480
aV333333
p1481
aV009999
p1482
aV088253
p1483
aV040505
p1484
aV807880
p1485
aVABB8C2
p1486
aV000000
p1487
aV038543
p1488
aV0084B4
p1489
aVDB18AE
p1490
aV89C9FA
p1491
aV556644
p1492
aVBA0B0B
p1493
aV19CF86
p1494
aV0084B4
p1495
aV0084B4
p1496
aVABB8C2
p1497
aV0084B4
p1498
aV038543
p1499
aV9266CC
p1500
aVDD2E44
p1501
aV038543
p1502
aV000000
p1503
aVDD2E44
p1504
aVDD2E44
p1505
aV3B94D9
p1506
aV0084B4
p1507
aVF70525
p1508
aV26B7D1
p1509
aV0084B4
p1510
aV2C88CF
p1511
aV0084B4
p1512
aV3B94D9
p1513
aV2B7BB9
p1514
aV0084B4
p1515
aV000000
p1516
aV9E77BD
p1517
aV1D27EB
p1518
aV2B7BB9
p1519
aV990000
p1520
aV93A644
p1521
aV4A913C
p1522
aV9266CC
p1523
aV9266CC
p1524
aV0084B4
p1525
aVF5ABB5
p1526
aV89C9FA
p1527
aV0084B4
p1528
aVFF42B3
p1529
aVFF7700
p1530
aVABB8C2
p1531
aV990000
p1532
aVFF3300
p1533
aV2B7BB9
p1534
aVF5ABB5
p1535
aV0084B4
p1536
aV2FC2EF
p1537
aV009999
p1538
aV0071B0
p1539
aV13BD18
p1540
aV89C9FA
p1541
aV0084B4
p1542
aVDD2E44
p1543
aV0084B4
p1544
aV0099CC
p1545
aVDD2E44
p1546
aV3B94D9
p1547
aVFF0000
p1548
aV0084B4
p1549
aV0084B4
p1550
aV9E9E9E
p1551
aV0084B4
p1552
aVFF0000
p1553
aV000000
p1554
aV0084B4
p1555
aV0084B4
p1556
aV038543
p1557
aV0084B4
p1558
aVDD2E44
p1559
aVFF0000
p1560
aV000000
p1561
aV9D582E
p1562
aV0084B4
p1563
aVF5ABB5
p1564
aVFFCC4D
p1565
aV3B94D9
p1566
aV2B7BB9
p1567
aV48FB0D
p1568
aVFF0000
p1569
aV0084B4
p1570
aV0084B4
p1571
aVDD2E44
p1572
aV0084B4
p1573
aV9933CC
p1574
aV3B94D9
p1575
aV2B7BB9
p1576
aVDD2E44
p1577
aV3B94D9
p1578
aV2B7BB9
p1579
aVEB217C
p1580
aV0084B4
p1581
aVFF0000
p1582
aV0084B4
p1583
aV0084B4
p1584
aV0084B4
p1585
aVCC3366
p1586
aV0084B4
p1587
aV0084B4
p1588
aV89C9FA
p1589
aV0084B4
p1590
aVDD2E44
p1591
aV0084B4
p1592
aV89C9FA
p1593
aV3BAAFF
p1594
aV0084B4
p1595
aV0084B4
p1596
aV0084B4
p1597
aV0084B4
p1598
aV0084B4
p1599
aV000000
p1600
aV0084B4
p1601
aV0084B4
p1602
aVFF0000
p1603
aVFA743E
p1604
aVF082E4
p1605
aV0AFF0A
p1606
aV4A913C
p1607
aVDD2E44
p1608
aVDB0D0D
p1609
aV000000
p1610
aV0084B4
p1611
aV3211ED
p1612
aVDD2E44
p1613
aV0084B4
p1614
aV0084B4
p1615
aV0084B4
p1616
aV0084B4
p1617
aV9266CC
p1618
aV89C9FA
p1619
aV0084B4
p1620
aV0084B4
p1621
aVFF3300
p1622
aV0084B4
p1623
aV0084B4
p1624
aV0084B4
p1625
aV9D582E
p1626
aVB40B43
p1627
aV990000
p1628
aV000000
p1629
aV0084B4
p1630
aV000000
p1631
aVF7CAC9
p1632
aV0084B4
p1633
aV08070A
p1634
aVFF0000
p1635
aVFF0000
p1636
aV2B7BB9
p1637
aV0084B4
p1638
aV000000
p1639
aV0084B4
p1640
aV0084B4
p1641
aV990000
p1642
aVFA743E
p1643
aV0084B4
p1644
aVFF3300
p1645
aV0084B4
p1646
aV0084B4
p1647
aV0084B4
p1648
aV0084B4
p1649
aV000000
p1650
aVABB8C2
p1651
aV0084B4
p1652
aV0084B4
p1653
aVABB8C2
p1654
aV0084B4
p1655
aV3B94D9
p1656
aV0084B4
p1657
aV2B7BB9
p1658
aV0084B4
p1659
aV0084B4
p1660
aVE99098
p1661
aV0084B4
p1662
aV0084B4
p1663
aV0084B4
p1664
aV000000
p1665
aV009999
p1666
aV94D487
p1667
aVF5ABB5
p1668
aV0C0C0C
p1669
aV000000
p1670
aV0084B4
p1671
aVFF0000
p1672
aV0084B4
p1673
aV0084B4
p1674
aVABB8C2
p1675
aV0084B4
p1676
aV0084B4
p1677
aV0084B4
p1678
aV0084B4
p1679
aV0000FF
p1680
aV038543
p1681
aVABB8C2
p1682
aVDD2E44
p1683
aV91D2FA
p1684
aV0084B4
p1685
aVABB8C2
p1686
aV0084B4
p1687
aV0084B4
p1688
aV0084B4
p1689
aVB812CC
p1690
aV0084B4
p1691
aV0000FF
p1692
aV0084B4
p1693
aV0084B4
p1694
aVFF0000
p1695
aV0084B4
p1696
aVABB8C2
p1697
aV0084B4
p1698
aV0084B4
p1699
aVF5ABB5
p1700
aV0084B4
p1701
aVF5ABB5
p1702
aV59A2C6
p1703
aV0084B4
p1704
aV3B94D9
p1705
aV2B7BB9
p1706
aVFF0000
p1707
aV0084B4
p1708
aV0084B4
p1709
aV9266CC
p1710
aVFF4AFE
p1711
aVABB8C2
p1712
aV030303
p1713
aV0084B4
p1714
aV0084B4
p1715
aVF5ABB5
p1716
aV0084B4
p1717
aV0084B4
p1718
aV0084B4
p1719
aV038543
p1720
aV0084B4
p1721
aV0084B4
p1722
aV2FC2EF
p1723
aV0084B4
p1724
aVB30000
p1725
aV0084B4
p1726
aV0084B4
p1727
aV0084B4
p1728
aV0084B4
p1729
aV0084B4
p1730
aV0084B4
p1731
aV0084B4
p1732
aV0084B4
p1733
aVABB8C2
p1734
aVFF0088
p1735
aV0084B4
p1736
aV0084B4
p1737
aV0084B4
p1738
aV0084B4
p1739
aVF28511
p1740
aV9266CC
p1741
aV0084B4
p1742
aV0084B4
p1743
aVDD2E44
p1744
aV4A913C
p1745
aV000000
p1746
aV0084B4
p1747
aV0084B4
p1748
aV0084B4
p1749
aV0084B4
p1750
aV0084B4
p1751
aV2B7BB9
p1752
aV0084B4
p1753
aV77FFAA
p1754
aV2B7BB9
p1755
aV2B7BB9
p1756
aV0084B4
p1757
aV2B7BB9
p1758
aV0084B4
p1759
aV2B7BB9
p1760
aV0084B4
p1761
aV0084B4
p1762
aV2B7BB9
p1763
aV0084B4
p1764
aV038543
p1765
aV2B7BB9
p1766
aV0084B4
p1767
aV17406C
p1768
aV3B94D9
p1769
aV0084B4
p1770
aV0084B4
p1771
aV0084B4
p1772
aV0084B4
p1773
aVB6689C
p1774
aVFAB81E
p1775
aV0084B4
p1776
aVF5ABB5
p1777
aV0084B4
p1778
aV9266CC
p1779
aV0084B4
p1780
aV030202
p1781
aV0084B4
p1782
aV0084B4
p1783
aV0084B4
p1784
aV2FC2EF
p1785
aV0084B4
p1786
aV009999
p1787
aV0084B4
p1788
aVF5ABB5
p1789
aVABB8C2
p1790
aV0084B4
p1791
aV1421A8
p1792
aV2B7BB9
p1793
aV0084B4
p1794
aV4A913C
p1795
aV0084B4
p1796
aV2424B3
p1797
aVEB17B2
p1798
aV0084B4
p1799
aV1B95E0
p1800
aV9266CC
p1801
aV000033
p1802
aV2B7BB9
p1803
aV0084B4
p1804
aVFA0D7F
p1805
aV155367
p1806
aVABB8C2
p1807
aV3B94D9
p1808
aV0084B4
p1809
aV0084B4
p1810
aV3B94D9
p1811
aVF5ABB5
p1812
aV000000
p1813
aV0084B4
p1814
aVCC00E3
p1815
aV0084B4
p1816
aV9266CC
p1817
aV0084B4
p1818
aV0084B4
p1819
aV2B7BB9
p1820
aVFF0000
p1821
aV0084B4
p1822
aV0084B4
p1823
aV0084B4
p1824
aV1A1B1F
p1825
aV4A913C
p1826
aVDD2E44
p1827
aV0084B4
p1828
aV0084B4
p1829
aV9266CC
p1830
aV050505
p1831
aV000000
p1832
aV000000
p1833
aV0084B4
p1834
aVF5ABB5
p1835
aVABB8C2
p1836
aV9266CC
p1837
aV1B95E0
p1838
aV000000
p1839
aV000000
p1840
aVB40B43
p1841
aV4A913C
p1842
aV0084B4
p1843
aV0084B4
p1844
aV2B7BB9
p1845
aV0084B4
p1846
aV0084B4
p1847
aV2D0485
p1848
aV0084B4
p1849
aV0084B4
p1850
aV0084B4
p1851
aV0084B4
p1852
aV088253
p1853
aV0099CC
p1854
aV0084B4
p1855
aV165DF5
p1856
aV000000
p1857
aVFDD017
p1858
aV6E0424
p1859
aV2FC2EF
p1860
aV89C9FA
p1861
aV9266CC
p1862
aV0084B4
p1863
aV408D52
p1864
aV0084B4
p1865
aV000000
p1866
aV2BB3B3
p1867
aV0084B4
p1868
aV0084B4
p1869
aV0084B4
p1870
aVCC0000
p1871
aV0084B4
p1872
aV3B94D9
p1873
aV9266CC
p1874
aVDD2E44
p1875
aVDD2E44
p1876
aV0084B4
p1877
aV0084B4
p1878
aV222222
p1879
aVABB8C2
p1880
aV2B7BB9
p1881
aV0084B4
p1882
aVB80E4D
p1883
aV0084B4
p1884
aV0084B4
p1885
aVF5ABB5
p1886
aV39A6EF
p1887
aV0084B4
p1888
aV0084B4
p1889
aV990000
p1890
aVFF4E08
p1891
aV404040
p1892
aV0084B4
p1893
aVED70A2
p1894
aVF5ABB5
p1895
aV2B7BB9
p1896
aV0084B4
p1897
aV2B7BB9
p1898
aV009999
p1899
aV088253
p1900
aV89C9FA
p1901
aV0084B4
p1902
aV0084B4
p1903
aV4A913C
p1904
aV3B94D9
p1905
aV0084B4
p1906
aVE152EB
p1907
aV0084B4
p1908
aVF5ABB5
p1909
aVE61066
p1910
aVFBD0D5
p1911
aV2B7BB9
p1912
aV612737
p1913
aV0A0A0A
p1914
aV9266CC
p1915
aV3B94D9
p1916
aV2B7BB9
p1917
aV0099B9
p1918
aV0084B4
p1919
aV3B94D9
p1920
aV4A913C
p1921
aV0084B4
p1922
aVE81C4F
p1923
aV5D6466
p1924
aVA53EB5
p1925
aV009999
p1926
aVFF3300
p1927
aV0084B4
p1928
aV0084B4
p1929
aV94D487
p1930
aV94D487
p1931
aVE8883F
p1932
aVE8ADAA
p1933
aV89C9FA
p1934
aV0099B9
p1935
aV9266CC
p1936
aV0084B4
p1937
aV0084B4
p1938
aV000000
p1939
aVCC3366
p1940
aVDD2E44
p1941
aV0084B4
p1942
aV0084B4
p1943
aV0084B4
p1944
aV0084B4
p1945
aV2B7BB9
p1946
aV333333
p1947
aV3E3E3E
p1948
aVF5ABB5
p1949
aV0099B9
p1950
aV5C6B70
p1951
aV2FC2EF
p1952
aV111111
p1953
aV6A0888
p1954
aVDD2E44
p1955
aV7FDBB6
p1956
aV009999
p1957
aV1A1A1C
p1958
aVABB8C2
p1959
aVABB8C2
p1960
aV0084B4
p1961
aV0084B4
p1962
aV2FC2EF
p1963
aV0084B4
p1964
aVDD2E44
p1965
aV0084B4
p1966
aV89C9FA
p1967
aVDD2E44
p1968
aV0084B4
p1969
aV0084B4
p1970
aVF5ABB5
p1971
aV0084B4
p1972
aV0084B4
p1973
aV041BE3
p1974
aV2B7BB9
p1975
aV3B94D9
p1976
aV0084B4
p1977
aV0084B4
p1978
aV2FC2EF
p1979
aVFF0000
p1980
aV2FC2EF
p1981
aVFA743E
p1982
aV0084B4
p1983
aV0084B4
p1984
aV0084B4
p1985
aV2FC2EF
p1986
aV0084B4
p1987
aVF21616
p1988
aV7ADAF0
p1989
aV0084B4
p1990
aVABB8C2
p1991
aV0084B4
p1992
aV0084B4
p1993
aV9266CC
p1994
aV94D487
p1995
aV009999
p1996
aV2B7BB9
p1997
aVFF00EE
p1998
aV0099CC
p1999
aV0099B9
p2000
aVDD2E44
p2001
aVB40B43
p2002
aV0099B9
p2003
aVFA743E
p2004
aV0099CC
p2005
aV0084B4
p2006
aV0084B4
p2007
aVF5ABB5
p2008
aV0084B4
p2009
aVF21505
p2010
aV9266CC
p2011
aV3B94D9
p2012
aV038543
p2013
aV4A913C
p2014
aV0084B4
p2015
aV0084B4
p2016
aV0084B4
p2017
aV89C9FA
p2018
aVF5ABB5
p2019
aVDD2E44
p2020
aV0084B4
p2021
aVEB7BA9
p2022
aVD02B55
p2023
aV0084B4
p2024
aV4A913C
p2025
aVED8BE6
p2026
aV8552E3
p2027
aV088253
p2028
aV0084B4
p2029
aVB40B43
p2030
aV0084B4
p2031
aVDD2E44
p2032
aV0084B4
p2033
aVF5ABB5
p2034
aV0084B4
p2035
aV0084B4
p2036
aVABB8C2
p2037
aVDD2E66
p2038
aV000000
p2039
aV0084B4
p2040
aVDE0D95
p2041
aV0084B4
p2042
aVF5ABB5
p2043
aV0084B4
p2044
aVFF0000
p2045
aV2B7BB9
p2046
aV82787F
p2047
aV000000
p2048
aV0099CC
p2049
aV0084B4
p2050
aVDD2E44
p2051
aV990000
p2052
aV3B94D9
p2053
aV0084B4
p2054
aVFF0000
p2055
aV851EC9
p2056
aV2B7BB9
p2057
aVB40B43
p2058
aV0084B4
p2059
aV2B7BB9
p2060
aVFA743E
p2061
aV0084B4
p2062
aV0084B4
p2063
aV0084B4
p2064
aV0084B4
p2065
aV0084B4
p2066
aV0084B4
p2067
aV0084B4
p2068
aV0084B4
p2069
aV2B7BB9
p2070
aV0084B4
p2071
aV0084B4
p2072
aV2B7BB9
p2073
aVDD2E44
p2074
aV0084B4
p2075
aV0084B4
p2076
aV0099CC
p2077
aV00B38F
p2078
aV0084B4
p2079
aV11657A
p2080
aV2B7BB9
p2081
aV0084B4
p2082
aV0084B4
p2083
aV090A0A
p2084
aV93A644
p2085
aV0099B9
p2086
aVDD2E44
p2087
aVF5ABB5
p2088
aV3B94D9
p2089
aVB5903F
p2090
aV0084B4
p2091
aV0084B4
p2092
aV2B7BB9
p2093
aV6382CF
p2094
aV2B7BB9
p2095
aVFF3300
p2096
aV9266CC
p2097
aVB40B43
p2098
aVD02B55
p2099
aV2B7BB9
p2100
aVC34242
p2101
aV0021B3
p2102
aV1808F5
p2103
aV0084B4
p2104
aVDD2E44
p2105
aV0084B4
p2106
aV3C00FF
p2107
aV0084B4
p2108
aV0084B4
p2109
aV3B94D9
p2110
aV2B7BB9
p2111
aVABB8C2
p2112
aV0084B4
p2113
aV6B00B3
p2114
aVCC3366
p2115
aV009999
p2116
aV2FC2EF
p2117
aV0084B4
p2118
aV131516
p2119
aV0084B4
p2120
aV0084B4
p2121
aV0099B9
p2122
aV0084B4
p2123
aV0084B4
p2124
aV0084B4
p2125
aV2B7BB9
p2126
aVF5ABB5
p2127
aV0084B4
p2128
aVDD2E44
p2129
aV89C9FA
p2130
aV735722
p2131
aV49D3B9
p2132
aV0084B4
p2133
aV0084B4
p2134
aVDD2E44
p2135
aVABB8C2
p2136
aVB40B43
p2137
aV0084B4
p2138
aV0084B4
p2139
aV009999
p2140
aV0084B4
p2141
aV0099B9
p2142
aV0084B4
p2143
aV0084B4
p2144
aV2B7BB9
p2145
aV0084B4
p2146
aV008EED
p2147
aV0084B4
p2148
aV0084B4
p2149
aVFF0000
p2150
aV0084B4
p2151
aV0084B4
p2152
aV0084B4
p2153
aV9266CC
p2154
aV0084B4
p2155
aV02BCC2
p2156
aVABB8C2
p2157
aV2B7BB9
p2158
aV0084B4
p2159
aV9266CC
p2160
aV009999
p2161
aV990000
p2162
aV0084B4
p2163
aV0084B4
p2164
aV0084B4
p2165
aV1E1F1F
p2166
aVF200E9
p2167
aV0084B4
p2168
aV9D582E
p2169
aV2B7BB9
p2170
aV0084B4
p2171
aVF5ABB5
p2172
aV94D487
p2173
aV0084B4
p2174
aVD02B55
p2175
aVFF0000
p2176
aV22FF00
p2177
aV0084B4
p2178
aV0084B4
p2179
aV9266CC
p2180
aV0084B4
p2181
aV0084B4
p2182
aV0084B4
p2183
aV0084B4
p2184
aV0084B4
p2185
aV0084B4
p2186
aV0084B4
p2187
aV0084B4
p2188
aVFF0000
p2189
aVFF0000
p2190
aV0084B4
p2191
aV0084B4
p2192
aV18A4C7
p2193
aV038543
p2194
aV0084B4
p2195
aV0084B4
p2196
aV0084B4
p2197
aVFA743E
p2198
aVCC3366
p2199
aV3B94D9
p2200
aV990000
p2201
aV0084B4
p2202
aV2B7BB9
p2203
aV9266CC
p2204
aV89C9FA
p2205
aV94D487
p2206
aV0099B9
p2207
aV0084B4
p2208
aVABB8C2
p2209
aVFFCC4D
p2210
aV009999
p2211
aV0084B4
p2212
aV0084B4
p2213
aV009999
p2214
aV0084B4
p2215
aV0084B4
p2216
aV89C9FA
p2217
aV2FC2EF
p2218
aV0084B4
p2219
aV0084B4
p2220
aVB208F5
p2221
aV0084B4
p2222
aVF5ABB5
p2223
aV009999
p2224
aVFF691F
p2225
aV6A4836
p2226
aV9266CC
p2227
aVD02B55
p2228
aV0084B4
p2229
aV0084B4
p2230
aV0084B4
p2231
aV326CAD
p2232
aV0084B4
p2233
aV2B7BB9
p2234
aVDD2E44
p2235
aV0084B4
p2236
aV038543
p2237
aV0084B4
p2238
aV0084B4
p2239
aV050E12
p2240
aV0084B4
p2241
aV0084B4
p2242
aV4A913C
p2243
aV0084B4
p2244
aV0084B4
p2245
aV0084B4
p2246
aV009999
p2247
aVABB8C2
p2248
aV0084B4
p2249
aV0084B4
p2250
aV041670
p2251
aV0084B4
p2252
aV0084B4
p2253
aV0084B4
p2254
aV3B94D9
p2255
aV0084B4
p2256
aV0084B4
p2257
aV3B94D9
p2258
aV0084B4
p2259
aV0084B4
p2260
aV0099CC
p2261
aV0084B4
p2262
aV0084B4
p2263
aV0084B4
p2264
aV0084B4
p2265
aV0084B4
p2266
aVC411D4
p2267
aV0084B4
p2268
aV0084B4
p2269
aV0084B4
p2270
aV0084B4
p2271
aV131516
p2272
aV0084B4
p2273
aV0084B4
p2274
aV0084B4
p2275
aV0084B4
p2276
aV0084B4
p2277
aV0099CC
p2278
aV0084B4
p2279
aV0084B4
p2280
aV1CBFBF
p2281
aV0084B4
p2282
aV0084B4
p2283
aVABB8C2
p2284
aV0084B4
p2285
aV088253
p2286
aV0084B4
p2287
aV0084B4
p2288
aV0084B4
p2289
aV009999
p2290
aV0084B4
p2291
aV050505
p2292
aV0084B4
p2293
aV2B7BB9
p2294
aV2B7BB9
p2295
aV9266CC
p2296
aVF5ABB5
p2297
aV131516
p2298
aV009999
p2299
aVF5ABB5
p2300
aVBD0F0F
p2301
aV17406C
p2302
aV3B94D9
p2303
aV3CC3C1
p2304
aVF09EDD
p2305
aV0084B4
p2306
aV0084B4
p2307
aV0084B4
p2308
aV9266CC
p2309
aV2FC2EF
p2310
aV0084B4
p2311
aV0084B4
p2312
aVFF0505
p2313
aV0084B4
p2314
aV2B7BB9
p2315
aVB40B43
p2316
aVDD2E44
p2317
aV0084B4
p2318
aV9266CC
p2319
aV9266CC
p2320
aV0084B4
p2321
aVABB8C2
p2322
aVB80093
p2323
aV94D487
p2324
aV0084B4
p2325
aV0084B4
p2326
aVDD2E44
p2327
aV088253
p2328
aV0084B4
p2329
aVFF3300
p2330
aVFF0000
p2331
aV0084B4
p2332
aV0084B4
p2333
aV3B94D9
p2334
aV000000
p2335
aV2FC2EF
p2336
aVDD2E44
p2337
aVFF0000
p2338
aV0084B4
p2339
aV0084B4
p2340
aV0084B4
p2341
aV0084B4
p2342
aV000000
p2343
aV0084B4
p2344
aV0084B4
p2345
aV0084B4
p2346
aV0084B4
p2347
aV0084B4
p2348
aV0084B4
p2349
aV0084B4
p2350
aV0084B4
p2351
aV0084B4
p2352
aV0084B4
p2353
aV0084B4
p2354
aV000000
p2355
aV111111
p2356
aV0084B4
p2357
aV0084B4
p2358
aV0084B4
p2359
aV0084B4
p2360
aV0099CC
p2361
aV0084B4
p2362
aVDD2E44
p2363
aVDD2E44
p2364
aV0084B4
p2365
aV0084B4
p2366
aV4A913C
p2367
aV0084B4
p2368
aV0084B4
p2369
aV2B7BB9
p2370
aV0084B4
p2371
aV0084B4
p2372
aV0084B4
p2373
aV0084B4
p2374
aV2FC2EF
p2375
aV9266CC
p2376
aV009999
p2377
aV9266CC
p2378
aV0084B4
p2379
aVE007A6
p2380
aV035FBC
p2381
aV0084B4
p2382
aV0084B4
p2383
aV9266CC
p2384
aVD02B55
p2385
aV0084B4
p2386
aV2B7BB9
p2387
aV0084B4
p2388
aV9266CC
p2389
aV2B7BB9
p2390
aV0084B4
p2391
aV0084B4
p2392
aV0084B4
p2393
aVABB8C2
p2394
aV0084B4
p2395
aV0084B4
p2396
aV0084B4
p2397
aV0084B4
p2398
aV0026FF
p2399
aV009999
p2400
aV0084B4
p2401
aV0084B4
p2402
aV0084B4
p2403
aV0EB830
p2404
aV0084B4
p2405
aV0084B4
p2406
aVFB7E3E
p2407
aV0084B4
p2408
aV0084B4
p2409
aVABB8C2
p2410
aV0084B4
p2411
aV0084B4
p2412
aV0084B4
p2413
aV000A06
p2414
aVFF0000
p2415
aV004688
p2416
aV0084B4
p2417
aV2FC2EF
p2418
aV0084B4
p2419
aV2FC2EF
p2420
aV0084B4
p2421
aV2FC2EF
p2422
aV2FC2EF
p2423
aV0084B4
p2424
aVABB8C2
p2425
aVFA743E
p2426
aV0084B4
p2427
aV0084B4
p2428
aVABB8C2
p2429
aV0084B4
p2430
aV3B94D9
p2431
aV2B7BB9
p2432
aVF5ABB5
p2433
aV0084B4
p2434
aV0084B4
p2435
aVFF0000
p2436
aVDD2E44
p2437
aV0084B4
p2438
aVE60511
p2439
aV08BBF2
p2440
aV0C30E6
p2441
aV0099B9
p2442
aV0084B4
p2443
aV0084B4
p2444
aV000000
p2445
aV0084B4
p2446
aV0084B4
p2447
aV0084B4
p2448
aV0084B4
p2449
aV000000
p2450
aV3B94D9
p2451
aVF5ABB5
p2452
aV94D487
p2453
aV009999
p2454
aV0084B4
p2455
aV0084B4
p2456
aV4A913C
p2457
aVF50303
p2458
aVDB81BE
p2459
aV0084B4
p2460
aVF5140C
p2461
aV0000FF
p2462
aV0084B4
p2463
aV0084B4
p2464
aV0084B4
p2465
aV2B7BB9
p2466
aV0084B4
p2467
aV0084B4
p2468
aV0084B4
p2469
aV009999
p2470
aV0084B4
p2471
aV0084B4
p2472
aV0084B4
p2473
aV0084B4
p2474
aV0084B4
p2475
aVDD2E44
p2476
aV0084B4
p2477
aV000000
p2478
aV9266CC
p2479
aV0084B4
p2480
aV3B94D9
p2481
aV0084B4
p2482
aV0084B4
p2483
aV0E0BBD
p2484
aV0084B4
p2485
aV0084B4
p2486
aV0084B4
p2487
aV0084B4
p2488
aV0084B4
p2489
aV0084B4
p2490
aV1B95E0
p2491
aVFF0000
p2492
aV0084B4
p2493
aV0084B4
p2494
aVFA743E
p2495
aV0084B4
p2496
aV0084B4
p2497
aV009999
p2498
aV0000FF
p2499
aVFF0000
p2500
aV0084B4
p2501
aVFA743E
p2502
aV3B94D9
p2503
aV050505
p2504
aV0084B4
p2505
aV822BE6
p2506
aV0084B4
p2507
aV0084B4
p2508
aVDD2E44
p2509
aV038543
p2510
aV100000
p2511
aV3810A6
p2512
aVDD2E44
p2513
aV0084B4
p2514
aV0084B4
p2515
aV0084B4
p2516
aVCED126
p2517
aV009999
p2518
aV0084B4
p2519
aV0084B4
p2520
aV000000
p2521
aV4A913C
p2522
aV9266CC
p2523
aV0084B4
p2524
aV0084B4
p2525
aV4A913C
p2526
aV19CF86
p2527
aVFF3300
p2528
aV9266CC
p2529
aV0084B4
p2530
aV055C12
p2531
aV0084B4
p2532
aV0084B4
p2533
aV0099CC
p2534
aV0084B4
p2535
aV0084B4
p2536
aV0084B4
p2537
aV131516
p2538
aV0084B4
p2539
aV0084B4
p2540
aV526AB3
p2541
aV009999
p2542
aV088253
p2543
aV729276
p2544
aVFF0505
p2545
aV0084B4
p2546
aV0084B4
p2547
aV0084B4
p2548
aV0099B9
p2549
aVB40B43
p2550
aV009999
p2551
aV94D487
p2552
aV0084B4
p2553
aV0084B4
p2554
aV0084B4
p2555
aV93A644
p2556
aVCC3300
p2557
aV0084B4
p2558
aV0084B4
p2559
aV0084B4
p2560
aV0084B4
p2561
aV0084B4
p2562
aVABB8C2
p2563
aV9266CC
p2564
aV0084B4
p2565
aVE61561
p2566
aVF5ABB5
p2567
aV2B7BB9
p2568
aVDD2E44
p2569
aV752323
p2570
aV0084B4
p2571
aV0084B4
p2572
aV0084B4
p2573
aVEB1796
p2574
aV0084B4
p2575
aV0084B4
p2576
aV0084B4
p2577
aV0084B4
p2578
aV0084B4
p2579
aV9C1493
p2580
aV009999
p2581
aVABB8C2
p2582
aV9D582E
p2583
aV000000
p2584
aV9266CC
p2585
aV0084B4
p2586
aV9266CC
p2587
aV0084B4
p2588
aV94D487
p2589
aVABB8C2
p2590
aV0084B4
p2591
aV9266CC
p2592
aV0084B4
p2593
aV009999
p2594
aVFF0000
p2595
aV0084B4
p2596
aV0084B4
p2597
aVFF0000
p2598
aV2B7BB9
p2599
aV0000FF
p2600
aV007BFF
p2601
aV0084B4
p2602
aV0084B4
p2603
aV0084B4
p2604
aV0084B4
p2605
aV0084B4
p2606
aVFF3300
p2607
aV0099B9
p2608
aV0084B4
p2609
aV3B94D9
p2610
aV2FC2EF
p2611
aV8A0ABD
p2612
aV9266CC
p2613
aVFA743E
p2614
aVF7819F
p2615
aV000000
p2616
aV9791A6
p2617
aV0084B4
p2618
aV0084B4
p2619
aV0099B9
p2620
aVABB8C2
p2621
aV0084B4
p2622
aV3B94D9
p2623
aVABB8C2
p2624
aV0084B4
p2625
aVFF0000
p2626
aV0084B4
p2627
aV0084B4
p2628
aV4A913C
p2629
aVED552F
p2630
aV0084B4
p2631
aV9266CC
p2632
aV0084B4
p2633
aV2FC2EF
p2634
aVA310A3
p2635
aV0084B4
p2636
aV0084B4
p2637
aV070778
p2638
aVCC3366
p2639
aV323E4C
p2640
aV3B94D9
p2641
aVABB8C2
p2642
aV878687
p2643
aV0084B4
p2644
aV3C00FF
p2645
aVFF0000
p2646
aV0084B4
p2647
aVDD2E44
p2648
aV0084B4
p2649
aV0084B4
p2650
aVAA0900
p2651
aV233787
p2652
aV94D487
p2653
aV0084B4
p2654
aV4A913C
p2655
aV3B94D9
p2656
aV0084B4
p2657
aV0084B4
p2658
aVD02B55
p2659
aV9266CC
p2660
aVB40B43
p2661
aV0084B4
p2662
aVABB8C2
p2663
aVFFCC4D
p2664
aV37BFE8
p2665
aV990000
p2666
aVFA743E
p2667
aV0084B4
p2668
aVDD2E44
p2669
aV3B94D9
p2670
aV0084B4
p2671
aV000000
p2672
aV0084B4
p2673
aV0084B4
p2674
aV9266CC
p2675
aV0BA2BD
p2676
aVF05D82
p2677
aVABB8C2
p2678
aV444CA6
p2679
aVDD2E44
p2680
aV0084B4
p2681
aV0084B4
p2682
aVABB8C2
p2683
aV000000
p2684
aV0084B4
p2685
aV990000
p2686
aV000000
p2687
aVDD2E44
p2688
aV0084B4
p2689
aVBF1313
p2690
aV0084B4
p2691
aV93A644
p2692
aV8823C2
p2693
aV0099B9
p2694
aVF5252B
p2695
aV0099B9
p2696
aV0084B4
p2697
aVABB8C2
p2698
aVFFCC4D
p2699
aV0084B4
p2700
aV0084B4
p2701
aV3B94D9
p2702
aV9266CC
p2703
aV0084B4
p2704
aVB40B43
p2705
aVD02B55
p2706
aV9266CC
p2707
aV9266CC
p2708
aV0084B4
p2709
aV9266CC
p2710
aV0084B4
p2711
aV000000
p2712
aV0084B4
p2713
aVF5ABB5
p2714
aV0084B4
p2715
aV0099B9
p2716
aV006FFF
p2717
aV0084B4
p2718
aV9266CC
p2719
aV7500A3
p2720
aV93A644
p2721
aV981CEB
p2722
aV93A644
p2723
aV0084B4
p2724
aV0084B4
p2725
aV0084B4
p2726
aV9266CC
p2727
aV0084B4
p2728
aV3B94D9
p2729
aV9266CC
p2730
aVFF0000
p2731
aV009999
p2732
aV0084B4
p2733
aV0084B4
p2734
aV0084B4
p2735
aV57E007
p2736
aV0084B4
p2737
aV89C9FA
p2738
aV0099B9
p2739
aV7700B3
p2740
aV0084B4
p2741
aV420742
p2742
aV49B69D
p2743
aV990000
p2744
aV0084B4
p2745
aVB40B43
p2746
aV8B008B
p2747
aVDD2E44
p2748
aV589ED2
p2749
aV000000
p2750
aV0084B4
p2751
aV038543
p2752
aV0084B4
p2753
aVE2A2FF
p2754
aV0E33EB
p2755
aVF5ABB5
p2756
aV3B94D9
p2757
aV0084B4
p2758
aVB200B8
p2759
aVBD0C0C
p2760
aV4A913C
p2761
aV3B94D9
p2762
aV038543
p2763
aV0084B4
p2764
aV0099B9
p2765
aV0084B4
p2766
aV0084B4
p2767
aV0084B4
p2768
aV000000
p2769
aV0084B4
p2770
aV93A644
p2771
aV3B94D9
p2772
aV0084B4
p2773
aV00FCB5
p2774
aVF5ABB5
p2775
aV0084B4
p2776
aV9266CC
p2777
aV89C9FA
p2778
aV0099B9
p2779
aVDD2E44
p2780
aV0084B4
p2781
aVEA13F5
p2782
aVE61C77
p2783
aV3B94D9
p2784
aV0084B4
p2785
aV2FC2EF
p2786
aV0084B4
p2787
aV0084B4
p2788
aV93A644
p2789
aV0084B4
p2790
aV0084B4
p2791
aV0084B4
p2792
aV0084B4
p2793
aVCE7834
p2794
aVDD2E44
p2795
aV0A090A
p2796
aVB80034
p2797
aVF5ABB5
p2798
aV9266CC
p2799
aV4A913C
p2800
aV58ED2F
p2801
aV964444
p2802
aV850099
p2803
aV00F7FF
p2804
aV0084B4
p2805
aV0084B4
p2806
aV0099B9
p2807
aV0084B4
p2808
aV0084B4
p2809
aV0084B4
p2810
aV0084B4
p2811
aV0099B9
p2812
aV0084B4
p2813
aV00B31E
p2814
aV0084B4
p2815
aVF5ABB5
p2816
aV990000
p2817
aV146B7A
p2818
aV000000
p2819
aV1E1D19
p2820
aV0084B4
p2821
aV0084B4
p2822
aV0084B4
p2823
aV0099B9
p2824
aV0099B9
p2825
aVDD2E44
p2826
aVB40B43
p2827
aV1FC291
p2828
aV0084B4
p2829
aV0084B4
p2830
aVDD2E44
p2831
aVDD2E44
p2832
aV0084B4
p2833
aV3B94D9
p2834
aVCC3366
p2835
aV0000FF
p2836
aV9266CC
p2837
aV0084B4
p2838
aV080808
p2839
aV9266CC
p2840
aV89C9FA
p2841
aV0099B9
p2842
aV0084B4
p2843
aV0084B4
p2844
aVF5ABB5
p2845
aV0084B4
p2846
aV3E79B5
p2847
aV93A644
p2848
aV89C9FA
p2849
aV9266CC
p2850
aV0084B4
p2851
aV9266CC
p2852
aVB40B44
p2853
aV990000
p2854
aV94D487
p2855
aV000000
p2856
aVABB8C2
p2857
aV0084B4
p2858
aV3B94D9
p2859
aV0084B4
p2860
aV982DF0
p2861
aV0084B4
p2862
aVC71010
p2863
aV0099B9
p2864
aV0084B4
p2865
aV08D63F
p2866
aVABB8C2
p2867
aV038543
p2868
aV303030
p2869
aV91D2FA
p2870
aV0084B4
p2871
aV3B94D9
p2872
aV0084B4
p2873
aV89C9FA
p2874
aV0084B4
p2875
aVCC3366
p2876
aVA1A8A5
p2877
aV0084B4
p2878
aVDD2E44
p2879
aV0084B4
p2880
aV00FFFF
p2881
aV0084B4
p2882
aV4A913C
p2883
aV001111
p2884
aV0084B4
p2885
aV009999
p2886
aV4A913C
p2887
aVDD2E44
p2888
aV0F5F78
p2889
aV4A913C
p2890
aVF5ABB5
p2891
aV0084B4
p2892
aVB10CF2
p2893
aVFF0000
p2894
aV0084B4
p2895
aVB7D7F0
p2896
aV4A913C
p2897
aVFA743E
p2898
aV0CB7F5
p2899
aVFFCC4D
p2900
aV4A913C
p2901
aV0084B4
p2902
aV0084B4
p2903
aV110000
p2904
aVF5ABB5
p2905
aV93A644
p2906
aVB40B43
p2907
aVE439ED
p2908
aVABB8C2
p2909
aV0084B4
p2910
aV9266CC
p2911
aV357464
p2912
aVFF00A6
p2913
aV0084B4
p2914
aV0084B4
p2915
aV0084B4
p2916
aV9266CC
p2917
aVB30000
p2918
aVC75741
p2919
aV94D487
p2920
aV2FC2EF
p2921
aV0084B4
p2922
aVB32A00
p2923
aV1118DB
p2924
aV0006B5
p2925
aV373737
p2926
aV0084B4
p2927
aVB1352D
p2928
aV0084B4
p2929
aV0084B4
p2930
aVF44357
p2931
aV131516
p2932
aV0084B4
p2933
aVABB8C2
p2934
aV0084B4
p2935
aVDD2E44
p2936
aV000000
p2937
aV0084B4
p2938
aV0084B4
p2939
aVFFD2F5
p2940
aVF5ABB5
p2941
aV000000
p2942
aV0084B4
p2943
aVABB8C2
p2944
aVABB8C2
p2945
aVABB8C2
p2946
aVA5B692
p2947
aVF5ABB5
p2948
aV4A913C
p2949
aV0084B4
p2950
aV89C9FA
p2951
aV2FC2EF
p2952
aV000000
p2953
aV11518A
p2954
aV0084B4
p2955
aVABB8C2
p2956
aV000000
p2957
aV0084B4
p2958
aVFF3300
p2959
aV23E019
p2960
aVFFCC4D
p2961
aV0084B4
p2962
aVFF0000
p2963
aV009999
p2964
aV009999
p2965
aV3C44D9
p2966
aV3B94D9
p2967
aV0084B4
p2968
aV0084B4
p2969
aV0084B4
p2970
aVF5ABB5
p2971
aV298A08
p2972
aVF04351
p2973
aV0084B4
p2974
aV0084B4
p2975
aV0084B4
p2976
aV0084B4
p2977
aVFF1500
p2978
aV0084B4
p2979
aV0084B4
p2980
aVF21352
p2981
aV91EAEA
p2982
aV00B34E
p2983
aV9266CC
p2984
aV0084B4
p2985
aV009999
p2986
aVF5ABB5
p2987
aVF5ABB5
p2988
aV3B94D9
p2989
aV9266CC
p2990
aV9E1742
p2991
aVABB8C2
p2992
aV088253
p2993
aV2FC2EF
p2994
aV9266CC
p2995
aVF5ABB5
p2996
aVDD2E44
p2997
aV009999
p2998
aV4A4245
p2999
aV0084B4
p3000
aVED079D
p3001
aVDD2E44
p3002
aV000000
p3003
aVBF09DB
p3004
aVFF87E7
p3005
aVD8B2D1
p3006
aVF5ABB5
p3007
aVDD2E44
p3008
aV445EA6
p3009
aV000022
p3010
aVD2635C
p3011
aVBCE3CB
p3012
aV0084B4
p3013
aV89C9FA
p3014
aV0084B4
p3015
aV0099B9
p3016
aVFA743E
p3017
aV4F1266
p3018
aV0084C8
p3019
aV4DAFF0
p3020
aVF0091D
p3021
aV009999
p3022
aV0084B4
p3023
aV0084B4
p3024
aVFF3300
p3025
aV28E617
p3026
aVE8091C
p3027
aV175FE6
p3028
aVDB0B57
p3029
aV0084B4
p3030
aV0084B4
p3031
aV0084B4
p3032
aV86ACBA
p3033
aV0A1052
p3034
aV800080
p3035
aVABB8C2
p3036
aVFF0000
p3037
aV3B94D9
p3038
aV990000
p3039
aV0084B4
p3040
aV94D487
p3041
aV0084B4
p3042
aV2FC2EF
p3043
aV0084B4
p3044
aV12E66E
p3045
aV0084B4
p3046
aV0084B4
p3047
aV444433
p3048
aV0084B4
p3049
aV9266CC
p3050
aV89C9FA
p3051
aV038543
p3052
aV000000
p3053
aV009999
p3054
aVF5ABB5
p3055
aV0084B4
p3056
aV0084B4
p3057
aVF5ABB5
p3058
aV3B94D9
p3059
aV0084B4
p3060
aV89C9FA
p3061
aV119999
p3062
aV3B94D9
p3063
aV0084B4
p3064
aV0084B4
p3065
aV0084B4
p3066
aVABB8C2
p3067
aV080C0D
p3068
aVE610DB
p3069
aV0084B4
p3070
aV038543
p3071
aV0084B4
p3072
aVFF4782
p3073
aV0084B4
p3074
aV0084B4
p3075
aV0084B4
p3076
aV9768D1
p3077
aV0084B4
p3078
aV89C9FA
p3079
aV0084B4
p3080
aV000000
p3081
aV0084B4
p3082
aV000000
p3083
aV0084B4
p3084
aV0084B4
p3085
aVEB1D98
p3086
aVABB8C2
p3087
aV0084B4
p3088
aV0084B4
p3089
aVD3E8F0
p3090
aVF5ABB5
p3091
aV009999
p3092
aVB9B9B9
p3093
aV0084B4
p3094
aV9266CC
p3095
aV00B31B
p3096
aV0084B4
p3097
aV3B94D9
p3098
aVD02B55
p3099
aV0084B4
p3100
aVB30057
p3101
aV0084B4
p3102
aV0084B4
p3103
aV0084B4
p3104
aV0084B4
p3105
aV0084B4
p3106
aV0084B4
p3107
aVDD2E44
p3108
aV009999
p3109
aV0084B4
p3110
aV0084B4
p3111
aV0084B4
p3112
aV0084B4
p3113
aVABB8C2
p3114
aVFFFFFF
p3115
aV0084B4
p3116
aV0084B4
p3117
aV0084B4
p3118
aV91D2FA
p3119
aV3B94D9
p3120
aV0084B4
p3121
aV0084B4
p3122
aV9266CC
p3123
aVFFCC4D
p3124
aV9266CC
p3125
aV0084B4
p3126
aV0084B4
p3127
aV0084B4
p3128
aVF5ABB5
p3129
aV0084B4
p3130
aVA3AFB3
p3131
aVFF0000
p3132
aV9B83BA
p3133
aV0084B4
p3134
aVF5ABB5
p3135
aV0084B4
p3136
aV0084B4
p3137
aV0084B4
p3138
aV0084B4
p3139
aV0084B4
p3140
aV0084B4
p3141
aV89C9FA
p3142
aV2B7BB9
p3143
aV0084B4
p3144
aV0084B4
p3145
aVDD2E44
p3146
aV1F98C7
p3147
aV3B94D9
p3148
aV2B7BB9
p3149
aV0084B4
p3150
aVFF3300
p3151
aV0084B4
p3152
aV0084B4
p3153
aVDD2E44
p3154
aV0084B4
p3155
aV0084B4
p3156
aV0084B4
p3157
aV0084B4
p3158
aV0084B4
p3159
aV89C9FA
p3160
aV0084B4
p3161
aV0084B4
p3162
aV0084B4
p3163
aV2B7BB9
p3164
aV2B7BB9
p3165
aV0084B4
p3166
aV2B7BB9
p3167
aV0084B4
p3168
aV0084B4
p3169
aV0084B4
p3170
aV2B7BB9
p3171
aV0084B4
p3172
aV2B7BB9
p3173
aVFA743E
p3174
aV0084B4
p3175
aV4A913C
p3176
aV0084B4
p3177
aV0084B4
p3178
aVABB8C2
p3179
aV2FC2EF
p3180
aV2B7BB9
p3181
aV0084B4
p3182
aV0084B4
p3183
aV2B7BB9
p3184
aV009999
p3185
aV0084B4
p3186
aVB40B43
p3187
aV0084B4
p3188
aV009999
p3189
aV009999
p3190
aV0084B4
p3191
aV009999
p3192
aV009999
p3193
aV009999
p3194
aV009999
p3195
aV009999
p3196
aV009999
p3197
aV009999
p3198
aV009999
p3199
aV009999
p3200
aV009999
p3201
aV000000
p3202
aV009999
p3203
aV009999
p3204
aV009999
p3205
aV009999
p3206
aV009999
p3207
aV009999
p3208
aV009999
p3209
aV009999
p3210
aV009999
p3211
aV009999
p3212
aV009999
p3213
aV009999
p3214
aV009999
p3215
aV0084B4
p3216
aV0084B4
p3217
aV0084B4
p3218
aV0084B4
p3219
aV2B7BB9
p3220
aV2B7BB9
p3221
aV981CEB
p3222
aV0084B4
p3223
aV2B7BB9
p3224
aV0084B4
p3225
aV2B7BB9
p3226
aV004D69
p3227
aV0084B4
p3228
aV0084B4
p3229
aV0084B4
p3230
aV0084B4
p3231
aV0084B4
p3232
aV2B7BB9
p3233
aVDD2E44
p3234
aV0084B4
p3235
aV2B7BB9
p3236
aV2B7BB9
p3237
aV0084B4
p3238
aV0084B4
p3239
aV0084B4
p3240
aV0084B4
p3241
aV2B7BB9
p3242
aV0084B4
p3243
aV2B7BB9
p3244
aV2B7BB9
p3245
aV0084B4
p3246
aV0084B4
p3247
aV84C757
p3248
aV0084B4
p3249
aV0084B4
p3250
aV0084B4
p3251
aV0084B4
p3252
aV0084B4
p3253
aV0084B4
p3254
aV0084B4
p3255
aV000000
p3256
aV0084B4
p3257
aV2B7BB9
p3258
aV2B7BB9
p3259
aV0084B4
p3260
aV009999
p3261
aVFF0000
p3262
aV2B7BB9
p3263
aV0084B4
p3264
aV0084B4
p3265
aV0084B4
p3266
aV0084B4
p3267
aVFF0000
p3268
aV0084B4
p3269
aV0084B4
p3270
aV0084B4
p3271
aV0084B4
p3272
aV0084B4
p3273
aV0084B4
p3274
aV0084B4
p3275
aV0084B4
p3276
aV009999
p3277
aV0084B4
p3278
aV0084B4
p3279
aV0084B4
p3280
aVF5ABB5
p3281
aV0084B4
p3282
aV0084B4
p3283
aV0084B4
p3284
aV0084B4
p3285
aV0084B4
p3286
aV0084B4
p3287
aV0084B4
p3288
aV0084B4
p3289
aV2B7BB9
p3290
aV0084B4
p3291
aV08039E
p3292
aV0084B4
p3293
aV0084B4
p3294
aV2B7BB9
p3295
aV0084B4
p3296
aV0084B4
p3297
aVFF66CC
p3298
aV0084B4
p3299
aV0084B4
p3300
aV0084B4
p3301
aV2B7BB9
p3302
aV0084B4
p3303
aV0084B4
p3304
aV2B7BB9
p3305
aV2FC2EF
p3306
aV2B7BB9
p3307
aV0084B4
p3308
aV0084B4
p3309
aV2B7BB9
p3310
aV2B7BB9
p3311
aV0084B4
p3312
aV2B7BB9
p3313
aV0084B4
p3314
aV0084B4
p3315
aV0084B4
p3316
aV0084B4
p3317
aV0084B4
p3318
aV9266CC
p3319
aV0084B4
p3320
aV0084B4
p3321
aV0084B4
p3322
aV2B7BB9
p3323
aV0084B4
p3324
aV0084B4
p3325
aV0084B4
p3326
aV0084B4
p3327
aV93A644
p3328
aVBCA9F5
p3329
aV0084B4
p3330
aV2B7BB9
p3331
aV0084B4
p3332
aV0084B4
p3333
aV2B7BB9
p3334
aV0084B4
p3335
aV0084B4
p3336
aV0084B4
p3337
aVFA743E
p3338
aV009999
p3339
aV981CEB
p3340
aVFF0000
p3341
aV2B7BB9
p3342
aV9266CC
p3343
aV0084B4
p3344
aV0084B4
p3345
aV0084B4
p3346
aV89C9FA
p3347
aV89C9FA
p3348
aV2B7BB9
p3349
aV0084B4
p3350
aV0084B4
p3351
aV131516
p3352
aV0084B4
p3353
aV0084B4
p3354
aVDD2E44
p3355
aV89C9FA
p3356
aV0084B4
p3357
aVF5ABB5
p3358
aV2FC2EF
p3359
aV009999
p3360
aV0084B4
p3361
aV0084B4
p3362
aV0084B4
p3363
aVD02B55
p3364
aV009999
p3365
aV0084B4
p3366
aVD02B55
p3367
aV2FC2EF
p3368
aV0084B4
p3369
aV990000
p3370
aV0084B4
p3371
aV0099B9
p3372
aVDD2E44
p3373
aV0084B4
p3374
aVABB8C2
p3375
aV0084B4
p3376
aV06126B
p3377
aV0084B4
p3378
aV1B95E0
p3379
aV2B7BB9
p3380
aV0084B4
p3381
aV2B7BB9
p3382
aV2B7BB9
p3383
aV9266CC
p3384
aV0084B4
p3385
aV0084B4
p3386
aV1833DE
p3387
aV0084B4
p3388
a.